Archive member included because of file (symbol)

..\mruby-1.0.0\build\PICrouter\lib\libmruby.a(class.o)
                              build/default/production/picrouter.o (mrb_define_method)
..\mruby-1.0.0\build\PICrouter\lib\libmruby.a(error.o)
                              ..\mruby-1.0.0\build\PICrouter\lib\libmruby.a(class.o) (mrb_raise)
..\mruby-1.0.0\build\PICrouter\lib\libmruby.a(gc.o)
                              ..\mruby-1.0.0\build\PICrouter\lib\libmruby.a(class.o) (mrb_free)
..\mruby-1.0.0\build\PICrouter\lib\libmruby.a(hash.o)
                              ..\mruby-1.0.0\build\PICrouter\lib\libmruby.a(gc.o) (mrb_gc_mark_hash)
..\mruby-1.0.0\build\PICrouter\lib\libmruby.a(kernel.o)
                              ..\mruby-1.0.0\build\PICrouter\lib\libmruby.a(error.o) (mrb_obj_clone)
..\mruby-1.0.0\build\PICrouter\lib\libmruby.a(load.o)
                              build/default/production/picrouter.o (mrb_load_irep)
..\mruby-1.0.0\build\PICrouter\lib\libmruby.a(object.o)
                              ..\mruby-1.0.0\build\PICrouter\lib\libmruby.a(error.o) (mrb_obj_equal)
..\mruby-1.0.0\build\PICrouter\lib\libmruby.a(print.o)
                              ..\mruby-1.0.0\build\PICrouter\lib\libmruby.a(error.o) (mrb_p)
..\mruby-1.0.0\build\PICrouter\lib\libmruby.a(proc.o)
                              ..\mruby-1.0.0\build\PICrouter\lib\libmruby.a(load.o) (mrb_proc_new)
..\mruby-1.0.0\build\PICrouter\lib\libmruby.a(state.o)
                              build/default/production/picrouter.o (mrb_open)
..\mruby-1.0.0\build\PICrouter\lib\libmruby.a(string.o)
                              ..\mruby-1.0.0\build\PICrouter\lib\libmruby.a(class.o) (mrb_str_modify)
..\mruby-1.0.0\build\PICrouter\lib\libmruby.a(symbol.o)
                              ..\mruby-1.0.0\build\PICrouter\lib\libmruby.a(load.o) (mrb_intern)
..\mruby-1.0.0\build\PICrouter\lib\libmruby.a(variable.o)
                              ..\mruby-1.0.0\build\PICrouter\lib\libmruby.a(gc.o) (mrb_gc_mark_gv)
..\mruby-1.0.0\build\PICrouter\lib\libmruby.a(vm.o)
                              ..\mruby-1.0.0\build\PICrouter\lib\libmruby.a(error.o) (mrb_longjmp)
..\mruby-1.0.0\build\PICrouter\lib\libmruby.a(array.o)
                              ..\mruby-1.0.0\build\PICrouter\lib\libmruby.a(string.o) (mrb_ary_pop)
..\mruby-1.0.0\build\PICrouter\lib\libmruby.a(backtrace.o)
                              ..\mruby-1.0.0\build\PICrouter\lib\libmruby.a(print.o) (mrb_print_backtrace)
..\mruby-1.0.0\build\PICrouter\lib\libmruby.a(crc.o)
                              ..\mruby-1.0.0\build\PICrouter\lib\libmruby.a(load.o) (calc_crc_16_ccitt)
..\mruby-1.0.0\build\PICrouter\lib\libmruby.a(debug.o)
                              ..\mruby-1.0.0\build\PICrouter\lib\libmruby.a(error.o) (mrb_debug_get_filename)
..\mruby-1.0.0\build\PICrouter\lib\libmruby.a(etc.o)
                              ..\mruby-1.0.0\build\PICrouter\lib\libmruby.a(kernel.o) (mrb_obj_id)
..\mruby-1.0.0\build\PICrouter\lib\libmruby.a(init.o)
                              ..\mruby-1.0.0\build\PICrouter\lib\libmruby.a(state.o) (mrb_init_core)
..\mruby-1.0.0\build\PICrouter\lib\libmruby.a(numeric.o)
                              ..\mruby-1.0.0\build\PICrouter\lib\libmruby.a(object.o) (mrb_flo_to_fixnum)
..\mruby-1.0.0\build\PICrouter\lib\libmruby.a(range.o)
                              ..\mruby-1.0.0\build\PICrouter\lib\libmruby.a(vm.o) (mrb_range_new)
..\mruby-1.0.0\build\PICrouter\lib\libmruby.a(mrblib.o)
                              ..\mruby-1.0.0\build\PICrouter\lib\libmruby.a(init.o) (mrb_init_mrblib)
..\mruby-1.0.0\build\PICrouter\lib\libmruby.a(compar.o)
                              ..\mruby-1.0.0\build\PICrouter\lib\libmruby.a(init.o) (mrb_init_comparable)
..\mruby-1.0.0\build\PICrouter\lib\libmruby.a(enum.o)
                              ..\mruby-1.0.0\build\PICrouter\lib\libmruby.a(init.o) (mrb_init_enumerable)
c:/program files (x86)/microchip/xc32/v1.22/bin/../lib/gcc/pic32mx/4.5.2/../../../../pic32mx/lib/mips16\libmchp_peripheral.a(read_core_timer_lib.o)
                              build/default/production/_ext/1340694758/ETHPIC32ExtPhy.o (ReadCoreTimer)
c:/program files (x86)/microchip/xc32/v1.22/bin/../lib/gcc/pic32mx/4.5.2/../../../../pic32mx/lib/mips16\libmchp_peripheral_32MX795F512H.a(eth_ack_packet_lib.o)
                              build/default/production/_ext/1340694758/ETHPIC32IntMac.o (EthRxAcknowledgeBuffer)
c:/program files (x86)/microchip/xc32/v1.22/bin/../lib/gcc/pic32mx/4.5.2/../../../../pic32mx/lib/mips16\libmchp_peripheral_32MX795F512H.a(eth_descriptors_add_lib.o)
                              build/default/production/_ext/1340694758/ETHPIC32IntMac.o (EthDescriptorsPoolAdd)
c:/program files (x86)/microchip/xc32/v1.22/bin/../lib/gcc/pic32mx/4.5.2/../../../../pic32mx/lib/mips16\libmchp_peripheral_32MX795F512H.a(eth_init_lib.o)
                              build/default/production/_ext/1340694758/ETHPIC32IntMac.o (EthInit)
c:/program files (x86)/microchip/xc32/v1.22/bin/../lib/gcc/pic32mx/4.5.2/../../../../pic32mx/lib/mips16\libmchp_peripheral_32MX795F512H.a(eth_mac_open_lib.o)
                              build/default/production/_ext/1340694758/ETHPIC32IntMac.o (EthMACOpen)
c:/program files (x86)/microchip/xc32/v1.22/bin/../lib/gcc/pic32mx/4.5.2/../../../../pic32mx/lib/mips16\libmchp_peripheral_32MX795F512H.a(eth_mac_set_address_max_lib.o)
                              build/default/production/_ext/1340694758/ETHPIC32IntMac.o (EthMACSetAddress)
c:/program files (x86)/microchip/xc32/v1.22/bin/../lib/gcc/pic32mx/4.5.2/../../../../pic32mx/lib/mips16\libmchp_peripheral_32MX795F512H.a(eth_rx_buffers_append_lib.o)
                              build/default/production/_ext/1340694758/ETHPIC32IntMac.o (EthRxBuffersAppend)
c:/program files (x86)/microchip/xc32/v1.22/bin/../lib/gcc/pic32mx/4.5.2/../../../../pic32mx/lib/mips16\libmchp_peripheral_32MX795F512H.a(eth_rx_filters_lib.o)
                              build/default/production/_ext/1340694758/ETHPIC32IntMac.o (EthRxFiltersSet)
c:/program files (x86)/microchip/xc32/v1.22/bin/../lib/gcc/pic32mx/4.5.2/../../../../pic32mx/lib/mips16\libmchp_peripheral_32MX795F512H.a(eth_rx_get_packet_lib.o)
                              build/default/production/_ext/1340694758/ETHPIC32IntMac.o (EthRxGetBuffer)
c:/program files (x86)/microchip/xc32/v1.22/bin/../lib/gcc/pic32mx/4.5.2/../../../../pic32mx/lib/mips16\libmchp_peripheral_32MX795F512H.a(eth_rx_set_buffer_size_lib.o)
                              build/default/production/_ext/1340694758/ETHPIC32IntMac.o (EthRxSetBufferSize)
c:/program files (x86)/microchip/xc32/v1.22/bin/../lib/gcc/pic32mx/4.5.2/../../../../pic32mx/lib/mips16\libmchp_peripheral_32MX795F512H.a(eth_tx_packet_lib.o)
                              build/default/production/_ext/1340694758/ETHPIC32IntMac.o (EthTxSendBuffer)
c:/program files (x86)/microchip/xc32/v1.22/bin/../lib/gcc/pic32mx/4.5.2/../../../../pic32mx/lib/mips16\libmchp_peripheral_32MX795F512H.a(_eth_append_busy_list_lib.o)
                              c:/program files (x86)/microchip/xc32/v1.22/bin/../lib/gcc/pic32mx/4.5.2/../../../../pic32mx/lib/mips16\libmchp_peripheral_32MX795F512H.a(eth_ack_packet_lib.o) (_EthAppendBusyList)
c:/program files (x86)/microchip/xc32/v1.22/bin/../lib/gcc/pic32mx/4.5.2/../../../../pic32mx/lib/mips16\libmchp_peripheral_32MX795F512H.a(eth_miim_access.o)
                              build/default/production/_ext/1340694758/ETHPIC32ExtPhy.o (EthMIIMReadStart)
c:/program files (x86)/microchip/xc32/v1.22/bin/../lib/gcc/pic32mx/4.5.2/../../../../pic32mx/lib/mips16\libmchp_peripheral_32MX795F512H.a(soft_reset_lib.o)
                              build/default/production/picrouter.o (SoftReset)
c:/program files (x86)/microchip/xc32/v1.22/bin/../lib/gcc/pic32mx/4.5.2/../../../../pic32mx/lib/mips16\libmchp_peripheral_32MX795F512H.a(pcache.o)
                              build/default/production/picrouter.o (CheKseg0CacheOn)
c:/program files (x86)/microchip/xc32/v1.22/bin/../lib/gcc/pic32mx/4.5.2/../../../../pic32mx/lib/mips16\libmchp_peripheral_32MX795F512H.a(int_disable_interrupts_lib.o)
                              build/default/production/picrouter.o (INTDisableInterrupts)
c:/program files (x86)/microchip/xc32/v1.22/bin/../lib/gcc/pic32mx/4.5.2/../../../../pic32mx/lib/mips16\libmchp_peripheral_32MX795F512H.a(int_restore_interrupts_lib.o)
                              build/default/production/picrouter.o (INTRestoreInterrupts)
c:/program files (x86)/microchip/xc32/v1.22/bin/../lib/gcc/pic32mx/4.5.2/../../../../pic32mx/lib/mips16\libmchp_peripheral_32MX795F512H.a(int_enable_mv_int_lib.o)
                              build/default/production/picrouter.o (INTEnableSystemMultiVectoredInt)
c:/program files (x86)/microchip/xc32/v1.22/bin/../lib/gcc/pic32mx/4.5.2/../../../../pic32mx/lib/mips16\libmchp_peripheral_32MX795F512H.a(int_tbl_lib.o)
                              build/default/production/_ext/1798056102/usb_device.o (INTClearFlag)
c:/program files (x86)/microchip/xc32/v1.22/bin/../lib/gcc/pic32mx/4.5.2/../../../../pic32mx/lib/mips16\libmchp_peripheral_32MX795F512H.a(spi_chn_close_lib.o)
                              build/default/production/picrouter.o (SpiChnClose)
c:/program files (x86)/microchip/xc32/v1.22/bin/../lib/gcc/pic32mx/4.5.2/../../../../pic32mx/lib/mips16\libmchp_peripheral_32MX795F512H.a(spi_chn_open_lib.o)
                              build/default/production/_ext/454704213/sram.o (SpiChnOpen)
c:/program files (x86)/microchip/xc32/v1.22/bin/../lib/gcc/pic32mx/4.5.2/../../../../pic32mx/lib/mips16\libmchp_peripheral_32MX795F512H.a(spi_io_tbl_libp.o)
                              c:/program files (x86)/microchip/xc32/v1.22/bin/../lib/gcc/pic32mx/4.5.2/../../../../pic32mx/lib/mips16\libmchp_peripheral_32MX795F512H.a(spi_chn_close_lib.o) (_SpiIoTbl)
c:/program files (x86)/microchip/xc32/v1.22/bin/../lib/gcc/pic32mx/4.5.2/../../../../pic32mx/lib/mips16\libmchp_peripheral_32MX795F512H.a(spi_map_tbl_libp.o)
                              c:/program files (x86)/microchip/xc32/v1.22/bin/../lib/gcc/pic32mx/4.5.2/../../../../pic32mx/lib/mips16\libmchp_peripheral_32MX795F512H.a(spi_chn_close_lib.o) (_SpiMapTbl)
c:/program files (x86)/microchip/xc32/v1.22/bin/../lib/gcc/pic32mx/4.5.2/../../../../pic32mx/lib/mips16\libmchp_peripheral_32MX795F512H.a(spi_getc_spi2_lib_legacy.o)
                              build/default/production/_ext/454704213/iosetting.o (getcSPI2)
c:/program files (x86)/microchip/xc32/v1.22/bin/../lib/gcc/pic32mx/4.5.2/../../../../pic32mx/lib/mips16\libmchp_peripheral_32MX795F512H.a(nvm_erase_page_lib.o)
                              build/default/production/picrouter.o (NVMErasePage)
c:/program files (x86)/microchip/xc32/v1.22/bin/../lib/gcc/pic32mx/4.5.2/../../../../pic32mx/lib/mips16\libmchp_peripheral_32MX795F512H.a(nvm_operation_lib.o)
                              c:/program files (x86)/microchip/xc32/v1.22/bin/../lib/gcc/pic32mx/4.5.2/../../../../pic32mx/lib/mips16\libmchp_peripheral_32MX795F512H.a(nvm_erase_page_lib.o) (_NVMOperation)
c:/program files (x86)/microchip/xc32/v1.22/bin/../lib/gcc/pic32mx/4.5.2/../../../../pic32mx/lib/mips16\libmchp_peripheral_32MX795F512H.a(nvm_write_word_lib.o)
                              build/default/production/picrouter.o (NVMWriteWord)
c:/program files (x86)/microchip/xc32/v1.22/bin/../lib/gcc/pic32mx/4.5.2/../../../../pic32mx/lib/mips16\libmchp_peripheral_32MX795F512H.a(port_reset_pins_lib.o)
                              c:/program files (x86)/microchip/xc32/v1.22/bin/../lib/gcc/pic32mx/4.5.2/../../../../pic32mx/lib/mips16\libmchp_peripheral_32MX795F512H.a(spi_chn_close_lib.o) (PORTResetPins)
c:/program files (x86)/microchip/xc32/v1.22/bin/../lib/gcc/pic32mx/4.5.2/../../../../pic32mx/lib/mips16\libmchp_peripheral_32MX795F512H.a(port_set_pins_digital_in_lib.o)
                              build/default/production/_ext/1340694758/ETHPIC32ExtPhy.o (PORTSetPinsDigitalIn)
c:/program files (x86)/microchip/xc32/v1.22/bin/../lib/gcc/pic32mx/4.5.2/../../../../pic32mx/lib/mips16\libmchp_peripheral_32MX795F512H.a(port_set_pins_digital_out_lib.o)
                              build/default/production/_ext/1340694758/ETHPIC32ExtPhy.o (PORTSetPinsDigitalOut)
c:/program files (x86)/microchip/xc32/v1.22/bin/../lib/gcc/pic32mx/4.5.2/../../../../pic32mx/lib/mips16\libmchp_peripheral_32MX795F512H.a(_ports_tbl_libp.o)
                              c:/program files (x86)/microchip/xc32/v1.22/bin/../lib/gcc/pic32mx/4.5.2/../../../../pic32mx/lib/mips16\libmchp_peripheral_32MX795F512H.a(port_reset_pins_lib.o) (PortRegTbl)
c:/program files (x86)/microchip/xc32/v1.22/bin/../lib/gcc/pic32mx/4.5.2/../../../../pic32mx/lib/mips16\libmchp_peripheral_32MX795F512H.a(I2CConfigure.o)
                              build/default/production/picrouter.o (I2CConfigure)
c:/program files (x86)/microchip/xc32/v1.22/bin/../lib/gcc/pic32mx/4.5.2/../../../../pic32mx/lib/mips16\libmchp_peripheral_32MX795F512H.a(I2CEnable.o)
                              build/default/production/picrouter.o (I2CEnable)
c:/program files (x86)/microchip/xc32/v1.22/bin/../lib/gcc/pic32mx/4.5.2/../../../../pic32mx/lib/mips16\libmchp_peripheral_32MX795F512H.a(I2CSetFrequency.o)
                              build/default/production/picrouter.o (I2CSetFrequency)
c:/program files (x86)/microchip/xc32/v1.22/bin/../lib/gcc/pic32mx/4.5.2/../../../../pic32mx/lib/mips16\libmchp_peripheral_32MX795F512H.a(I2CSetSlaveAddress.o)
                              build/default/production/picrouter.o (I2CSetSlaveAddress)
c:/program files (x86)/microchip/xc32/v1.22/bin/../lib/gcc/pic32mx/4.5.2/../../../../pic32mx/lib/mips16\libmchp_peripheral_32MX795F512H.a(int_enable_interrupts_lib.o)
                              c:/program files (x86)/microchip/xc32/v1.22/bin/../lib/gcc/pic32mx/4.5.2/../../../../pic32mx/lib/mips16\libmchp_peripheral_32MX795F512H.a(int_enable_mv_int_lib.o) (INTEnableInterrupts)
c:/program files (x86)/microchip/xc32/v1.22/bin/../lib/gcc/pic32mx/4.5.2/../../../../pic32mx/lib/mips16\libmchp_peripheral_32MX795F512H.a(I2CPrivate.o)
                              c:/program files (x86)/microchip/xc32/v1.22/bin/../lib/gcc/pic32mx/4.5.2/../../../../pic32mx/lib/mips16\libmchp_peripheral_32MX795F512H.a(I2CConfigure.o) (i2cBase)
c:/program files (x86)/microchip/xc32/v1.22/bin/../lib/gcc/pic32mx/4.5.2/mips16\libgcc.a(_floatdisf.o)
                              build/default/production/_ext/454704213/osc.o (__floatdisf)
c:/program files (x86)/microchip/xc32/v1.22/bin/../lib/gcc/pic32mx/4.5.2/mips16\libgcc.a(_udivdi3.o)
                              build/default/production/_ext/1340694758/Tick.o (__udivdi3)
c:/program files (x86)/microchip/xc32/v1.22/bin/../lib/gcc/pic32mx/4.5.2/mips16\libgcc.a(_umoddi3.o)
                              build/default/production/_ext/1340694758/DHCP.o (__umoddi3)
c:/program files (x86)/microchip/xc32/v1.22/bin/../lib/gcc/pic32mx/4.5.2/mips16\libgcc.a(_clz.o)
                              c:/program files (x86)/microchip/xc32/v1.22/bin/../lib/gcc/pic32mx/4.5.2/mips16\libgcc.a(_floatdisf.o) (__clz_tab)
c:/program files (x86)/microchip/xc32/v1.22/bin/../lib/gcc/pic32mx/4.5.2/../../../../pic32mx/lib/mips16\libpic32.a(setjmp.o)
                              ..\mruby-1.0.0\build\PICrouter\lib\libmruby.a(vm.o) (setjmp)
c:/program files (x86)/microchip/xc32/v1.22/bin/../lib/gcc/pic32mx/4.5.2/../../../../pic32mx/lib/mips16\libpic32.a(default-bootstrap-exception-handler.o)
                              c:/program files (x86)/microchip/xc32/v1.22/bin/../lib/gcc/pic32mx/4.5.2/../../../../pic32mx/lib/mips16/crt0.o (_bootstrap_exception_handler)
c:/program files (x86)/microchip/xc32/v1.22/bin/../lib/gcc/pic32mx/4.5.2/../../../../pic32mx/lib/mips16\libpic32.a(default-on-reset.o)
                              c:/program files (x86)/microchip/xc32/v1.22/bin/../lib/gcc/pic32mx/4.5.2/../../../../pic32mx/lib/mips16/crt0.o (_on_reset)
c:/program files (x86)/microchip/xc32/v1.22/bin/../lib/gcc/pic32mx/4.5.2/../../../../pic32mx/lib/mips16\libpic32.a(default-on-bootstrap.o)
                              c:/program files (x86)/microchip/xc32/v1.22/bin/../lib/gcc/pic32mx/4.5.2/../../../../pic32mx/lib/mips16/crt0.o (_on_bootstrap)
c:/program files (x86)/microchip/xc32/v1.22/bin/../lib/gcc/pic32mx/4.5.2/../../../../pic32mx/lib/mips16\libpic32.a(default-nmi-handler.o)
                              c:/program files (x86)/microchip/xc32/v1.22/bin/../lib/gcc/pic32mx/4.5.2/../../../../pic32mx/lib/mips16/crt0.o (_nmi_handler)
c:/program files (x86)/microchip/xc32/v1.22/bin/../lib/gcc/pic32mx/4.5.2/../../../../pic32mx/lib/mips16\libpic32.a(errno.o)
                              ..\mruby-1.0.0\build\PICrouter\lib\libmruby.a(error.o) (errno)
c:/program files (x86)/microchip/xc32/v1.22/bin/../lib/gcc/pic32mx/4.5.2/../../../../pic32mx/lib/mips16\libpic32.a(general-exception.o)
                              c:/program files (x86)/microchip/xc32/v1.22/bin/../lib/gcc/pic32mx/4.5.2/../../../../pic32mx/lib/mips16/crt0.o (_general_exception_context)
c:/program files (x86)/microchip/xc32/v1.22/bin/../lib/gcc/pic32mx/4.5.2/../../../../pic32mx/lib/mips16\libm.a(fpfloo32.o)
                              ..\mruby-1.0.0\build\PICrouter\lib\libmruby.a(numeric.o) (floorf)
c:/program files (x86)/microchip/xc32/v1.22/bin/../lib/gcc/pic32mx/4.5.2/../../../../pic32mx/lib/mips16\libm.a(fpmod32.o)
                              ..\mruby-1.0.0\build\PICrouter\lib\libmruby.a(numeric.o) (fmodf)
c:/program files (x86)/microchip/xc32/v1.22/bin/../lib/gcc/pic32mx/4.5.2/../../../../pic32mx/lib/mips16\libm.a(fpceil32.o)
                              ..\mruby-1.0.0\build\PICrouter\lib\libmruby.a(numeric.o) (ceilf)
c:/program files (x86)/microchip/xc32/v1.22/bin/../lib/gcc/pic32mx/4.5.2/../../../../pic32mx/lib/mips16\libm.a(w_powf.o)
                              ..\mruby-1.0.0\build\PICrouter\lib\libmruby.a(numeric.o) (powf)
c:/program files (x86)/microchip/xc32/v1.22/bin/../lib/gcc/pic32mx/4.5.2/../../../../pic32mx/lib/mips16\libm.a(fppow32.o)
                              c:/program files (x86)/microchip/xc32/v1.22/bin/../lib/gcc/pic32mx/4.5.2/../../../../pic32mx/lib/mips16\libm.a(w_powf.o) (__mchp_powf)
c:/program files (x86)/microchip/xc32/v1.22/bin/../lib/gcc/pic32mx/4.5.2/../../../../pic32mx/lib/mips16\libm.a(dp32.o)
                              c:/program files (x86)/microchip/xc32/v1.22/bin/../lib/gcc/pic32mx/4.5.2/../../../../pic32mx/lib/mips16\libm.a(w_powf.o) (fptodp)
c:/program files (x86)/microchip/xc32/v1.22/bin/../lib/gcc/pic32mx/4.5.2/../../../../pic32mx/lib/mips16\libm.a(fp32.o)
                              ..\mruby-1.0.0\build\PICrouter\lib\libmruby.a(vm.o) (fpsub)
c:/program files (x86)/microchip/xc32/v1.22/bin/../lib/gcc/pic32mx/4.5.2/../../../../pic32mx/lib/mips16\libm.a(fplog32.o)
                              c:/program files (x86)/microchip/xc32/v1.22/bin/../lib/gcc/pic32mx/4.5.2/../../../../pic32mx/lib/mips16\libm.a(fppow32.o) (fpexlog)
c:/program files (x86)/microchip/xc32/v1.22/bin/../lib/gcc/pic32mx/4.5.2/../../../../pic32mx/lib/mips16\libm.a(w_log10f.o)
                              ..\mruby-1.0.0\build\PICrouter\lib\libmruby.a(numeric.o) (log10f)
c:/program files (x86)/microchip/xc32/v1.22/bin/../lib/gcc/pic32mx/4.5.2/../../../../pic32mx/lib/mips16\libm.a(fpexp32.o)
                              c:/program files (x86)/microchip/xc32/v1.22/bin/../lib/gcc/pic32mx/4.5.2/../../../../pic32mx/lib/mips16\libm.a(fppow32.o) (fpexexp)
c:/program files (x86)/microchip/xc32/v1.22/bin/../lib/gcc/pic32mx/4.5.2/../../../../pic32mx/lib/mips16\libm.a(s_lib_ver.o)
                              c:/program files (x86)/microchip/xc32/v1.22/bin/../lib/gcc/pic32mx/4.5.2/../../../../pic32mx/lib/mips16\libm.a(w_powf.o) (math_errhandling)
c:/program files (x86)/microchip/xc32/v1.22/bin/../lib/gcc/pic32mx/4.5.2/../../../../pic32mx/lib/mips16\libe.a(_unordsf2.o)
                              ..\mruby-1.0.0\build\PICrouter\lib\libmruby.a(numeric.o) (__unordsf2)
c:/program files (x86)/microchip/xc32/v1.22/bin/../lib/gcc/pic32mx/4.5.2/../../../../pic32mx/lib/mips16\libpic32.a(isinf.o)
                              c:/program files (x86)/microchip/xc32/v1.22/bin/../lib/gcc/pic32mx/4.5.2/../../../../pic32mx/lib/mips16\libm.a(w_powf.o) (isinfl)
c:/program files (x86)/microchip/xc32/v1.22/bin/../lib/gcc/pic32mx/4.5.2/../../../../pic32mx/lib/mips16\libc.a(_iob.o)
                              ..\mruby-1.0.0\build\PICrouter\lib\libmruby.a(error.o) (_iob)
c:/program files (x86)/microchip/xc32/v1.22/bin/../lib/gcc/pic32mx/4.5.2/../../../../pic32mx/lib/mips16\libc.a(_fputc_simple.o)
                              ..\mruby-1.0.0\build\PICrouter\lib\libmruby.a(print.o) (fputc)
c:/program files (x86)/microchip/xc32/v1.22/bin/../lib/gcc/pic32mx/4.5.2/../../../../pic32mx/lib/mips16\libc.a(fread.o)
                              ..\mruby-1.0.0\build\PICrouter\lib\libmruby.a(load.o) (fread)
c:/program files (x86)/microchip/xc32/v1.22/bin/../lib/gcc/pic32mx/4.5.2/../../../../pic32mx/lib/mips16\libc.a(fseek.o)
                              ..\mruby-1.0.0\build\PICrouter\lib\libmruby.a(load.o) (ftell)
c:/program files (x86)/microchip/xc32/v1.22/bin/../lib/gcc/pic32mx/4.5.2/../../../../pic32mx/lib/mips16\libc.a(fwrite.o)
                              ..\mruby-1.0.0\build\PICrouter\lib\libmruby.a(error.o) (fwrite)
c:/program files (x86)/microchip/xc32/v1.22/bin/../lib/gcc/pic32mx/4.5.2/../../../../pic32mx/lib/mips16\libc.a(atoi.o)
                              build/default/production/picrouter.o (atoi)
c:/program files (x86)/microchip/xc32/v1.22/bin/../lib/gcc/pic32mx/4.5.2/../../../../pic32mx/lib/mips16\libc.a(calloc.o)
                              build/default/production/_ext/454704213/osc.o (calloc)
c:/program files (x86)/microchip/xc32/v1.22/bin/../lib/gcc/pic32mx/4.5.2/../../../../pic32mx/lib/mips16\libc.a(ctype.o)
                              ..\mruby-1.0.0\build\PICrouter\lib\libmruby.a(class.o) (_ctype)
c:/program files (x86)/microchip/xc32/v1.22/bin/../lib/gcc/pic32mx/4.5.2/../../../../pic32mx/lib/mips16\libc.a(ctypef.o)
                              ..\mruby-1.0.0\build\PICrouter\lib\libmruby.a(string.o) (tolower)
c:/program files (x86)/microchip/xc32/v1.22/bin/../lib/gcc/pic32mx/4.5.2/../../../../pic32mx/lib/mips16\libc.a(malloc.o)
                              build/default/production/_ext/1798056102/usb_host.o (malloc)
c:/program files (x86)/microchip/xc32/v1.22/bin/../lib/gcc/pic32mx/4.5.2/../../../../pic32mx/lib/mips16\libc.a(memchr.o)
                              ..\mruby-1.0.0\build\PICrouter\lib\libmruby.a(string.o) (memchr)
c:/program files (x86)/microchip/xc32/v1.22/bin/../lib/gcc/pic32mx/4.5.2/../../../../pic32mx/lib/mips16\libc.a(memcmp.o)
                              build/default/production/_ext/1340694758/ARP.o (memcmp)
c:/program files (x86)/microchip/xc32/v1.22/bin/../lib/gcc/pic32mx/4.5.2/../../../../pic32mx/lib/mips16\libc.a(memcpy.o)
                              build/default/production/_ext/454704213/osc.o (memcpy)
c:/program files (x86)/microchip/xc32/v1.22/bin/../lib/gcc/pic32mx/4.5.2/../../../../pic32mx/lib/mips16\libc.a(memmove.o)
                              ..\mruby-1.0.0\build\PICrouter\lib\libmruby.a(hash.o) (memmove)
c:/program files (x86)/microchip/xc32/v1.22/bin/../lib/gcc/pic32mx/4.5.2/../../../../pic32mx/lib/mips16\libc.a(memset.o)
                              build/default/production/_ext/454704213/osc.o (memset)
c:/program files (x86)/microchip/xc32/v1.22/bin/../lib/gcc/pic32mx/4.5.2/../../../../pic32mx/lib/mips16\libc.a(signal.o)
                              ..\mruby-1.0.0\build\PICrouter\lib\libmruby.a(error.o) (abort)
c:/program files (x86)/microchip/xc32/v1.22/bin/../lib/gcc/pic32mx/4.5.2/../../../../pic32mx/lib/mips16\libc.a(strchr.o)
                              build/default/production/_ext/454704213/osc.o (strchr)
c:/program files (x86)/microchip/xc32/v1.22/bin/../lib/gcc/pic32mx/4.5.2/../../../../pic32mx/lib/mips16\libc.a(strcmp.o)
                              build/default/production/_ext/454704213/iosetting.o (strcmp)
c:/program files (x86)/microchip/xc32/v1.22/bin/../lib/gcc/pic32mx/4.5.2/../../../../pic32mx/lib/mips16\libc.a(strlen.o)
                              build/default/production/_ext/454704213/osc.o (strlen)
c:/program files (x86)/microchip/xc32/v1.22/bin/../lib/gcc/pic32mx/4.5.2/../../../../pic32mx/lib/mips16\libc.a(strncpy.o)
                              build/default/production/_ext/1340694758/Helpers.o (strncpy)
c:/program files (x86)/microchip/xc32/v1.22/bin/../lib/gcc/pic32mx/4.5.2/../../../../pic32mx/lib/mips16\libc.a(strtod.o)
                              ..\mruby-1.0.0\build\PICrouter\lib\libmruby.a(string.o) (strtod)
c:/program files (x86)/microchip/xc32/v1.22/bin/../lib/gcc/pic32mx/4.5.2/../../../../pic32mx/lib/mips16\libc.a(strstr.o)
                              build/default/production/picrouter.o (strstr)
c:/program files (x86)/microchip/xc32/v1.22/bin/../lib/gcc/pic32mx/4.5.2/../../../../pic32mx/lib/mips16\libc.a(strtok.o)
                              build/default/production/picrouter.o (strtok)
c:/program files (x86)/microchip/xc32/v1.22/bin/../lib/gcc/pic32mx/4.5.2/../../../../pic32mx/lib/mips16\libc.a(strtol.o)
                              ..\mruby-1.0.0\build\PICrouter\lib\libmruby.a(string.o) (strtoul)
c:/program files (x86)/microchip/xc32/v1.22/bin/../lib/gcc/pic32mx/4.5.2/../../../../pic32mx/lib/mips16\libc.a(exit.o)
                              ..\mruby-1.0.0\build\PICrouter\lib\libmruby.a(error.o) (exit)
c:/program files (x86)/microchip/xc32/v1.22/bin/../lib/gcc/pic32mx/4.5.2/../../../../pic32mx/lib/mips16\libc.a(doprnt.o)
                              ..\mruby-1.0.0\build\PICrouter\lib\libmruby.a(backtrace.o) (vfprintf)
c:/program files (x86)/microchip/xc32/v1.22/bin/../lib/gcc/pic32mx/4.5.2/../../../../pic32mx/lib/mips16\libc.a(printf_cdnopuxX.eo)
                              ..\mruby-1.0.0\build\PICrouter\lib\libmruby.a(vm.o) (_printf_cdnopuxX)
c:/program files (x86)/microchip/xc32/v1.22/bin/../lib/gcc/pic32mx/4.5.2/../../../../pic32mx/lib/mips16\libc.a(sprintf_cdnopsuxX.eo)
                              build/default/production/picrouter.o (_sprintf_cdnopsuxX)
c:/program files (x86)/microchip/xc32/v1.22/bin/../lib/gcc/pic32mx/4.5.2/../../../../pic32mx/lib/mips16\libc.a(sprintf_cdnopuxX.eo)
                              build/default/production/_ext/1340694758/ZeroconfMulticastDNS.o (_sprintf_cdnopuxX)
c:/program files (x86)/microchip/xc32/v1.22/bin/../lib/gcc/pic32mx/4.5.2/../../../../pic32mx/lib/mips16\libc.a(sprintf_s.eo)
                              build/default/production/_ext/454704213/osc.o (_sprintf_s)
c:/program files (x86)/microchip/xc32/v1.22/bin/../lib/gcc/pic32mx/4.5.2/../../../../pic32mx/lib/mips16\libc.a(vsnprintf.o)
                              ..\mruby-1.0.0\build\PICrouter\lib\libmruby.a(backtrace.o) (vsnprintf)
c:/program files (x86)/microchip/xc32/v1.22/bin/../lib/gcc/pic32mx/4.5.2/../../../../pic32mx/lib/mips16\libc.a(_flsbuf_simple.o)
                              c:/program files (x86)/microchip/xc32/v1.22/bin/../lib/gcc/pic32mx/4.5.2/../../../../pic32mx/lib/mips16\libc.a(_fputc_simple.o) (_flsbuf)
c:/program files (x86)/microchip/xc32/v1.22/bin/../lib/gcc/pic32mx/4.5.2/../../../../pic32mx/lib/mips16\libc.a(stdclean_simple.o)
                              c:/program files (x86)/microchip/xc32/v1.22/bin/../lib/gcc/pic32mx/4.5.2/../../../../pic32mx/lib/mips16\libc.a(exit.o) (_cleanup)
c:/program files (x86)/microchip/xc32/v1.22/bin/../lib/gcc/pic32mx/4.5.2/../../../../pic32mx/lib/mips16\libc.a(fflush.o)
                              c:/program files (x86)/microchip/xc32/v1.22/bin/../lib/gcc/pic32mx/4.5.2/../../../../pic32mx/lib/mips16\libc.a(fseek.o) (fflush)
c:/program files (x86)/microchip/xc32/v1.22/bin/../lib/gcc/pic32mx/4.5.2/../../../../pic32mx/lib/mips16\libc.a(fgetc.o)
                              c:/program files (x86)/microchip/xc32/v1.22/bin/../lib/gcc/pic32mx/4.5.2/../../../../pic32mx/lib/mips16\libc.a(fread.o) (fgetc)
c:/program files (x86)/microchip/xc32/v1.22/bin/../lib/gcc/pic32mx/4.5.2/../../../../pic32mx/lib/mips16\libc.a(powersf.o)
                              c:/program files (x86)/microchip/xc32/v1.22/bin/../lib/gcc/pic32mx/4.5.2/../../../../pic32mx/lib/mips16\libc.a(doprnt.o) (_powers_f)
c:/program files (x86)/microchip/xc32/v1.22/bin/../lib/gcc/pic32mx/4.5.2/../../../../pic32mx/lib/mips16\libc.a(strcspn.o)
                              c:/program files (x86)/microchip/xc32/v1.22/bin/../lib/gcc/pic32mx/4.5.2/../../../../pic32mx/lib/mips16\libc.a(strtok.o) (strcspn)
c:/program files (x86)/microchip/xc32/v1.22/bin/../lib/gcc/pic32mx/4.5.2/../../../../pic32mx/lib/mips16\libc.a(strncmp.o)
                              c:/program files (x86)/microchip/xc32/v1.22/bin/../lib/gcc/pic32mx/4.5.2/../../../../pic32mx/lib/mips16\libc.a(strstr.o) (strncmp)
c:/program files (x86)/microchip/xc32/v1.22/bin/../lib/gcc/pic32mx/4.5.2/../../../../pic32mx/lib/mips16\libc.a(strspn.o)
                              c:/program files (x86)/microchip/xc32/v1.22/bin/../lib/gcc/pic32mx/4.5.2/../../../../pic32mx/lib/mips16\libc.a(strtok.o) (strspn)
c:/program files (x86)/microchip/xc32/v1.22/bin/../lib/gcc/pic32mx/4.5.2/../../../../pic32mx/lib/mips16\libc.a(doprnt_cdnopsuxX.eo)
                              c:/program files (x86)/microchip/xc32/v1.22/bin/../lib/gcc/pic32mx/4.5.2/../../../../pic32mx/lib/mips16\libc.a(sprintf_cdnopsuxX.eo) (_vfprintf_cdnopsuxX)
c:/program files (x86)/microchip/xc32/v1.22/bin/../lib/gcc/pic32mx/4.5.2/../../../../pic32mx/lib/mips16\libc.a(doprnt_cdnopuxX.eo)
                              c:/program files (x86)/microchip/xc32/v1.22/bin/../lib/gcc/pic32mx/4.5.2/../../../../pic32mx/lib/mips16\libc.a(printf_cdnopuxX.eo) (_vfprintf_cdnopuxX)
c:/program files (x86)/microchip/xc32/v1.22/bin/../lib/gcc/pic32mx/4.5.2/../../../../pic32mx/lib/mips16\libc.a(doprnt_s.eo)
                              c:/program files (x86)/microchip/xc32/v1.22/bin/../lib/gcc/pic32mx/4.5.2/../../../../pic32mx/lib/mips16\libc.a(sprintf_s.eo) (_vfprintf_s)
c:/program files (x86)/microchip/xc32/v1.22/bin/../lib/gcc/pic32mx/4.5.2/../../../../pic32mx/lib/mips16\libc.a(filbuf.o)
                              c:/program files (x86)/microchip/xc32/v1.22/bin/../lib/gcc/pic32mx/4.5.2/../../../../pic32mx/lib/mips16\libc.a(fgetc.o) (_filbuf)
c:/program files (x86)/microchip/xc32/v1.22/bin/../lib/gcc/pic32mx/4.5.2/../../../../pic32mx/lib/mips16\libpic32.a(sbrk.o)
                              c:/program files (x86)/microchip/xc32/v1.22/bin/../lib/gcc/pic32mx/4.5.2/../../../../pic32mx/lib/mips16\libc.a(malloc.o) (sbrk)
c:/program files (x86)/microchip/xc32/v1.22/bin/../lib/gcc/pic32mx/4.5.2/../../../../pic32mx/lib/mips16\libpic32.a(read.o)
                              c:/program files (x86)/microchip/xc32/v1.22/bin/../lib/gcc/pic32mx/4.5.2/../../../../pic32mx/lib/mips16\libc.a(filbuf.o) (read)
c:/program files (x86)/microchip/xc32/v1.22/bin/../lib/gcc/pic32mx/4.5.2/../../../../pic32mx/lib/mips16\libpic32.a(write.o)
                              c:/program files (x86)/microchip/xc32/v1.22/bin/../lib/gcc/pic32mx/4.5.2/../../../../pic32mx/lib/mips16\libc.a(_fputc_simple.o) (write)
c:/program files (x86)/microchip/xc32/v1.22/bin/../lib/gcc/pic32mx/4.5.2/../../../../pic32mx/lib/mips16\libpic32.a(lseek.o)
                              c:/program files (x86)/microchip/xc32/v1.22/bin/../lib/gcc/pic32mx/4.5.2/../../../../pic32mx/lib/mips16\libc.a(fseek.o) (lseek)
c:/program files (x86)/microchip/xc32/v1.22/bin/../lib/gcc/pic32mx/4.5.2/../../../../pic32mx/lib/mips16\libpic32.a(xc32_uart.o)
                              c:/program files (x86)/microchip/xc32/v1.22/bin/../lib/gcc/pic32mx/4.5.2/../../../../pic32mx/lib/mips16\libpic32.a(read.o) (__XC_UART)
c:/program files (x86)/microchip/xc32/v1.22/bin/../lib/gcc/pic32mx/4.5.2/../../../../pic32mx/lib/mips16\libpic32.a(_mon_putc.o)
                              c:/program files (x86)/microchip/xc32/v1.22/bin/../lib/gcc/pic32mx/4.5.2/../../../../pic32mx/lib/mips16\libpic32.a(write.o) (_mon_putc)
c:/program files (x86)/microchip/xc32/v1.22/bin/../lib/gcc/pic32mx/4.5.2/../../../../pic32mx/lib/mips16\libe.a(_unorddf2.o)
                              c:/program files (x86)/microchip/xc32/v1.22/bin/../lib/gcc/pic32mx/4.5.2/../../../../pic32mx/lib/mips16\libpic32.a(isinf.o) (__unorddf2)
c:/program files (x86)/microchip/xc32/v1.22/bin/../lib/gcc/pic32mx/4.5.2/../../../../pic32mx/lib/mips16\libe.a(_strtod.o)
                              c:/program files (x86)/microchip/xc32/v1.22/bin/../lib/gcc/pic32mx/4.5.2/../../../../pic32mx/lib/mips16\libc.a(strtod.o) (__strtod)
c:/program files (x86)/microchip/xc32/v1.22/bin/../lib/gcc/pic32mx/4.5.2/../../../../pic32mx/lib/mips16\libe.a(_ldexp.o)
                              c:/program files (x86)/microchip/xc32/v1.22/bin/../lib/gcc/pic32mx/4.5.2/../../../../pic32mx/lib/mips16\libe.a(_strtod.o) (__ldexp)
c:/program files (x86)/microchip/xc32/v1.22/bin/../lib/gcc/pic32mx/4.5.2/mips16\libgcc.a(_lshrdi3.o)
                              c:/program files (x86)/microchip/xc32/v1.22/bin/../lib/gcc/pic32mx/4.5.2/../../../../pic32mx/lib/mips16\libe.a(_ldexp.o) (__lshrdi3)
c:/program files (x86)/microchip/xc32/v1.22/bin/../lib/gcc/pic32mx/4.5.2/mips16\libgcc.a(_floatundisf.o)
                              c:/program files (x86)/microchip/xc32/v1.22/bin/../lib/gcc/pic32mx/4.5.2/../../../../pic32mx/lib/mips16\libc.a(doprnt.o) (__floatundisf)
c:/program files (x86)/microchip/xc32/v1.22/bin/../lib/gcc/pic32mx/4.5.2/mips16\libgcc.a(floatunsisf.o)
                              c:/program files (x86)/microchip/xc32/v1.22/bin/../lib/gcc/pic32mx/4.5.2/../../../../pic32mx/lib/mips16\libc.a(doprnt.o) (__floatunsisf)

Allocating common symbols
Common symbol       size              file

USB_CDC_IN_Data_Array
                    0x40              build/default/production/picrouter.o
width               0x4               build/default/production/picrouter.o
ReceivedMidiDataBuffer
                    0x40              build/default/production/picrouter.o
BothEP0OutUOWNsSet  0x4               build/default/production/_ext/1798056102/usb_device.o
onSquare            0x10              build/default/production/picrouter.o
USBDeferStatusStagePacket
                    0x4               build/default/production/_ext/1798056102/usb_device.o
currentState        0x1               build/default/production/picrouter.o
CDC_DEV_LINE_CODING_Buffer
                    0x8               build/default/production/_ext/1798056102/usb_host_cdc.o
USBStatusStageEnabledFlag1
                    0x4               build/default/production/_ext/1798056102/usb_device.o
USBActiveConfiguration
                    0x1               build/default/production/_ext/1798056102/usb_device.o
USBStatusStageEnabledFlag2
                    0x4               build/default/production/_ext/1798056102/usb_device.o
CDC_LINE_CODING_Buffer
                    0x8               build/default/production/_ext/1798056102/usb_host_cdc.o
UDPRxCount          0x2               build/default/production/_ext/1340694758/UDP.o
shortPacketStatus   0x1               build/default/production/_ext/1798056102/usb_device.o
_PhyAdd             0x4               build/default/production/_ext/1340694758/ETHPIC32ExtPhy.o
pBDTEntryOut        0x14              build/default/production/_ext/1798056102/usb_device.o
USTATcopy           0x1               build/default/production/_ext/1798056102/usb_device.o
SetupPkt            0x8               build/default/production/_ext/1798056102/usb_device.o
UDPTxCount          0x2               build/default/production/_ext/1340694758/UDP.o
USBBusIsSuspended   0x4               build/default/production/_ext/1798056102/usb_device.o
msCounter           0x1               build/default/production/picrouter.o
deviceInfoCDC       0x40              build/default/production/_ext/1798056102/usb_host_cdc.o
ErrorDriver         0x1               build/default/production/picrouter.o
OSCTranslatedToUSB  0x4               build/default/production/picrouter.o
ep_data_out         0x5               build/default/production/_ext/1798056102/usb_device.o
pBDTEntryEP0OutNext
                    0x4               build/default/production/_ext/1798056102/usb_device.o
TxHostMidiDataBuffer
                    0x4               build/default/production/picrouter.o
deviceHandle        0x4               build/default/production/picrouter.o
activeUDPSocket     0x1               build/default/production/_ext/1340694758/UDP.o
pBDTEntryIn         0x14              build/default/production/_ext/1798056102/usb_device.o
UDPSocketInfo       0xe0              build/default/production/_ext/1340694758/UDP.o
ReceivedHidDataBuffer
                    0x40              build/default/production/picrouter.o
_nofpu              0x4               c:/program files (x86)/microchip/xc32/v1.22/bin/../lib/gcc/pic32mx/4.5.2/../../../../pic32mx/lib/mips16\libpic32.a(setjmp.o)
ToSendHidDataBuffer
                    0x40              build/default/production/picrouter.o
controlTransferState
                    0x1               build/default/production/_ext/1798056102/usb_device.o
endpointBuffers     0x4               build/default/production/picrouter.o
idle_rate           0x1               build/default/production/_ext/1798056102/usb_function_hid.o
ToSendMidiDataBuffer
                    0x40              build/default/production/picrouter.o
usbOverrideHostState
                    0x2               build/default/production/_ext/1798056102/usb_host.o
midiData            0x4               build/default/production/picrouter.o
remoteNode          0xa               build/default/production/_ext/1340694758/StackTsk.o
BDT                 0xa0              build/default/production/_ext/1798056102/usb_device.o
RxHostMidiDataBuffer
                    0x4               build/default/production/picrouter.o
pBDTEntryEP0OutCurrent
                    0x4               build/default/production/_ext/1798056102/usb_device.o
pDst                0x4               build/default/production/_ext/1798056102/usb_device.o
endpoint_number     0x1               build/default/production/_ext/1798056102/usb_device.o
USBDeferINDataStagePackets
                    0x4               build/default/production/_ext/1798056102/usb_device.o
AppConfig           0x33              build/default/production/_ext/454704213/analog.o
USBDeferOUTDataStagePackets
                    0x4               build/default/production/_ext/1798056102/usb_device.o
USBDeviceState      0x4               build/default/production/_ext/1798056102/usb_device.o
NumOfBytesRcvd      0x1               build/default/production/picrouter.o
freq                0x4               build/default/production/picrouter.o
inPipes             0x10              build/default/production/_ext/1798056102/usb_device.o
DhcpIpPool          0x78              build/default/production/_ext/1340694758/DHCPs.o
CtrlTrfData         0x8               build/default/production/_ext/1798056102/usb_device.o
cdcOutDataLength    0x1               build/default/production/picrouter.o
prevState           0x1               build/default/production/picrouter.o
ProcState           0x4               build/default/production/picrouter.o
USBStatusStageTimeoutCounter
                    0x1               build/default/production/_ext/1798056102/usb_device.o
mrb                 0x4               build/default/production/picrouter.o
RemoteWakeup        0x4               build/default/production/_ext/1798056102/usb_device.o
USBAlternateInterface
                    0x3               build/default/production/_ext/1798056102/usb_device.o
duty                0x8               build/default/production/picrouter.o
USB_CDC_OUT_Data_Array
                    0x40              build/default/production/picrouter.o
CDC_CONTROL_SIGNAL_Buffer
                    0x4               build/default/production/_ext/1798056102/usb_host_cdc.o
APPL_CDC_State      0x4               build/default/production/picrouter.o
outPipes            0xb               build/default/production/_ext/1798056102/usb_device.o
ep_data_in          0x5               build/default/production/_ext/1798056102/usb_device.o
active_protocol     0x1               build/default/production/_ext/1798056102/usb_function_hid.o

Microchip PIC32 Memory-Usage Report

kseg0 Program-Memory Usage
section                    address  length [bytes]      (dec)  Description
-------                 ----------  -------------------------  -----------
.text.mrb_receive_osc_t 0x9d004490         0x49ac       18860   
.rodata.mrblib_irep.mrb 0x9d008e3c         0x40a4       16548   
.text.mrb_context_run   0x9d00cee0         0x3a3c       14908   
.text.vfprintf          0x9d01091c         0x15a0        5536   
.text.mrb_hid_ctrl_task 0x9d011ebc         0x11d4        4564   
.text                   0x9d013090         0x1128        4392  App's exec code 
.text.USBHostTasks      0x9d0141b8          0xfb0        4016   
.dinit                  0x9d015168          0xac0        2752   
.text._USB_FindNextToke 0x9d015c28          0xa7c        2684   
.text._USB1Interrupt    0x9d0166a4          0x9f4        2548   
.rodata                 0x9d017098          0x8ec        2284  Read-only const 
.text                   0x9d017984          0x8ec        2284  App's exec code 
.rodata                 0x9d018270          0x7d4        2004  Read-only const 
.text.mrb_get_args      0x9d018a44          0x7b0        1968   
.text._vfprintf_cdnopsu 0x9d0191f4          0x774        1908   
.rodata                 0x9d019968          0x720        1824  Read-only const 
.text.mrb_init_class    0x9d01a088          0x57c        1404   
.text.ZeroconfLLProcess 0x9d01a604          0x538        1336   
.text                   0x9d01ab3c          0x45c        1116  App's exec code 
.text.mrb_init_kernel   0x9d01af98          0x41c        1052   
.text                   0x9d01b3b4          0x404        1028  App's exec code 
.text.mrb_init_string   0x9d01b7b8          0x3f8        1016   
.text                   0x9d01bbb0          0x3dc         988  App's exec code 
.text.mrb_cstr_to_inum  0x9d01bf8c          0x3c0         960   
.text.mrb_init_numeric  0x9d01c34c          0x3b8         952   
.rodata                 0x9d01c704          0x3ac         940  Read-only const 
.text.DHCPTask          0x9d01cab0          0x3a8         936   
.text.mrb_init_define_m 0x9d01ce58          0x3a4         932   
.text.mDNSProcessIncomi 0x9d01d1fc          0x39c         924   
.rodata.bytecode.byteco 0x9d01d598          0x390         912   
.text.mrb_str_split_m   0x9d01d928          0x384         900   
.text.symname_p         0x9d01dcac          0x384         900   
.text.USBHostCDCEventHa 0x9d01e030          0x378         888   
.text                   0x9d01e3a8          0x6e0        1760  App's exec code 
.text.mrb_init_array    0x9d01ea88          0x348         840   
.rodata                 0x9d01edd0          0x344         836  Read-only const 
.text._USB_ParseConfigu 0x9d01f114          0x308         776   
.text.mrb_str_dump      0x9d01f41c          0x2f8         760   
.text.mrb_init_hash     0x9d01f714          0x2f0         752   
.text.USBStdFeatureReqH 0x9d01fa04          0x2e8         744   
.text.DHCPReplyToReques 0x9d01fcec          0x2d8         728   
.text.mDNSProcessIntern 0x9d01ffc4          0x2d8         728   
.text.inputPort         0x9d02029c          0x2cc         716   
.text.setPortIOType     0x9d020568          0x2c0         704   
.text.outputPort        0x9d020828          0x2c0         704   
.text.USBHostCDCInitial 0x9d020ae8          0x2a8         680   
.text.sendOSCTask       0x9d020d90          0x298         664   
.text.getPortIOType     0x9d021028          0x290         656   
.text._DHCPReceive      0x9d0212b8          0x288         648   
.text.mrb_funcall_with_ 0x9d021540          0x288         648   
.text.__strtod          0x9d0217c8          0x280         640   
.text.mDNSResponder     0x9d021a48          0x278         632   
.text._DHCPSend         0x9d021cc0          0x274         628   
.rodata                 0x9d021f34          0x264         612  Read-only const 
.text.USBDeviceTasks    0x9d022198          0x260         608   
.text.main              0x9d0223f8          0x254         596   
.rodata                 0x9d02264c          0x254         596  Read-only const 
.text.exc_inspect       0x9d0228a0          0x250         592   
.text.mrb_flo_to_str    0x9d022af0          0x24c         588   
.text.mrb_convert_midi_ 0x9d022d3c          0x248         584   
.text.read_irep_record_ 0x9d022f84          0x238         568   
.text.make_exception    0x9d0231bc          0x21c         540   
.text.join_ary          0x9d0233d8          0x21c         540   
.text.mrb_str_inspect   0x9d0235f4          0x200         512   
.text                   0x9d0237f4          0x200         512  App's exec code 
.text.DHCPServerTask    0x9d0239f4          0x1f8         504   
.text.mrb_output_backtr 0x9d023bec          0x1f8         504   
.text.EthPhyInit        0x9d023de4          0x1ec         492   
.text.is_special_global 0x9d023fd0          0x1ec         492   
.rodata                 0x9d0241bc          0x1ec         492  Read-only const 
.text.mDNSSendRR        0x9d0243a8          0x1d8         472   
.text.comparePortNameAt 0x9d024580          0x1d4         468   
.text.mrb_mod_to_s      0x9d024754          0x1cc         460   
.text.inspect_ary       0x9d024920          0x1cc         460   
.text.mrb_str_index_m   0x9d024aec          0x1c0         448   
.text.USBDeviceInit     0x9d024cac          0x1b4         436   
.text.gc_mark_children  0x9d024e60          0x1b0         432   
.text.setAnPortDioType  0x9d025010          0x1ac         428   
.text.mrb_str_rindex_m  0x9d0251bc          0x1ac         428   
.text.mrb_init_range    0x9d025368          0x1ac         428   
.text.DHCPReplyToDiscov 0x9d025514          0x1a8         424   
.text.outputAnPort      0x9d0256bc          0x1a4         420   
.text.mrb_cstr_to_dbl   0x9d025860          0x1a0         416   
.text.EthRxBuffersAppen 0x9d025a00          0x1a0         416   
.text.mrb_init_object   0x9d025ba0          0x198         408   
.rodata                 0x9d025d38          0x194         404  Read-only const 
.text.read_debug_record 0x9d025ecc          0x194         404   
.text._USB_SetBDT       0x9d026060          0x190         400   
.text.mrb_usb_cdc_rxtx_ 0x9d0261f0          0x190         400   
.rodata                 0x9d026380          0x190         400  Read-only const 
.text.hash_equal        0x9d026510          0x190         400   
.text.USBHostMIDIInit   0x9d0266a0          0x188         392   
.text.inspect_hash      0x9d026828          0x188         392   
.text.mDNSProbe         0x9d0269b0          0x184         388   
.text.appendOSCMessageT 0x9d026b34          0x17c         380   
.rodata                 0x9d026cb0          0x17c         380  Read-only const 
.text.MACInit           0x9d026e2c          0x178         376   
.text.StackTask         0x9d026fa4          0x170         368   
.text.mDNSSDFillResReco 0x9d027114          0x170         368   
.text.getFloatArgumentA 0x9d027284          0x16c         364   
.text._USB_FindDeviceLe 0x9d0273f0          0x16c         364   
.text.USB_ApplicationEv 0x9d02755c          0x168         360   
.text.flo_round         0x9d0276c4          0x168         360   
.text.getIntArgumentAtI 0x9d02782c          0x164         356   
.text._PhyInitIo        0x9d027990          0x164         356   
.text.mrb_hash_replace  0x9d027af4          0x160         352   
.text.malloc            0x9d027c54          0x160         352   
.text.USBCtrlTrfRxServi 0x9d027db4          0x15c         348   
.text.sendOSCMessage    0x9d027f10          0x158         344   
.text.USBCtrlEPServiceC 0x9d028068          0x158         344   
.text.incremental_sweep 0x9d0281c0          0x158         344   
.text.mrb_convert_to_in 0x9d028318          0x158         344   
.text.copyOSCPacketFrom 0x9d028470          0x154         340   
.text.mrb_str_chomp_ban 0x9d0285c4          0x154         340   
.text.USBHostIssueDevic 0x9d028718          0x14c         332   
.text.EthPhyGetNegotiat 0x9d028864          0x148         328   
.text.GenerateRandomDWO 0x9d0289ac          0x144         324   
.text.mrb_vm_define_cla 0x9d028af0          0x144         324   
.text.obj_respond_to    0x9d028c34          0x144         324   
.text.kh_put_n2s        0x9d028d78          0x144         324   
.text.EthPhyNegotiation 0x9d028ebc          0x13c         316   
.text.mrb_hash_shift    0x9d028ff8          0x134         308   
.rodata.optable.6483.op 0x9d02912c          0x130         304   
.text.obj_free          0x9d02925c          0x12c         300   
.text.mrb_class_path    0x9d029388          0x128         296   
.text.mrb_vformat       0x9d0294b0          0x128         296   
.text.kh_put_ht         0x9d0295d8          0x128         296   
.text.mrb_init_proc     0x9d029700          0x128         296   
.text.mrb_yield_interna 0x9d029828          0x128         296   
.text.range_eql         0x9d029950          0x124         292   
.text.setSpiPortDioType 0x9d029a74          0x120         288   
.text.mrb_init_exceptio 0x9d029b94          0x120         288   
.text.mrb_ary_splice    0x9d029cb4          0x120         288   
.text.ARPProcess        0x9d029dd4          0x11c         284   
.text.mrb_ary_aset      0x9d029ef0          0x11c         284   
.text.mrb_range_eq      0x9d02a00c          0x11c         284   
.text.EthRxGetPacket    0x9d02a128          0x118         280   
.text.mrb_check_type    0x9d02a240          0x114         276   
.text.mrb_str_times     0x9d02a354          0x114         276   
.text._NVMOperation     0x9d02a468          0x114         276   
.text.USBCheckStdReques 0x9d02a57c          0x10c         268   
.text._EthRxAckBuffer   0x9d02a688          0x10c         268   
.text.inputAnPort       0x9d02a794          0x108         264   
.text.USBCtrlTrfInHandl 0x9d02a89c          0x108         264   
.text.exc_debug_info    0x9d02a9a4          0x108         264   
.text.gc_gray_mark      0x9d02aaac          0x108         264   
.text                   0x9d02abb4          0x108         264  App's exec code 
.text.UDPFlush          0x9d02acbc          0x104         260   
.text.mrb_init_osc_conf 0x9d02adc0          0x104         260   
.text.mrb_any_to_s      0x9d02aec4          0x104         260   
.text.fix_divmod        0x9d02afc8          0x104         260   
.rodata                 0x9d02b0cc          0x208         520  Read-only const 
.text.initAnalogVariabl 0x9d02b2d4          0x100         256   
.rodata.isspacetable.is 0x9d02b3d4          0x100         256   
.text.mrb_ary_equal     0x9d02b4d4          0x100         256   
.rodata                 0x9d02b5d4          0x100         256  Read-only const 
.text.mrb_obj_extend    0x9d02b6d4           0xfc         252   
.text.fwrite            0x9d02b7d0           0xfc         252   
.text.strtoul           0x9d02b8cc           0xfc         252   
.text._PhyDetectReset   0x9d02b9c8           0xf8         248   
.text.MACGetHeader      0x9d02bac0           0xf8         248   
.text.USBCtrlEPService  0x9d02bbb8           0xf8         248   
.text.USBCheckHIDReques 0x9d02bcb0           0xf8         248   
.text._USB_FindServiceE 0x9d02bda8           0xf8         248   
.text.USBHostCDCTransfe 0x9d02bea0           0xf8         248   
.text.flodivmod         0x9d02bf98           0xf8         248   
.text.outputSpiPort     0x9d02c090           0xf4         244   
.text.USBCtrlEPAllowSta 0x9d02c184           0xf4         244   
.text.mrb_mod_include   0x9d02c278           0xf4         244   
.text.mrb_str_cmp_m     0x9d02c36c           0xf4         244   
.text.mrb_init_gc       0x9d02c460           0xf0         240   
.text.mrb_ary_aget      0x9d02c550           0xf0         240   
.text.mrb_str_aref      0x9d02c640           0xec         236   
.text.inspect_i         0x9d02c72c           0xec         236   
.text.mrb_ary_cmp       0x9d02c818           0xec         236   
.text.mrb_ary_last      0x9d02c904           0xe8         232   
.text.mrb_init_core     0x9d02c9ec           0xe8         232   
.text.scale             0x9d02cad4           0xe8         232   
.text.ARPResolve        0x9d02cbbc           0xe4         228   
.text.USBStdGetStatusHa 0x9d02cca0           0xe4         228   
.text.kh_put_mt         0x9d02cd84           0xe4         228   
.text.kh_put_st         0x9d02ce68           0xe4         228   
.text.str_replace       0x9d02cf4c           0xe4         228   
.text.iv_put            0x9d02d030           0xe4         228   
.text._EthAckPacket     0x9d02d114           0xe4         228   
.text.extractArgumentsF 0x9d02d1f8           0xe0         224   
.text.UDPProcess        0x9d02d2d8           0xe0         224   
.text.mrb_hash_init_cor 0x9d02d3b8           0xe0         224   
.text.mrb_f_raise       0x9d02d498           0xe0         224   
.text.mrb_str_modify    0x9d02d578           0xe0         224   
.text.str_buf_cat       0x9d02d658           0xe0         224   
.text.mrb_obj_iv_inspec 0x9d02d738           0xe0         224   
.text.USBCtrlEPAllowDat 0x9d02d818           0xdc         220   
.text.mrb_irep_free     0x9d02d8f4           0xdc         220   
.text.mDNSServiceRegist 0x9d02d9d0           0xd8         216   
.text.USBCtrlTrfSetupHa 0x9d02daa8           0xd8         216   
.text.range_inspect     0x9d02db80           0xd8         216   
.text.range_to_s        0x9d02dc58           0xd8         216   
.text.ieee754dp_format  0x9d02dd30           0xd8         216   
.text.MACIsTxReady      0x9d02de08           0xd4         212   
.text.mDNSDeCompress    0x9d02dedc           0xd4         212   
.text.exc_equal         0x9d02dfb0           0xd4         212   
.text.mrb_read_irep     0x9d02e084           0xd4         212   
.text._sbrk_init        0x9d02e158           0xd4         212   
.text._USB_FindClassDri 0x9d02e22c           0xd0         208   
.text.mrb_obj_singleton 0x9d02e2fc           0xd0         208   
.text.localjump_error   0x9d02e3cc           0xd0         208   
.text._EthAppendBusyLis 0x9d02e49c           0xd0         208   
.text.general_exception 0x9d02e56c           0xd0         208   
.rodata.sd000.sd000     0x9d02e63c            0x4           4   
.rodata                 0x9d02e640          0x1a0         416  Read-only const 
.text.idleI2C           0x9d02e7e0           0xcc         204   
.text.getDataFromI2C    0x9d02e8ac           0xcc         204   
.text.USBStdSetCfgHandl 0x9d02e978           0xcc         204   
.text.mrb_init_io_ports 0x9d02ea44           0xcc         204   
.text.mrb_mod_remove_cv 0x9d02eb10           0xcc         204   
.text.mrb_flo_to_fixnum 0x9d02ebdc           0xcc         204   
.text                   0x9d02eca8           0xcc         204  App's exec code 
.text.USBTransferOnePac 0x9d02ed74           0xc8         200   
.text.sym_intern        0x9d02ee3c           0xc8         200   
.text.range_initialize_ 0x9d02ef04           0xc8         200   
.text.SpiChnOpen        0x9d02efcc           0xc8         200   
.text.analogInHandle    0x9d02f094           0xc4         196   
.text.preAssign_ToDHCPC 0x9d02f158           0xc4         196   
.text.powf              0x9d02f21c           0xc4         196   
.text.fputc             0x9d02f2e0           0xc4         196   
.text.mrb_class_new_cla 0x9d02f3a4           0xc0         192   
.text.mrb_singleton_cla 0x9d02f464           0xc0         192   
.rodata                 0x9d02f524           0xc0         192  Read-only const 
.text.mrb_funcall       0x9d02f5e4           0xc0         192   
.text.fseek             0x9d02f6a4           0xc0         192   
.text.SetRXHashTableEnt 0x9d02f764           0xbc         188   
.text.USBHostMIDIEventH 0x9d02f820           0xbc         188   
.text.mrb_mod_ancestors 0x9d02f8dc           0xbc         188   
.text.mrb_bob_missing   0x9d02f998           0xbc         188   
.text.kh_resize_ht      0x9d02fa54           0xb8         184   
.text.kh_resize_n2s     0x9d02fb0c           0xb8         184   
.text.mrb_ary_times     0x9d02fbc4           0xb8         184   
.text                   0x9d02fc7c           0xb8         184  App's exec code 
.text.inputSpiPort      0x9d02fd34           0xb4         180   
.text.UDPOpenEx         0x9d02fde8           0xb4         180   
.text.mDNSSDFormatServi 0x9d02fe9c           0xb4         180   
.text.mDNSProcess       0x9d02ff50           0xb4         180   
.text.read_section_debu 0x9d030004           0xb4         180   
.text.mrb_to_integer    0x9d0300b8           0xb4         180   
.text.sym_cmp           0x9d03016c           0xb4         180   
.text.argnum_error      0x9d030220           0xb4         180   
.text.ecall             0x9d0302d4           0xb4         180   
.text.mrb_ary_unshift_m 0x9d030388           0xb4         180   
.text.mrb_fixnum_mul    0x9d03043c           0xb4         180   
.text.ZeroconfARPPktNot 0x9d0304f0           0xb0         176   
.text.class_instance_me 0x9d0305a0           0xb0         176   
.text.mrb_ary_eql       0x9d030650           0xb0         176   
.text.num_pow           0x9d030700           0xb0         176   
.text                   0x9d0307b0           0xb0         176  App's exec code 
.text.realloc           0x9d030860           0xb0         176   
.text.fround            0x9d030910           0xb0         176   
.text._flsbuf           0x9d0309c0           0xb0         176   
.text.mrb_singleton_cla 0x9d030a70           0xac         172   
.text.mrb_hash_default  0x9d030b1c           0xac         172   
.text.mrb_hash_get      0x9d030bc8           0xac         172   
.text.mrb_fixnum_to_str 0x9d030c74           0xac         172   
.text.mrb_range_beg_len 0x9d030d20           0xac         172   
.text                   0x9d030dcc           0xac         172  App's exec code 
.text.read_lineno_recor 0x9d030e78           0xa8         168   
.text.mrb_init_symbol   0x9d030f20           0xa8         168   
.text.mrb_onboard_led   0x9d030fc8           0xa4         164   
.text.prepare_singleton 0x9d03106c           0xa4         164   
.text.mrb_include_modul 0x9d031110           0xa4         164   
.rodata                 0x9d0311b4           0xa4         164  Read-only const 
.text.kh_get_n2s        0x9d031258           0xa4         164   
.rodata                 0x9d0312fc           0xa0         160  Read-only const 
.text.sendSpiFourWord   0x9d03139c           0xa0         160   
.text.processOSCPacket  0x9d03143c           0xa0         160   
.text.IPPutHeader       0x9d0314dc           0xa0         160   
.text.FindMatchingSocke 0x9d03157c           0xa0         160   
.text.USBCtrlTrfTxServi 0x9d03161c           0xa0         160   
.rodata                 0x9d0316bc           0xa0         160  Read-only const 
.text.getAnalogByte     0x9d03175c           0x9c         156   
.text.UDPTask           0x9d0317f8           0x9c         156   
.text.USBStdGetDscHandl 0x9d031894           0x9c         156   
.text.kh_resize_mt      0x9d031930           0x9c         156   
.text.mrb_incremental_g 0x9d0319cc           0x9c         156   
.text.mrb_f_block_given 0x9d031a68           0x9c         156   
.text.mrb_convert_type  0x9d031b04           0x9c         156   
.text.mrb_str_equal     0x9d031ba0           0x9c         156   
.text.mrb_ary_shift     0x9d031c3c           0x9c         156   
.text.flo_truncate      0x9d031cd8           0x9c         156   
.text.EthMACOpen        0x9d031d74           0x9c         156   
.text.getAnalogWord     0x9d031e10           0x98         152   
.text.mrb_receive_midi_ 0x9d031ea8           0x98         152   
.text.convert_type      0x9d031f40           0x98         152   
.text.proc_lambda       0x9d031fd8           0x98         152   
.text.mrb_memsearch_qs  0x9d032070           0x98         152   
.text.sym_inspect       0x9d032108           0x98         152   
.text.stack_extend_allo 0x9d0321a0           0x98         152   
.text.mrb_debug_get_lin 0x9d032238           0x98         152   
.text.EthDescriptorsPoo 0x9d0322d0           0x98         152   
.text.kh_get_ht         0x9d032368           0x94         148   
.text.mrb_obj_clone     0x9d0323fc           0x94         148   
.text.str_make_shared   0x9d032490           0x94         148   
.text.mrb_ary_delete_at 0x9d032524           0x94         148   
.text.mrb_ary_set       0x9d0325b8           0x94         148   
.rodata.configDescripto 0x9d03264c           0x90         144   
.text.mDNSPutString     0x9d0326dc           0x90         144   
.text.mDNSRename        0x9d03276c           0x90         144   
.text.mrb_gc_mark_hash  0x9d0327fc           0x90         144   
.rodata.builtin_types.b 0x9d03288c           0x90         144   
.rodata                 0x9d03291c           0x90         144  Read-only const 
.text.mrb_str_aref_m    0x9d0329ac           0x90         144   
.text.mrb_ary_first     0x9d032a3c           0x90         144   
.text.mrb_fixnum_plus   0x9d032acc           0x90         144   
.text.mrb_method_search 0x9d032b5c           0x8c         140   
.text.mrb_obj_dup       0x9d032be8           0x8c         140   
.text.const_get         0x9d032c74           0x8c         140   
.text.getSpiPortDioType 0x9d032d00           0x88         136   
.text.ICMPProcess       0x9d032d88           0x88         136   
.text.IPGetHeader       0x9d032e10           0x88         136   
.text.mod_define_method 0x9d032e98           0x88         136   
.text.exc_exception     0x9d032f20           0x88         136   
.text.mrb_obj_instance_ 0x9d032fa8           0x88         136   
.text.iv_foreach        0x9d033030           0x88         136   
.text.ary_expand_capa   0x9d0330b8           0x88         136   
.text.EthInit           0x9d033140           0x88         136   
.text.sendAdc           0x9d0331c8           0x84         132   
.text.setDigitalPortDio 0x9d03324c           0x84         132   
.text.openOSCSendPort   0x9d0332d0           0x84         132   
.text.ARPIsResolved     0x9d033354           0x84         132   
.text.EthPhyReset       0x9d0333d8           0x84         132   
.text.mrb_network_tasks 0x9d03345c           0x84         132   
.text.mrb_obj_init_copy 0x9d0334e0           0x84         132   
.text.kh_resize_st      0x9d033564           0x84         132   
.text.mrb_obj_eq        0x9d0335e8           0x84         132   
.text.mrb_ary_unshift   0x9d03366c           0x84         132   
.text.num_cmp           0x9d0336f0           0x84         132   
.text.mrb_range_include 0x9d033774           0x84         132   
.text.USBCtrlTrfOutHand 0x9d0337f8           0x80         128   
.text.USBHostRead       0x9d033878           0x80         128   
.text.USBHostWrite      0x9d0338f8           0x80         128   
.text._USB_NotifyClient 0x9d033978           0x80         128   
.text.USBHostCDCDeviceS 0x9d0339f8           0x80         128   
.text.mrb_mod_cvar_defi 0x9d033a78           0x80         128   
.text.mrb_mod_const_def 0x9d033af8           0x80         128   
.text.mrb_str_to_str    0x9d033b78           0x80         128   
.text.mrb_str_to_i      0x9d033bf8           0x80         128   
.text.ary_modify        0x9d033c78           0x80         128   
.text.get_backtrace_i   0x9d033cf8           0x80         128   
.text.mrb_fixnum_minus  0x9d033d78           0x80         128   
.text.outputDigitalPort 0x9d033df8           0x7c         124   
.text.extractTypeTagFro 0x9d033e74           0x7c         124   
.text._USB_FreeConfigMe 0x9d033ef0           0x7c         124   
.text.mrb_full_gc       0x9d033f6c           0x7c         124   
.text.mrb_str_include   0x9d033fe8           0x7c         124   
.text.mrb_ary_reverse   0x9d034064           0x7c         124   
.text.mrb_obj_id        0x9d0340e0           0x7c         124   
.text._mon_putc         0x9d03415c           0x7c         124   
.text.setPwmPortDioType 0x9d0341d8           0x78         120   
.text.USBHostTransferIs 0x9d034250           0x78         120   
.text._USB_SendToken    0x9d0342c8           0x78         120   
.text._USBHostCDC_Reset 0x9d034340           0x78         120   
.text.mrb_class_name    0x9d0343b8           0x78         120   
.text.mrb_hash_has_valu 0x9d034430           0x78         120   
.text.mrb_hash_values   0x9d0344a8           0x78         120   
.text.mrb_hash_keys     0x9d034520           0x78         120   
.text.mrb_hash_set      0x9d034598           0x78         120   
.text.mrb_load_irep_cxt 0x9d034610           0x78         120   
.text.mrb_open_allocf   0x9d034688           0x78         120   
.text.mrb_str_upcase_ba 0x9d034700           0x78         120   
.text.mrb_str_capitaliz 0x9d034778           0x78         120   
.text.mrb_mod_cv_set    0x9d0347f0           0x78         120   
.text.mrb_vm_const_get  0x9d034868           0x78         120   
.text.mrb_ary_ceqq      0x9d0348e0           0x78         120   
.text.log10f            0x9d034958           0x78         120   
.text.setOSCAddress     0x9d0349d0           0x74         116   
.text.mDNSServiceDeRegi 0x9d034a44           0x74         116   
.text.mDNSInitialize    0x9d034ab8           0x74         116   
.text._USB_InitControlW 0x9d034b2c           0x74         116   
.text._USB_InitRead     0x9d034ba0           0x74         116   
.text._USB_InitWrite    0x9d034c14           0x74         116   
.text.check_type        0x9d034c88           0x74         116   
.text.get_sym_or_str_ar 0x9d034cfc           0x74         116   
.text.mrb_check_inherit 0x9d034d70           0x74         116   
.text.change_gen_gc_mod 0x9d034de4           0x74         116   
.text.mrb_obj_alloc     0x9d034e58           0x74         116   
.text.mrb_hash_set_defa 0x9d034ecc           0x74         116   
.text.mrb_str_pool      0x9d034f40           0x74         116   
.text.mrb_check_intern  0x9d034fb4           0x74         116   
.text.mrb_f_global_vari 0x9d035028           0x74         116   
.text.flo_divmod        0x9d03509c           0x74         116   
.text.flo_floor         0x9d035110           0x74         116   
.text.flo_ceil          0x9d035184           0x74         116   
.text.outputPwmPort     0x9d0351f8           0x70         112   
.text.ARPSendPkt        0x9d035268           0x70         112   
.text._T1Interrupt      0x9d0352d8           0x70         112   
.text.mrb_instance_new  0x9d035348           0x70         112   
.text.mark_context_stac 0x9d0353b8           0x70         112   
.text.mrb_hash_set_defa 0x9d035428           0x70         112   
.text.mrb_sym2name_len  0x9d035498           0x70         112   
.text.mrb_mod_cv_get    0x9d035508           0x70         112   
.text.mrb_ary_rindex_m  0x9d035578           0x70         112   
.text.mrb_ary_index_m   0x9d0355e8           0x70         112   
.text.mrb_ary_plus      0x9d035658           0x70         112   
.text.fix_mod           0x9d0356c8           0x70         112   
.text.flo_eq            0x9d035738           0x70         112   
.text.EthTxSendBuffer   0x9d0357a8           0x70         112   
.text.mDNSHostRegister  0x9d035818           0x6c         108   
.text._USB_InitControlR 0x9d035884           0x6c         108   
.text.mrb_send_cc       0x9d0358f0           0x6c         108   
.text.mrb_send_note     0x9d03595c           0x6c         108   
.text.root_scan_phase   0x9d0359c8           0x6c         108   
.text.mrb_memsearch     0x9d035a34           0x6c         108   
.text.mrb_str_substr    0x9d035aa0           0x6c         108   
.text.mrb_str_to_dbl    0x9d035b0c           0x6c         108   
.text.mrb_free_symtbl   0x9d035b78           0x6c         108   
.text.ary_new_capa      0x9d035be4           0x6c         108   
.text.flo_infinite_p    0x9d035c50           0x6c         108   
.text.range_check       0x9d035cbc           0x6c         108   
.text._EthTxSchedBuffer 0x9d035d28           0x6c         108   
.text.SpiChnClose       0x9d035d94           0x6c         108   
.text.__ldexp           0x9d035e00           0x6c         108   
.text.startI2C          0x9d035e6c           0x68         104   
.text.GetTickCopy       0x9d035ed4           0x68         104   
.text.mrb_class         0x9d035f3c           0x68         104   
.text.mrb_mod_remove_co 0x9d035fa4           0x68         104   
.text.mark_context      0x9d03600c           0x68         104   
.text.mrb_class         0x9d036074           0x68         104   
.text.mrb_obj_remove_in 0x9d0360dc           0x68         104   
.text.mrb_class         0x9d036144           0x68         104   
.text.mrb_str_concat    0x9d0361ac           0x68         104   
.text.mrb_class         0x9d036214           0x68         104   
.text.mrb_range_new     0x9d03627c           0x68         104   
.rodata                 0x9d0362e4           0x68         104  Read-only const 
.text.StackInit         0x9d03634c           0x64         100   
.text.USBStallHandler   0x9d0363b0           0x64         100   
.text._USB_CheckCommand 0x9d036414           0x64         100   
.text.USBHostInit       0x9d036478           0x64         100   
.text.kh_get_mt         0x9d0364dc           0x64         100   
.text.undef_method      0x9d036540           0x64         100   
.text.mrb_obj_is_kind_o 0x9d0365a4           0x64         100   
.text.mrb_check_convert 0x9d036608           0x64         100   
.text.ary_make_shared   0x9d03666c           0x64         100   
.text.fixdivmod         0x9d0366d0           0x64         100   
.text.fix_rshift        0x9d036734           0x64         100   
.text.atoi              0x9d036798           0x64         100   
.text.strtok            0x9d0367fc           0x64         100   
.text._sbrk             0x9d036860           0x64         100   
.text.sendSpiTwoWord    0x9d0368c4           0x60          96   
.text.compareOSCAddress 0x9d036924           0x60          96   
.text.ARPPut            0x9d036984           0x60          96   
.text.postAssign_ToDHCP 0x9d0369e4           0x60          96   
.text.renew_dhcps_Pool  0x9d036a44           0x60          96   
.text._USB_FreeMemory   0x9d036aa4           0x60          96   
.text.class_from_sym    0x9d036b04           0x60          96   
.text.mrb_name_error    0x9d036b64           0x60          96   
.text.mrb_ptr_to_str    0x9d036bc4           0x60          96   
.rodata                 0x9d036c24           0x60          96  Read-only const 
.text.iv_del            0x9d036c84           0x60          96   
.text.iv_copy           0x9d036ce4           0x60          96   
.text.lshift            0x9d036d44           0x60          96   
.text.fix_lshift        0x9d036da4           0x60          96   
.text.mrb_range_initial 0x9d036e04           0x60          96   
.text.SoftReset         0x9d036e64           0x60          96   
.text.fflush            0x9d036ec4           0x60          96   
.text.restartI2C        0x9d036f24           0x5c          92   
.text.strncpy_m         0x9d036f80           0x5c          92   
.text.kh_copy_mt        0x9d036fdc           0x5c          92   
.text.setup_class       0x9d037038           0x5c          92   
.text.mrb_mod_module_ev 0x9d037094           0x5c          92   
.text.mrb_obj_new       0x9d0370f0           0x5c          92   
.text.mrb_mod_method_de 0x9d03714c           0x5c          92   
.text.exc_to_s          0x9d0371a8           0x5c          92   
.text.closure_setup     0x9d037204           0x5c          92   
.text.mrb_str_bytes     0x9d037260           0x5c          92   
.text.mrb_str_subseq    0x9d0372bc           0x5c          92   
.text.value_move        0x9d037318           0xb8         184   
.text.ary_subseq        0x9d0373d0           0x5c          92   
.text.mrb_ary_reverse_b 0x9d03742c           0x5c          92   
.text.mrb_ary_splat     0x9d037488           0x5c          92   
.rodata                 0x9d0374e4           0x5c          92  Read-only const 
.text.get_file          0x9d037540           0x5c          92   
.text.fix_equal         0x9d03759c           0x5c          92   
.text.bit_coerce        0x9d0375f8           0x5c          92   
.text._EthTxSchedList   0x9d037654           0x5c          92   
.text.getOSCPacket      0x9d0376b0           0x58          88   
.text.mrb_set_port_io_t 0x9d037708           0x58          88   
.text.mrb_output_port   0x9d037760           0x58          88   
.text.remove_method     0x9d0377b8           0x58          88   
.text.mrb_class_new     0x9d037810           0x58          88   
.text.incremental_gc    0x9d037868           0x58          88   
.text.clear_all_old     0x9d0378c0           0x58          88   
.text.mrb_realloc       0x9d037918           0x58          88   
.text.read_irep_record  0x9d037970           0x58          88   
.text.mrb_str_downcase_ 0x9d0379c8           0x58          88   
.text.mrb_str_chop_bang 0x9d037a20           0x58          88   
.text.mrb_str_reverse   0x9d037a78           0x58          88   
.text.mrb_obj_as_string 0x9d037ad0           0x58          88   
.text.mrb_str_to_inum   0x9d037b28           0x58          88   
.text.mrb_ary_push_m    0x9d037b80           0x58          88   
.text.EthPhyConfigureMd 0x9d037bd8           0x54          84   
.text.TickInit          0x9d037c2c           0x54          84   
.text.kh_alloc_mt       0x9d037c80           0x54          84   
.text.mrb_mod_remove_me 0x9d037cd4           0x54          84   
.text.mrb_gc_arena_rest 0x9d037d28           0x54          84   
.text.kh_alloc_ht       0x9d037d7c           0x54          84   
.text.mrb_hash_delete_k 0x9d037dd0           0x54          84   
.text.init_copy         0x9d037e24           0x54          84   
.text.read_binary_heade 0x9d037e78           0x54          84   
.text.mrb_proc_initiali 0x9d037ecc           0x54          84   
.text.mrb_str_rindex    0x9d037f20           0x54          84   
.text.iv_get            0x9d037f74           0x54          84   
.text.const_i           0x9d037fc8           0x54          84   
.text.mrb_class_sym     0x9d03801c           0x54          84   
.text.cipush            0x9d038070           0x54          84   
.text.num_equal         0x9d0380c4           0x54          84   
.text.inputDigitalPort  0x9d038118           0x50          80   
.text.InitAppConfig     0x9d038168           0x50          80   
.text.USBHostDeviceStat 0x9d0381b8           0x50          80   
.text.mrb_mod_included_ 0x9d038208           0x50          80   
.text.mrb_mod_undef     0x9d038258           0x50          80   
.text.exc_initialize    0x9d0382a8           0x50          80   
.text.mrb_proc_init_cop 0x9d0382f8           0x50          80   
.text.mrb_top_self      0x9d038348           0x50          80   
.text.cv_i              0x9d038398           0x50          80   
.text.iv_i              0x9d0383e8           0x50          80   
.text.checkAckI2C       0x9d038438           0x4c          76   
.text.extractAddressFro 0x9d038484           0x4c          76   
.text.setOSCTypeTag     0x9d0384d0           0x4c          76   
.text.DHCPServerInit    0x9d03851c           0x4c          76   
.text.EthPhyGetLinkStat 0x9d038568           0x4c          76   
.text.mDNSTieBreaker    0x9d0385b4           0x4c          76   
.text._USB_ResetDATA0   0x9d038600           0x4c          76   
.text.check_const_name_ 0x9d03864c           0x4c          76   
.text.mrb_instance_allo 0x9d038698           0x4c          76   
.text.mrb_mod_include_p 0x9d0386e4           0x4c          76   
.text.mrb_mod_cvar_set  0x9d038730           0x4c          76   
.text.mrb_mod_const_set 0x9d03877c           0x4c          76   
.text.mrb_free_heap     0x9d0387c8           0x4c          76   
.text.mrb_f_send        0x9d038814           0x4c          76   
.text.mrb_obj_ivar_set  0x9d038860           0x4c          76   
.text.mrb_obj_basic_to_ 0x9d0388ac           0x4c          76   
.text.mrb_equal         0x9d0388f8           0x4c          76   
.text.mrb_eql           0x9d038944           0x4c          76   
.text.mrb_str_resize    0x9d038990           0x4c          76   
.text.mrb_string_value_ 0x9d0389dc           0x4c          76   
.text.kh_alloc_n2s      0x9d038a28           0x4c          76   
.text.mrb_debug_info_fr 0x9d038a74           0x4c          76   
.text.flo_hash          0x9d038ac0           0x4c          76   
.text.flo_finite_p      0x9d038b0c           0x4c          76   
.text.range_init        0x9d038b58           0x4c          76   
.text.EthMIIMConfig     0x9d038ba4           0x4c          76   
.text.inputPwmPort      0x9d038bf0           0x48          72   
.text.compareOSCPrefix  0x9d038c38           0x48          72   
.text.DHCPInit          0x9d038c80           0x48          72   
.text.MACPutHeader      0x9d038cc8           0x48          72   
.text.CalcIPChecksum    0x9d038d10           0x48          72   
.text.UDPGetArray       0x9d038d58           0x48          72   
.text.mDNSMulticastFilt 0x9d038da0           0x48          72   
.text.USBConfigureEndpo 0x9d038de8           0x48          72   
.text.USBHostSetNAKTime 0x9d038e30           0x48          72   
.text.mrb_get_port_io_t 0x9d038e78           0x48          72   
.text.mrb_input_port    0x9d038ec0           0x48          72   
.text.check_const_name_ 0x9d038f08           0x48          72   
.text.check_cv_name_str 0x9d038f50           0x48          72   
.text.mrb_mod_const_mis 0x9d038f98           0x48          72   
.text.mrb_mod_extend_ob 0x9d038fe0           0x48          72   
.text.mrb_exc_new       0x9d039028           0x48          72   
.text.gc_protect        0x9d039070           0x48          72   
.text.add_heap          0x9d0390b8           0x48          72   
.text.mrb_hash_aset     0x9d039100           0x48          72   
.text.mrb_str_index     0x9d039148           0x48          72   
.text.mrb_str_new_cstr  0x9d039190           0x48          72   
.text.mrb_str_cat       0x9d0391d8           0x48          72   
.text.mrb_sym2name      0x9d039220           0x48          72   
.text.mrb_obj_iv_ifnone 0x9d039268           0x48          72   
.text.mrb_iv_set        0x9d0392b0           0x48          72   
.text.mrb_obj_instance_ 0x9d0392f8           0x48          72   
.text.mrb_mod_constants 0x9d039340           0x48          72   
.text.ary_concat        0x9d039388           0x48          72   
.text.r_gt              0x9d0393d0           0x48          72   
.rodata                 0x9d039418           0x48          72  Read-only const 
.rodata.f5pow.f5pow     0x9d039460           0x48          72   
.text.ARPProcessRxPkt   0x9d0394a8           0x44          68   
.text._LinkReconfigure  0x9d0394ec           0x44          68   
.text.UDPIsGetReady     0x9d039530           0x44          68   
.text.check_cv_name_sym 0x9d039574           0x44          68   
.text.mrb_gc_mark_mt    0x9d0395b8           0x44          68   
.text.mrb_vm_define_mod 0x9d0395fc           0x44          68   
.text.mrb_exc_new_str   0x9d039640           0x44          68   
.text.kh_alloc_st       0x9d039684           0x44          68   
.text.method_entry_loop 0x9d0396c8           0x44          68   
.text.read_lineno_recor 0x9d03970c           0x44          68   
.text.mrb_proc_new      0x9d039750           0x44          68   
.text.mrb_str_eql       0x9d039794           0x44          68   
.text.mrb_iv_remove     0x9d0397d8           0x44          68   
.text.ary_shrink_capa   0x9d03981c           0x44          68   
.text.mrb_ary_join      0x9d039860           0x44          68   
.text.num_eql           0x9d0398a4           0x44          68   
.text.r_le              0x9d0398e8           0x44          68   
.text.r_ge              0x9d03992c           0x44          68   
.text.write             0x9d039970           0x44          68   
.text.sendSpiOneWord    0x9d0399b4           0x40          64   
.text.setAddressToI2C   0x9d0399f4           0x40          64   
.text.DelayMs           0x9d039a34           0x40          64   
.text.addOSCStringArgum 0x9d039a74           0x40          64   
.text.swapl             0x9d039ab4           0x40          64   
.text.UDPIsPutReady     0x9d039af4           0x40          64   
.text.UDPPutArray       0x9d039b34           0x40          64   
.text.strcmp_local_igno 0x9d039b74           0x40          64   
.rodata                 0x9d039bb4           0x40          64  Read-only const 
.text.mDNSFillHostRecor 0x9d039bf4           0x40          64   
.text.USBHostShutdown   0x9d039c34           0x40          64   
.text.USBHostCDC_Api_Ge 0x9d039c74           0x40          64   
.text.USBHostCDC_Api_Se 0x9d039cb4           0x40          64   
.text.USBCBInitEP       0x9d039cf4           0x40          64   
.text.kh_init_mt_size   0x9d039d34           0x40          64   
.text.mrb_obj_respond_t 0x9d039d74           0x40          64   
.text.mrb_define_class_ 0x9d039db4           0x40          64   
.text.gc_generational_m 0x9d039df4           0x40          64   
.text.mrb_field_write_b 0x9d039e34           0x40          64   
.text.mrb_hash_default_ 0x9d039e74           0x40          64   
.text.kh_init_ht_size   0x9d039eb4           0x40          64   
.text.kh_init_st_size   0x9d039ef4           0x40          64   
.text.mrb_obj_methods   0x9d039f34           0x40          64   
.text.mrb_str_reverse_b 0x9d039f74           0x40          64   
.text.mrb_str_plus      0x9d039fb4           0x40          64   
.text.mrb_str_cmp       0x9d039ff4           0x40          64   
.text.kh_init_n2s_size  0x9d03a034           0x40          64   
.text.mrb_mod_class_var 0x9d03a074           0x40          64   
.text.mrb_ary_push      0x9d03a0b4           0x40          64   
.text.mrb_get_backtrace 0x9d03a0f4           0x40          64   
.text.mrb_to_flo        0x9d03a134           0x40          64   
.text.flo_mod           0x9d03a174           0x40          64   
.text.fix_xor           0x9d03a1b4           0x40          64   
.text.fix_or            0x9d03a1f4           0x40          64   
.text.fix_and           0x9d03a234           0x40          64   
.text.strstr            0x9d03a274           0x40          64   
.text.setOSCHostName    0x9d03a2b4           0x3c          60   
.text.clearOSCBundle    0x9d03a2f0           0x3c          60   
.text.getStringArgument 0x9d03a32c           0x3c          60   
.text.EthPhyConfigureMI 0x9d03a368           0x3c          60   
.text.UDPGet            0x9d03a3a4           0x3c          60   
.text.zgzc_wait_for     0x9d03a3e0           0x3c          60   
.text._USB_FindEndpoint 0x9d03a41c           0x3c          60   
.text.mrb_compare_typet 0x9d03a458           0x3c          60   
.text.mrb_define_method 0x9d03a494           0x3c          60   
.text.mrb_define_method 0x9d03a4d0           0x3c          60   
.text.mrb_mod_append_fe 0x9d03a50c           0x3c          60   
.text.mrb_method_search 0x9d03a548           0x3c          60   
.text.mrb_define_module 0x9d03a584           0x3c          60   
.text.mrb_hash_new_capa 0x9d03a5c0           0x3c          60   
.text.valid_iv_name     0x9d03a5fc           0x3c          60   
.text.mrb_obj_public_me 0x9d03a638           0x3c          60   
.text.mrb_obj_protected 0x9d03a674           0x3c          60   
.text.mrb_obj_private_m 0x9d03a6b0           0x3c          60   
.text.mrb_obj_methods_m 0x9d03a6ec           0x3c          60   
.rodata                 0x9d03a728           0x3c          60  Read-only const 
.text.mrb_p             0x9d03a764           0x3c          60   
.text.mrb_close         0x9d03a7a0           0x3c          60   
.text.str_new           0x9d03a7dc           0x3c          60   
.text.mrb_str_buf_new   0x9d03a818           0x3c          60   
.text.mrb_str_new_stati 0x9d03a854           0x3c          60   
.text.mod_const_check   0x9d03a890           0x3c          60   
.text.mrb_obj_iv_set    0x9d03a8cc           0x3c          60   
.text.cipop             0x9d03a908           0x3c          60   
.text.stack_extend      0x9d03a944           0x3c          60   
.text.mrb_funcall_argv  0x9d03a980           0x3c          60   
.text.mrb_ary_new_from_ 0x9d03a9bc           0x3c          60   
.text.mrb_ary_inspect   0x9d03a9f8           0x3c          60   
.text.flo_mul           0x9d03aa34           0x3c          60   
.text.flo_minus         0x9d03aa70           0x3c          60   
.text.memcmp            0x9d03aaac           0x3c          60   
.text.raise             0x9d03aae8           0x3c          60   
.text.strncmp           0x9d03ab24           0x3c          60   
.text.getIndexByMacaddr 0x9d03ab60           0x38          56   
.text.UDPPut            0x9d03ab98           0x38          56   
.text.ZeroconfLLInitial 0x9d03abd0           0x38          56   
.text.USBEnableEndpoint 0x9d03ac08           0x38          56   
.text.USBHostClearEndpo 0x9d03ac40           0x38          56   
.text.USBHostCDCTransfe 0x9d03ac78           0x38          56   
.text.mrb_name_class    0x9d03acb0           0x38          56   
.text.mrb_mod_instance_ 0x9d03ace8           0x38          56   
.text.mrb_mod_cvar_get  0x9d03ad20           0x38          56   
.text.mrb_mod_const_get 0x9d03ad58           0x38          56   
.text.mrb_mod_alias     0x9d03ad90           0x38          56   
.text.mrb_raisef        0x9d03adc8           0x38          56   
.text.incremental_gc_st 0x9d03ae00           0x38          56   
.text.mrb_calloc        0x9d03ae38           0x38          56   
.text.mrb_hash_eql      0x9d03ae70           0x38          56   
.text.mrb_hash_equal    0x9d03aea8           0x38          56   
.text.mrb_hash_has_keyW 0x9d03aee0           0x38          56   
.text.mrb_equal_m       0x9d03af18           0x38          56   
.text.mrb_obj_not_equal 0x9d03af50           0x38          56   
.text.mrb_obj_equal_m   0x9d03af88           0x38          56   
.text.get_valid_iv_sym  0x9d03afc0           0x38          56   
.text.mrb_obj_ivar_defi 0x9d03aff8           0x38          56   
.text.mrb_obj_extend_m  0x9d03b030           0x38          56   
.text.mrb_obj_inspect   0x9d03b068           0x38          56   
.text.mrb_obj_singleton 0x9d03b0a0           0x38          56   
.text.inspect_type      0x9d03b0d8           0x38          56   
.text.mrb_proc_arity    0x9d03b110           0x38          56   
.text.mrb_str_init      0x9d03b148           0x38          56   
.text.mrb_str_equal_m   0x9d03b180           0x38          56   
.text.mrb_str_to_s      0x9d03b1b8           0x38          56   
.text.sym_equal         0x9d03b1f0           0x38          56   
.text.mrb_vm_iv_set     0x9d03b228           0x38          56   
.text.mrb_gv_get        0x9d03b260           0x38          56   
.text.ary_elt           0x9d03b298           0x38          56   
.text.mrb_ary_ref       0x9d03b2d0           0x38          56   
.text.mrb_ary_replace_m 0x9d03b308           0x38          56   
.text.mrb_ary_join_m    0x9d03b340           0x38          56   
.text.num_div           0x9d03b378           0x38          56   
.text                   0x9d03b3b0           0x34          52  App's exec code 
.text.stopI2C           0x9d03b3e4           0x34          52   
.text.ARPRegisterCallba 0x9d03b418           0x34          52   
.text.EthPhyRestartNego 0x9d03b44c           0x34          52   
.text.UDPDiscard        0x9d03b480           0x34          52   
.text.USBWakeFromSuspen 0x9d03b4b4           0x34          52   
.text.mrb_compare_osc_a 0x9d03b4e8           0x34          52   
.text.mrb_compare_osc_p 0x9d03b51c           0x34          52   
.text.mrb_define_method 0x9d03b550           0x34          52   
.text.mrb_hash_has_valu 0x9d03b584           0x34          52   
.text.mrb_hash_has_key  0x9d03b5b8           0x34          52   
.text.mrb_hash_aget     0x9d03b5ec           0x34          52   
.text.mrb_hash_delete   0x9d03b620           0x34          52   
.text.mrb_obj_ivar_get  0x9d03b654           0x34          52   
.text.mrb_proc_copy     0x9d03b688           0x34          52   
.text.mrb_free_context  0x9d03b6bc           0x34          52   
.text.mrb_str_plus_m    0x9d03b6f0           0x34          52   
.text.mrb_str_upcase    0x9d03b724           0x34          52   
.text.mrb_str_downcase  0x9d03b758           0x34          52   
.text.mrb_str_chop      0x9d03b78c           0x34          52   
.text.mrb_str_chomp     0x9d03b7c0           0x34          52   
.text.mrb_str_capitaliz 0x9d03b7f4           0x34          52   
.text.gv_i              0x9d03b828           0x34          52   
.text.stack_init        0x9d03b85c           0x34          52   
.text.ary_replace       0x9d03b890           0x34          52   
.text.mrb_ary_concat_m  0x9d03b8c4           0x34          52   
.text.calc_crc_16_ccitt 0x9d03b8f8           0x34          52   
.text.fix_mul           0x9d03b92c           0x34          52   
.text.fix_plus          0x9d03b960           0x34          52   
.text.fix_minus         0x9d03b994           0x34          52   
.text.EthMACSetAddress  0x9d03b9c8           0x34          52   
.text.INTEnableSystemMu 0x9d03b9fc           0x34          52   
.text.ftell             0x9d03ba30           0x34          52   
.text.memmove           0x9d03ba64           0x34          52   
.text.exit              0x9d03ba98           0x34          52   
.text.setDataToI2C      0x9d03bacc           0x30          48   
.text.Delay10us         0x9d03bafc           0x30          48   
.text.flushOSCMessage   0x9d03bb2c           0x30          48   
.text.isIpAddrInPool    0x9d03bb5c           0x30          48   
.text.USBSuspend        0x9d03bb8c           0x30          48   
.text.mrb_get_string_ar 0x9d03bbbc           0x30          48   
.text.mrb_get_float_arg 0x9d03bbec           0x30          48   
.text.mrb_set_osc_addre 0x9d03bc1c           0x30          48   
.text.mrb_class_supercl 0x9d03bc4c           0x30          48   
.text.boot_defclass     0x9d03bc7c           0x30          48   
.text.mrb_class_outer_m 0x9d03bcac           0x30          48   
.text.mrb_mod_s_constan 0x9d03bcdc           0x30          48   
.text.mrb_mod_eqq       0x9d03bd0c           0x30          48   
.text.mrb_alias_method  0x9d03bd3c           0x30          48   
.text.set_backtrace     0x9d03bd6c           0x30          48   
.text.mrb_raise         0x9d03bd9c           0x30          48   
.text.mrb_realloc_simpl 0x9d03bdcc           0x30          48   
.text.mrb_hash_inspect  0x9d03bdfc           0x30          48   
.text.mrb_hash_ht_hash_ 0x9d03be2c           0x30          48   
.text.mrb_obj_is_kind_o 0x9d03be5c           0x30          48   
.text.obj_is_instance_o 0x9d03be8c           0x30          48   
.text.mrb_inspect       0x9d03bebc           0x30          48   
.text.noregexp          0x9d03beec           0x30          48   
.text.mrb_str_buf_cat   0x9d03bf1c           0x30          48   
.text.mrb_str_append    0x9d03bf4c           0x30          48   
.text.mrb_sym2str       0x9d03bf7c           0x30          48   
.text.mrb_obj_iv_get    0x9d03bfac           0x30          48   
.text.mrb_iv_get        0x9d03bfdc           0x30          48   
.text.mrb_vm_iv_get     0x9d03c00c           0x30          48   
.text.mrb_gv_set        0x9d03c03c           0x30          48   
.text.is_strict         0x9d03c06c           0x30          48   
.text.mrb_ary_clear     0x9d03c09c           0x30          48   
.text.flo_plus          0x9d03c0cc           0x30          48   
.text.fix_shift_get_wid 0x9d03c0fc           0x30          48   
.text.fix_to_s          0x9d03c12c           0x30          48   
.text._ssize.clone.0    0x9d03c15c           0x30          48   
.text.strncpy           0x9d03c18c           0x30          48   
.text._sprintf_cdnopsux 0x9d03c1bc           0x30          48   
.text.vsnprintf         0x9d03c1ec           0x30          48   
.text.setOSCPrefix      0x9d03c21c           0x2c          44   
.text.addOSCIntArgument 0x9d03c248           0x2c          44   
.text.addOSCFloatArgume 0x9d03c274           0x2c          44   
.text.MACDiscardRx      0x9d03c2a0           0x2c          44   
.text.LFSRRand          0x9d03c2cc           0x2c          44   
.text.USBHostCDC_ApiDev 0x9d03c2f8           0x2c          44   
.text.mrb_get_int_arg_a 0x9d03c324           0x2c          44   
.text.USER_USB_CALLBACK 0x9d03c350           0x2c          44   
.text.mrb_define_single 0x9d03c37c           0x2c          44   
.text.mrb_exc_raise     0x9d03c3a8           0x2c          44   
.text.mrb_init_heap     0x9d03c3d4           0x2c          44   
.text.irep_error        0x9d03c400           0x2c          44   
.text.mrb_proc_new_cfun 0x9d03c42c           0x2c          44   
.text.mrb_add_irep      0x9d03c458           0x2c          44   
.text.regexp_check      0x9d03c484           0x2c          44   
.text.mrb_str_new_empty 0x9d03c4b0           0x2c          44   
.text.mrb_iv_copy       0x9d03c4dc           0x2c          44   
.text.mrb_mod_cv_define 0x9d03c508           0x2c          44   
.text.mrb_const_set     0x9d03c534           0x2c          44   
.text.mrb_ary_pop       0x9d03c560           0x2c          44   
.text.mrb_ary_s_create  0x9d03c58c           0x2c          44   
.text.mrb_assoc_new     0x9d03c5b8           0x2c          44   
.text.EthMIIMReadStart  0x9d03c5e4           0x2c          44   
.text.EthMIIMWriteStart 0x9d03c610           0x2c          44   
.text.INTEnable         0x9d03c63c           0x2c          44   
.text.I2CSetFrequency   0x9d03c668           0x2c          44   
.text                   0x9d03c694           0x2c          44  App's exec code 
.text.receiveSpiOneWord 0x9d03c6c0           0x28          40   
.text.openDiscoverPort  0x9d03c6e8           0x28          40   
.text.sendOSCBundle     0x9d03c710           0x28          40   
.text.DHCPDisable       0x9d03c738           0x28          40   
.text.Compare_MAC_addr  0x9d03c760           0x28          40   
.text.EthPhyGetHwConfig 0x9d03c788           0x28          40   
.text.MACFlush          0x9d03c7b0           0x28          40   
.text.TickGet           0x9d03c7d8           0x28          40   
.text.TickGetDiv256     0x9d03c800           0x28          40   
.text.mrb_add_osc_strin 0x9d03c828           0x28          40   
.text.mrb_add_osc_float 0x9d03c850           0x28          40   
.text.mrb_add_osc_int_a 0x9d03c878           0x28          40   
.text.mrb_set_osc_typet 0x9d03c8a0           0x28          40   
.text.mrb_delay_1ms     0x9d03c8c8           0x28          40   
.text.mrb_delay_10us    0x9d03c8f0           0x28          40   
.text.mrb_define_alias  0x9d03c918           0x28          40   
.text.mrb_undef_class_m 0x9d03c940           0x28          40   
.text.gc_step_ratio_set 0x9d03c968           0x28          40   
.text.gc_interval_ratio 0x9d03c990           0x28          40   
.text.incremental_marki 0x9d03c9b8           0x28          40   
.text.true_xor          0x9d03c9e0           0x28          40   
.text.mrb_str_replace   0x9d03ca08           0x28          40   
.text.mrb_gc_free_str   0x9d03ca30           0x28          40   
.text.mrb_str_hash      0x9d03ca58           0x28          40   
.text.mrb_str_buf_appen 0x9d03ca80           0x28          40   
.text.mrb_str_cat_cstr  0x9d03caa8           0x28          40   
.rodata.mrb_digitmap.mr 0x9d03cad0           0x28          40   
.text.sym_hash_func     0x9d03caf8           0x28          40   
.text.mrb_sym_to_s      0x9d03cb20           0x28          40   
.text.mrb_vm_cv_set     0x9d03cb48           0x28          40   
.text.mrb_const_get     0x9d03cb70           0x28          40   
.text.mrb_vm_const_set  0x9d03cb98           0x28          40   
.text.mrb_define_const  0x9d03cbc0           0x28          40   
.text.stack_clear       0x9d03cbe8           0x28          40   
.text.stack_copy        0x9d03cc10           0x28          40   
.text.envadjust         0x9d03cc38           0x28          40   
.text.array_copy        0x9d03cc60           0x28          40   
.text.ary_fill_with_nil 0x9d03cc88           0x28          40   
.text.mrb_debug_get_fil 0x9d03ccb0           0x28          40   
.text.NVMWriteWord      0x9d03ccd8           0x28          40   
.text.I2CSetSlaveAddres 0x9d03cd00           0x28          40   
.text.calloc            0x9d03cd28           0x28          40   
.text.memchr            0x9d03cd50           0x28          40   
.text.strcspn           0x9d03cd78           0x28          40   
.text.strspn            0x9d03cda0           0x28          40   
.text                   0x9d03cdc8           0x28          40  App's exec code 
.text.openOSCReceivePor 0x9d03cdf0           0x24          36   
.text.compareTypeTagAtI 0x9d03ce14           0x24          36   
.text.MACPutArray       0x9d03ce38           0x24          36   
.text.MACGetArray       0x9d03ce5c           0x24          36   
.text.MACMemCopyAsync   0x9d03ce80           0x24          36   
.text.LFSRSeedRand      0x9d03cea4           0x24          36   
.text.UDPClose          0x9d03cec8           0x24          36   
.text.UDPInit           0x9d03ceec           0x24          36   
.text.FindARPPktType    0x9d03cf10           0x24          36   
.text.USBHostMIDIRead   0x9d03cf34           0x24          36   
.text.USBHostMIDIWrite  0x9d03cf58           0x24          36   
.text.kh_del_mt         0x9d03cf7c           0x24          36   
.text.to_hash           0x9d03cfa0           0x24          36   
.text.to_ary            0x9d03cfc4           0x24          36   
.text.to_str            0x9d03cfe8           0x24          36   
.text.mrb_define_method 0x9d03d00c           0x24          36   
.text.unlink_heap_page  0x9d03d030           0x24          36   
.text.unlink_free_heap_ 0x9d03d054           0x24          36   
.text.gc_enable         0x9d03d078           0x24          36   
.text.gc_mark_gray_list 0x9d03d09c           0x24          36   
.text.final_marking_pha 0x9d03d0c0           0x24          36   
.text.mrb_hash_empty_p  0x9d03d0e4           0x24          36   
.text.to_hash           0x9d03d108           0x24          36   
.text.mrb_hash_ht_key   0x9d03d12c           0x24          36   
.text.mrb_hash_clear    0x9d03d150           0x24          36   
.text.kh_del_ht         0x9d03d174           0x24          36   
.text.true_and          0x9d03d198           0x24          36   
.text.false_or          0x9d03d1bc           0x24          36   
.text.false_xor         0x9d03d1e0           0x24          36   
.text.mrb_closure_new   0x9d03d204           0x24          36   
.text.str_decref        0x9d03d228           0x24          36   
.text.mrb_check_string_ 0x9d03d24c           0x24          36   
.text.mrb_str_to_f      0x9d03d270           0x24          36   
.text.iv_free           0x9d03d294           0x24          36   
.text.top_env           0x9d03d2b8           0x24          36   
.text.mrb_run           0x9d03d2dc           0x24          36   
.text.float_id          0x9d03d300           0x24          36   
.text.EthMIIMReadResult 0x9d03d324           0x24          36   
.text.I2CEnable         0x9d03d348           0x24          36   
.text.__unordsf2        0x9d03d36c           0x24          36   
.text.isinfl            0x9d03d390           0x24          36   
.text.sbrk              0x9d03d3b4           0x24          36   
.rodata.hid_rpt01.hid_r 0x9d03d3d8           0x20          32   
.text.ARPInit           0x9d03d3f8           0x20          32   
.text.SwapARPPacket     0x9d03d418           0x20          32   
.text.DHCPEnable        0x9d03d438           0x20          32   
.text.DHCPTempIPAddr    0x9d03d458           0x20          32   
.text.GetIPAddrFromInde 0x9d03d478           0x20          32   
.text.SwapIPHeader      0x9d03d498           0x20          32   
.text.UDPSetTxBuffer    0x9d03d4b8           0x20          32   
.text.USBHostCDC_Init_C 0x9d03d4d8           0x20          32   
.text.mrb_process_osc_p 0x9d03d4f8           0x20          32   
.text.gc_disable        0x9d03d518           0x20          32   
.text.mrb_hash_size_m   0x9d03d538           0x20          32   
.text.kh_clear_ht       0x9d03d558           0x20          32   
.text.mrb_obj_class_m   0x9d03d578           0x20          32   
.text.printstr          0x9d03d598           0x20          32   
.text.mrb_alloca_free   0x9d03d5b8           0x20          32   
.text.str_eql           0x9d03d5d8           0x20          32   
.text.mrb_str_intern    0x9d03d5f8           0x20          32   
.text.mrb_str_hash_m    0x9d03d618           0x20          32   
.text.iv_size           0x9d03d638           0x20          32   
.text.obj_iv_p          0x9d03d658           0x20          32   
.text.csym_i            0x9d03d678           0x20          32   
.text.mrb_vm_cv_get     0x9d03d698           0x20          32   
.rodata.m.6616.m        0x9d03d6b8           0x20          32   
.text.mrb_ary_decref    0x9d03d6d8           0x20          32   
.text.fix_to_f          0x9d03d6f8           0x20          32   
.text.EthRxSetBufferSiz 0x9d03d718           0x20          32   
.text.NVMErasePage      0x9d03d738           0x20          32   
.text.PORTSetPinsDigita 0x9d03d758           0x20          32   
.text.PORTSetPinsDigita 0x9d03d778           0x20          32   
.text.free              0x9d03d798           0x20          32   
.rodata                 0x9d03d7b8           0x1c          28  Read-only const 
.text.closeOSCSendPort  0x9d03d7d4           0x1c          28   
.text.closeOSCReceivePo 0x9d03d7f0           0x1c          28   
.text.closeDiscoverPort 0x9d03d80c           0x1c          28   
.text.clearOSCMessage   0x9d03d828           0x1c          28   
.text.isMacAddr_Effecti 0x9d03d844           0x1c          28   
.text.UDPSetRxBuffer    0x9d03d860           0x1c          28   
.text.ZeroconfStateMach 0x9d03d87c           0x1c          28   
.text.mrb_usb_host_task 0x9d03d898           0x1c          28   
.text.mrb_usb_host_init 0x9d03d8b4           0x1c          28   
.text.kh_destroy_mt     0x9d03d8d0           0x1c          28   
.text.mrb_class_get_und 0x9d03d8ec           0x1c          28   
.text.mrb_respond_to    0x9d03d908           0x1c          28   
.text.mrb_class_real    0x9d03d924           0x1c          28   
.text.mrb_module_new    0x9d03d940           0x1c          28   
.text.mrb_undef_method  0x9d03d95c           0x1c          28   
.text.exc_message       0x9d03d978           0x1c          28   
.text.gc_generational_m 0x9d03d994           0x1c          28   
.text.incremental_gc_un 0x9d03d9b0           0x1c          28   
.text.kh_destroy_ht     0x9d03d9cc           0x1c          28   
.text.mrb_obj_id_m      0x9d03d9e8           0x1c          28   
.text.mrb_obj_hash      0x9d03da04           0x1c          28   
.text.check_iv_name     0x9d03da20           0x1c          28   
.text.kh_destroy_st     0x9d03da3c           0x1c          28   
.text.bin_to_uint32     0x9d03da58           0x1c          28   
.text.allocf            0x9d03da74           0x1c          28   
.text.mrb_str_new       0x9d03da90           0x1c          28   
.text.kh_destroy_n2s    0x9d03daac           0x1c          28   
.text.mrb_intern_cstr   0x9d03dac8           0x1c          28   
.text.mrb_cv_set        0x9d03dae4           0x1c          28   
.text.uvenv             0x9d03db00           0x1c          28   
.rodata.msg.6824.msg    0x9d03db1c           0x1c          28   
.text.mrb_ary_new_capa  0x9d03db38           0x1c          28   
.text.rshift            0x9d03db54           0x1c          28   
.text.EthTxAcknowledgeB 0x9d03db70           0x1c          28   
.text.EthRxGetBuffer    0x9d03db8c           0x1c          28   
.text.INTRestoreInterru 0x9d03dba8           0x1c          28   
.text._stub_sbd_memlayo 0x9d03dbc4           0x1c          28   
.rodata                 0x9d03dbe0           0x18          24  Read-only const 
.text.getcSPI4          0x9d03dbf8           0x18          24   
.text.clearOSCPrefix    0x9d03dc10           0x18          24   
.text.isOSCGetReady     0x9d03dc28           0x18          24   
.text.isOSCPutReady     0x9d03dc40           0x18          24   
.text.isDiscoverPutRead 0x9d03dc58           0x18          24   
.rodata.msgSetI2cSlaveA 0x9d03dc70           0x18          24   
.text.MACCalcRxChecksum 0x9d03dc88           0x18          24   
.text.mDNSFetch         0x9d03dca0           0x18          24   
.text.mDNSAnnounce      0x9d03dcb8           0x18          24   
.text.USBHostCDC_ApiTra 0x9d03dcd0           0x18          24   
.text.mrb_fixnum_value  0x9d03dce8           0x18          24   
.text.mrb_usb_device_ta 0x9d03dd00           0x18          24   
.text.mrb_usb_device_in 0x9d03dd18           0x18          24   
.text.mrb_get_osc_packe 0x9d03dd30           0x18          24   
.text.mrb_flush_osc_mes 0x9d03dd48           0x18          24   
.text.mrb_clear_osc_mes 0x9d03dd60           0x18          24   
.text.USBHostCDC_Clear_ 0x9d03dd78           0x18          24   
.text.mrb_obj_value     0x9d03dd90           0x18          24   
.text.mrb_bool_value    0x9d03dda8           0x18          24   
.text.mrb_bob_not       0x9d03ddc0           0x18          24   
.text.mrb_define_class  0x9d03ddd8           0x18          24   
.text.mrb_obj_classname 0x9d03ddf0           0x18          24   
.text.mrb_fixnum_value  0x9d03de08           0x18          24   
.text.mrb_obj_value     0x9d03de20           0x18          24   
.text.mrb_bool_value    0x9d03de38           0x18          24   
.text.mrb_fixnum_value  0x9d03de50           0x18          24   
.text.mrb_bool_value    0x9d03de68           0x18          24   
.text.mrb_gc_mark       0x9d03de80           0x18          24   
.text.gc_start          0x9d03de98           0x18          24   
.text.mrb_write_barrier 0x9d03deb0           0x18          24   
.text.mrb_fixnum_value  0x9d03dec8           0x18          24   
.text.mrb_obj_value     0x9d03dee0           0x18          24   
.text.mrb_bool_value    0x9d03def8           0x18          24   
.text.mrb_hash_tbl      0x9d03df10           0x18          24   
.text.mrb_fixnum_value  0x9d03df28           0x18          24   
.text.mrb_obj_value     0x9d03df40           0x18          24   
.text.mrb_cptr_value    0x9d03df58           0x18          24   
.text.mrb_bool_value    0x9d03df70           0x18          24   
.text.mrb_float_value   0x9d03df88           0x18          24   
.text.mrb_obj_value     0x9d03dfa0           0x18          24   
.text.mrb_fixnum_value  0x9d03dfb8           0x18          24   
.text.mrb_bool_value    0x9d03dfd0           0x18          24   
.text.false_to_s        0x9d03dfe8           0x18          24   
.text.true_to_s         0x9d03e000           0x18          24   
.text.nil_inspect       0x9d03e018           0x18          24   
.text.mrb_to_int        0x9d03e030           0x18          24   
.text.mrb_fixnum_value  0x9d03e048           0x18          24   
.text.mrb_obj_value     0x9d03e060           0x30          48   
.rodata                 0x9d03e090           0x18          24  Read-only const 
.text.inspect_main      0x9d03e0a8           0x18          24   
.text.mrb_float_value   0x9d03e0c0           0x18          24   
.text.mrb_fixnum_value  0x9d03e0d8           0x18          24   
.text.mrb_obj_value     0x9d03e0f0           0x18          24   
.text.mrb_bool_value    0x9d03e108           0x18          24   
.text.mrb_str_empty_p   0x9d03e120           0x18          24   
.text.mrb_str_dup       0x9d03e138           0x18          24   
.text.mrb_fixnum_value  0x9d03e150           0x18          24   
.text.mrb_bool_value    0x9d03e168           0x18          24   
.text.mrb_check_intern_ 0x9d03e180           0x18          24   
.text.mrb_fixnum_value  0x9d03e198           0x18          24   
.text.mrb_obj_value     0x9d03e1b0           0x18          24   
.text.iv_new            0x9d03e1c8           0x18          24   
.text.iv_mark_i         0x9d03e1e0           0x18          24   
.text.mrb_const_defined 0x9d03e1f8           0x18          24   
.text.mrb_attr_get      0x9d03e210           0x18          24   
.text.mrb_fixnum_value  0x9d03e228           0x18          24   
.text.mrb_obj_value     0x9d03e240           0x18          24   
.text.mrb_cptr_value    0x9d03e258           0x18          24   
.text.mrb_fixnum_value  0x9d03e270           0x18          24   
.text.mrb_obj_value     0x9d03e288           0x18          24   
.text.mrb_bool_value    0x9d03e2a0           0x18          24   
.text.mrb_ary_empty_p   0x9d03e2b8           0x18          24   
.text.mrb_obj_value     0x9d03e2d0           0x18          24   
.text.mrb_float_value   0x9d03e2e8           0x18          24   
.text.mrb_fixnum_value  0x9d03e300           0x18          24   
.text.mrb_bool_value    0x9d03e318           0x18          24   
.text.mrb_obj_value     0x9d03e330           0x18          24   
.text.mrb_bool_value    0x9d03e348           0x18          24   
.text.mrb_range_end     0x9d03e360           0x18          24   
.text.CheKseg0CacheOn   0x9d03e378           0x18          24   
.text.INTClearFlag      0x9d03e390           0x18          24   
.text.getcSPI2          0x9d03e3a8           0x18          24   
.text.PORTResetPins     0x9d03e3c0           0x18          24   
.text                   0x9d03e3d8           0x18          24  App's exec code 
.text.tolower           0x9d03e3f0           0x18          24   
.text.toupper           0x9d03e408           0x18          24   
.text.memcpy            0x9d03e420           0x18          24   
.text.strcmp            0x9d03e438           0x18          24   
.text._printf_cdnopuxX  0x9d03e450           0x18          24   
.text.ieee754dp_isinf   0x9d03e468           0x18          24   
.text.resetAnalogFlag   0x9d03e480           0x14          20   
.rodata.device_dsc.devi 0x9d03e494           0x14          20   
.rodata.sd001.sd001     0x9d03e4a8           0x14          20   
.rodata.sd002.sd002     0x9d03e4bc           0x14          20   
.text.clearOSCHostName  0x9d03e4d0           0x14          20   
.rodata.msgSetDigitalDi 0x9d03e4e4           0x14          20   
.rodata.msgGetDigitalDi 0x9d03e4f8           0x14          20   
.rodata.msgSetDigitalDo 0x9d03e50c           0x14          20   
.rodata.msgGetDigitalDi 0x9d03e520           0x14          20   
.rodata.msgSetRemotePor 0x9d03e534           0x14          20   
.rodata.msgGetRemotePor 0x9d03e548           0x14          20   
.rodata.msgSwitchUsbMod 0x9d03e55c           0x14          20   
.rodata.msgDiscoverDevi 0x9d03e570           0x14          20   
.rodata.msgDiscoveredDe 0x9d03e584           0x14          20   
.text.MACSetReadPtrInRx 0x9d03e598           0x14          20   
.text.CalcIPBufferCheck 0x9d03e5ac           0x14          20   
.text.IPSetRxBuffer     0x9d03e5c0           0x14          20   
.text.mDNSResetCounters 0x9d03e5d4           0x14          20   
.text.USBHostCDCInitAdd 0x9d03e5e8           0x14          20   
.text.mrb_false_value   0x9d03e5fc           0x14          20   
.text.mrb_true_value    0x9d03e610           0x14          20   
.text.mrb_false_value   0x9d03e624           0x14          20   
.text.mrb_true_value    0x9d03e638           0x14          20   
.text.mrb_mod_dummy_vis 0x9d03e64c           0x14          20   
.text.mrb_define_module 0x9d03e660           0x14          20   
.text.mrb_obj_class     0x9d03e674           0x14          20   
.text.mrb_false_value   0x9d03e688           0x14          20   
.text.mrb_format        0x9d03e69c           0x14          20   
.text.mrb_make_exceptio 0x9d03e6b0           0x14          20   
.text.add_gray_list     0x9d03e6c4           0x14          20   
.text.gc_interval_ratio 0x9d03e6d8           0x14          20   
.text.gc_step_ratio_get 0x9d03e6ec           0x14          20   
.text.mrb_gc_protect    0x9d03e700           0x14          20   
.text.mrb_false_value   0x9d03e714           0x14          20   
.text.mrb_true_value    0x9d03e728           0x14          20   
.text.mrb_hash_to_hash  0x9d03e73c           0x14          20   
.text.mrb_hash_ht_hash_ 0x9d03e750           0x14          20   
.text.mrb_false_value   0x9d03e764           0x14          20   
.text.mrb_obj_is_instan 0x9d03e778           0x14          20   
.text.read_section_line 0x9d03e78c           0x14          20   
.text.mrb_false_value   0x9d03e7a0           0x14          20   
.text.mrb_true_value    0x9d03e7b4           0x14          20   
.text.mrb_str_cat2      0x9d03e7c8           0x14          20   
.text.nil_to_s          0x9d03e7dc           0x14          20   
.text.mrb_obj_equal     0x9d03e7f0           0x14          20   
.text.mrb_Integer       0x9d03e804           0x14          20   
.text.mrb_open          0x9d03e818           0x14          20   
.text.mrb_irep_decref   0x9d03e82c           0x14          20   
.text.mrb_str_bytesize  0x9d03e840           0x14          20   
.text.mrb_str_size      0x9d03e854           0x14          20   
.text.mrb_undef_value   0x9d03e868           0x14          20   
.text.sym_to_sym        0x9d03e87c           0x14          20   
.text.mrb_intern_str    0x9d03e890           0x14          20   
.text.mrb_undef_value   0x9d03e8a4           0x14          20   
.text.mark_tbl          0x9d03e8b8           0x14          20   
.text.mrb_str_cat2      0x9d03e8cc           0x14          20   
.text.mrb_obj_iv_define 0x9d03e8e0           0x14          20   
.text.mrb_cv_get        0x9d03e8f4           0x14          20   
.text.mrb_false_value   0x9d03e908           0x14          20   
.text.mrb_true_value    0x9d03e91c           0x14          20   
.text.mrb_ary_size      0x9d03e930           0x14          20   
.text.mrb_true_value    0x9d03e944           0x14          20   
.text.flo_to_f          0x9d03e958           0x14          20   
.text.int_to_i          0x9d03e96c           0x14          20   
.text.fix_rev           0x9d03e980           0x14          20   
.text.flo_to_s          0x9d03e994           0x14          20   
.text.mrb_false_value   0x9d03e9a8           0x14          20   
.text.mrb_true_value    0x9d03e9bc           0x14          20   
.text.mrb_range_beg     0x9d03e9d0           0x14          20   
.text.mrb_range_excl    0x9d03e9e4           0x14          20   
.text.mrb_range_each    0x9d03e9f8           0x14          20   
.text.mrb_init_mrblib   0x9d03ea0c           0x14          20   
.text.mrb_init_comparab 0x9d03ea20           0x14          20   
.text.mrb_init_enumerab 0x9d03ea34           0x14          20   
.text.EthRxFiltersHTSet 0x9d03ea48           0x14          20   
.rodata                 0x9d03ea5c           0x14          20  Read-only const 
.text.memset            0x9d03ea70           0x14          20   
.text.strchr            0x9d03ea84           0x14          20   
.text.strtod            0x9d03ea98           0x14          20   
.text.setAnalogEnable   0x9d03eaac           0x10          16   
.text.getAnalogEnable   0x9d03eabc           0x10          16   
.text.setAnalogType     0x9d03eacc           0x10          16   
.text.getAnalogType     0x9d03eadc           0x10          16   
.text.getAnalogFlag     0x9d03eaec           0x10          16   
.text.getAnPortDioType  0x9d03eafc           0x10          16   
.text.getPwmPortDioType 0x9d03eb0c           0x10          16   
.text.getDigitalPortDio 0x9d03eb1c           0x10          16   
.text.setRemoteIpAtInde 0x9d03eb2c           0x10          16   
.text.getRemoteIpAtInde 0x9d03eb3c           0x10          16   
.rodata.msgOnboardLed.m 0x9d03eb4c           0x10          16   
.rodata.msgOnboardSw1.m 0x9d03eb5c           0x10          16   
.rodata.msgSetPortIO.ms 0x9d03eb6c           0x10          16   
.rodata.msgGetPortIO.ms 0x9d03eb7c           0x10          16   
.rodata.msgSetPortOut.m 0x9d03eb8c           0x10          16   
.rodata.msgGetPortIn.ms 0x9d03eb9c           0x10          16   
.rodata.msgSetAdcEnable 0x9d03ebac           0x10          16   
.rodata.msgGetAdcEnable 0x9d03ebbc           0x10          16   
.rodata.msgSetAdcType.m 0x9d03ebcc           0x10          16   
.rodata.msgGetAdcType.m 0x9d03ebdc           0x10          16   
.rodata.msgSetAdcDio.ms 0x9d03ebec           0x10          16   
.rodata.msgGetAdcDio.ms 0x9d03ebfc           0x10          16   
.rodata.msgSetAdcDo.msg 0x9d03ec0c           0x10          16   
.rodata.msgGetAdcDi.msg 0x9d03ec1c           0x10          16   
.rodata.msgSetPwmEnable 0x9d03ec2c           0x10          16   
.rodata.msgGetPwmEnable 0x9d03ec3c           0x10          16   
.rodata.msgSetPwmFreq.m 0x9d03ec4c           0x10          16   
.rodata.msgGetPwmFreq.m 0x9d03ec5c           0x10          16   
.rodata.msgSetPwmDuty.m 0x9d03ec6c           0x10          16   
.rodata.msgGetPwmDuty.m 0x9d03ec7c           0x10          16   
.rodata.msgSetPwmDio.ms 0x9d03ec8c           0x10          16   
.rodata.msgGetPwmDio.ms 0x9d03ec9c           0x10          16   
.rodata.msgSetPwmDo.msg 0x9d03ecac           0x10          16   
.rodata.msgGetPwmDi.msg 0x9d03ecbc           0x10          16   
.rodata.msgDigitalDio.m 0x9d03eccc           0x10          16   
.rodata.msgDigitalDi.ms 0x9d03ecdc           0x10          16   
.rodata.msgSetSpiConfig 0x9d03ecec           0x10          16   
.rodata.msgDisableSpi.m 0x9d03ecfc           0x10          16   
.rodata.msgSetSpiData.m 0x9d03ed0c           0x10          16   
.rodata.msgGetSpiData.m 0x9d03ed1c           0x10          16   
.rodata.msgSetSpiDio.ms 0x9d03ed2c           0x10          16   
.rodata.msgGetSpiDio.ms 0x9d03ed3c           0x10          16   
.rodata.msgSetSpiDo.msg 0x9d03ed4c           0x10          16   
.rodata.msgGetSpiDi.msg 0x9d03ed5c           0x10          16   
.rodata.msgSetI2cConfig 0x9d03ed6c           0x10          16   
.rodata.msgSetI2cFreq.m 0x9d03ed7c           0x10          16   
.rodata.msgSetI2cData.m 0x9d03ed8c           0x10          16   
.rodata.msgGetI2cData.m 0x9d03ed9c           0x10          16   
.rodata.msgSetRemoteIp. 0x9d03edac           0x10          16   
.rodata.msgGetRemoteIp. 0x9d03edbc           0x10          16   
.rodata.msgRemotePort.m 0x9d03edcc           0x10          16   
.rodata.msgSetHostName. 0x9d03eddc           0x10          16   
.rodata.msgGetHostName. 0x9d03edec           0x10          16   
.rodata.msgGetHostIp.ms 0x9d03edfc           0x10          16   
.rodata.msgGetHostMac.m 0x9d03ee0c           0x10          16   
.rodata.msgSetHostPort. 0x9d03ee1c           0x10          16   
.rodata.msgGetHostPort. 0x9d03ee2c           0x10          16   
.rodata.msgGetUsbMode.m 0x9d03ee3c           0x10          16   
.rodata.msgWriteNvmData 0x9d03ee4c           0x10          16   
.rodata.msgReadNvmData. 0x9d03ee5c           0x10          16   
.rodata.msgClearNvmData 0x9d03ee6c           0x10          16   
.rodata.msgConfiguratio 0x9d03ee7c           0x10          16   
.rodata.msgGetVersion.m 0x9d03ee8c           0x10          16   
.text.DHCPIsBound       0x9d03ee9c           0x10          16   
.text.DHCPIsServerDetec 0x9d03eeac           0x10          16   
.text.MACGetTxBaseAddr  0x9d03eebc           0x10          16   
.text.MACPut            0x9d03eecc           0x10          16   
.text.MACGet            0x9d03eedc           0x10          16   
.text.swaps             0x9d03eeec           0x10          16   
.text.mrb_nil_value     0x9d03eefc           0x10          16   
.text.USBCB_SOF_Handler 0x9d03ef0c           0x10          16   
.text.mrb_symbol_value  0x9d03ef1c           0x10          16   
.text.mrb_nil_value     0x9d03ef2c           0x10          16   
.text.kh_fill_flags     0x9d03ef3c           0x10          16   
.text.mrb_bob_init      0x9d03ef4c           0x10          16   
.text.mrb_class_get     0x9d03ef5c           0x10          16   
.text.mrb_define_class_ 0x9d03ef6c           0x10          16   
.text.mrb_symbol_value  0x9d03ef7c           0x10          16   
.text.mrb_nil_value     0x9d03ef8c           0x20          32   
.text.link_heap_page    0x9d03efac           0x10          16   
.text.link_free_heap_pa 0x9d03efbc           0x10          16   
.text.prepare_increment 0x9d03efcc           0x10          16   
.text.mrb_free          0x9d03efdc           0x10          16   
.text.mrb_malloc        0x9d03efec           0x10          16   
.text.mrb_nil_value     0x9d03effc           0x10          16   
.text.kh_fill_flags     0x9d03f00c           0x10          16   
.text.mrb_gc_free_hash  0x9d03f01c           0x10          16   
.text.mrb_hash_modify   0x9d03f02c           0x10          16   
.text.mrb_symbol_value  0x9d03f03c           0x10          16   
.text.mrb_nil_value     0x9d03f04c           0x10          16   
.text.kh_fill_flags     0x9d03f05c           0x10          16   
.text.mrb_false         0x9d03f06c           0x10          16   
.text.basic_obj_respond 0x9d03f07c           0x10          16   
.text.mrb_nil_value     0x9d03f08c           0x10          16   
.text.read_section_irep 0x9d03f09c           0x10          16   
.text.mrb_load_irep     0x9d03f0ac           0x10          16   
.rodata.msg.6151.msg    0x9d03f0bc           0x10          16   
.text.mrb_nil_value     0x9d03f0cc           0x10          16   
.text.mrb_true          0x9d03f0dc           0x10          16   
.text.true_or           0x9d03f0ec           0x10          16   
.text.false_and         0x9d03f0fc           0x10          16   
.text.mrb_symbol_value  0x9d03f10c           0x10          16   
.text.mrb_nil_value     0x9d03f11c           0x10          16   
.text.mrb_symbol_value  0x9d03f12c           0x10          16   
.text.mrb_nil_value     0x9d03f13c           0x10          16   
.text.kh_fill_flags     0x9d03f14c           0x10          16   
.text.mrb_init_symtbl   0x9d03f15c           0x10          16   
.text.mrb_symbol_value  0x9d03f16c           0x10          16   
.text.mrb_nil_value     0x9d03f17c           0x10          16   
.text.mrb_gc_free_gv    0x9d03f18c           0x10          16   
.text.mrb_gc_free_iv    0x9d03f19c           0x10          16   
.text.mrb_vm_special_ge 0x9d03f1ac           0x10          16   
.text.mrb_cv_defined    0x9d03f1bc           0x10          16   
.text.mrb_symbol_value  0x9d03f1cc           0x10          16   
.text.mrb_nil_value     0x9d03f1dc           0x20          32   
.text.mrb_ary_new       0x9d03f1fc           0x10          16   
.text.mrb_ary_replace   0x9d03f20c           0x10          16   
.text.mrb_ary_concat    0x9d03f21c           0x10          16   
.text.mrb_nil_value     0x9d03f22c           0x10          16   
.rodata                 0x9d03f23c           0x10          16  Read-only const 
.text.I2CConfigure      0x9d03f24c           0x10          16   
.rodata                 0x9d03f25c           0x10          16  Read-only const 
.text.ieee754sp_isnan   0x9d03f26c           0x10          16   
.text.abort             0x9d03f27c           0x10          16   
.text.strlen            0x9d03f28c           0x10          16   
.text.builddp           0x9d03f29c           0x10          16   
.rodata.USB_SD_Ptr.USB_ 0x9d03f2ac            0xc          12   
.text.getArgumentsLengt 0x9d03f2b8            0xc          12   
.rodata.msgPortIO.msgPo 0x9d03f2c4            0xc          12   
.rodata.msgPortIn.msgPo 0x9d03f2d0            0xc          12   
.rodata.msgAdcEnable.ms 0x9d03f2dc            0xc          12   
.rodata.msgAdcType.msgA 0x9d03f2e8            0xc          12   
.rodata.msgAdcDio.msgAd 0x9d03f2f4            0xc          12   
.rodata.msgAdcDi.msgAdc 0x9d03f300            0xc          12   
.rodata.msgPwmEnable.ms 0x9d03f30c            0xc          12   
.rodata.msgPwmFreq.msgP 0x9d03f318            0xc          12   
.rodata.msgPwmDuty.msgP 0x9d03f324            0xc          12   
.rodata.msgPwmDio.msgPw 0x9d03f330            0xc          12   
.rodata.msgPwmDi.msgPwm 0x9d03f33c            0xc          12   
.rodata.msgSpiData.msgS 0x9d03f348            0xc          12   
.rodata.msgSpiDio.msgSp 0x9d03f354            0xc          12   
.rodata.msgSpiDi.msgSpi 0x9d03f360            0xc          12   
.rodata.msgEnableI2c.ms 0x9d03f36c            0xc          12   
.rodata.msgI2cData.msgI 0x9d03f378            0xc          12   
.rodata.msgSetNote.msgS 0x9d03f384            0xc          12   
.rodata.msgSetData.msgS 0x9d03f390            0xc          12   
.rodata.msgSetPrefix.ms 0x9d03f39c            0xc          12   
.rodata.msgGetPrefix.ms 0x9d03f3a8            0xc          12   
.rodata.msgRemoteIp.msg 0x9d03f3b4            0xc          12   
.rodata.msgHostName.msg 0x9d03f3c0            0xc          12   
.rodata.msgHostIp.msgHo 0x9d03f3cc            0xc          12   
.rodata.msgHostMac.msgH 0x9d03f3d8            0xc          12   
.rodata.msgHostPort.msg 0x9d03f3e4            0xc          12   
.rodata.msgUsbMode.msgU 0x9d03f3f0            0xc          12   
.rodata.msgNvmData.msgN 0x9d03f3fc            0xc          12   
.rodata.msgSoftReset.ms 0x9d03f408            0xc          12   
.rodata.msgVersion.msgV 0x9d03f414            0xc          12   
.text._MacAllocCallback 0x9d03f420            0xc          12   
.text.MACIsLinked       0x9d03f42c            0xc          12   
.text.MACSetWritePtr    0x9d03f438            0xc          12   
.text.MACSetReadPtr     0x9d03f444            0xc          12   
.text.zcll_rand         0x9d03f450            0xc          12   
.text.ARPAction         0x9d03f45c            0xc          12   
.text.UDPPUT_LOCAL      0x9d03f468            0xc          12   
.text.USBCBCheckOtherRe 0x9d03f474            0xc          12   
.text.kh_init_mt        0x9d03f480            0xc          12   
.text.mrb_gc_mark_mt_si 0x9d03f48c            0xc          12   
.text.mrb_gc_free_mt    0x9d03f498            0xc          12   
.text.kh_init_ht        0x9d03f4a4            0xc          12   
.text.mrb_gc_mark_hash_ 0x9d03f4b0            0xc          12   
.text.kh_init_st        0x9d03f4bc            0xc          12   
.text.bin_to_uint16     0x9d03f4c8            0xc          12   
.text.str_with_class    0x9d03f4d4            0xc          12   
.text.kh_init_n2s       0x9d03f4e0            0xc          12   
.text.mrb_intern        0x9d03f4ec            0xc          12   
.text.mrb_intern_static 0x9d03f4f8            0xc          12   
.text.mrb_gc_mark_gv    0x9d03f504            0xc          12   
.text.mrb_gc_mark_iv    0x9d03f510            0xc          12   
.text.mrb_gc_mark_iv_si 0x9d03f51c            0xc          12   
.text.mrb_longjmp       0x9d03f528            0xc          12   
.rodata.lead.6452.lead  0x9d03f534            0xc          12   
.rodata                 0x9d03f540           0x18          24  Read-only const 
.text.EthRxAcknowledgeB 0x9d03f558            0xc          12   
.text.EthRxFiltersSet   0x9d03f564            0xc          12   
.text.EthRxFiltersClr   0x9d03f570            0xc          12   
.text.setInitReceiveFla 0x9d03f57c            0x8           8   
.text.setInitSendFlag   0x9d03f584            0x8           8   
.text.getInitSendFlag   0x9d03f58c            0x8           8   
.text.setInitDiscoverFl 0x9d03f594            0x8           8   
.text.getInitDiscoverFl 0x9d03f59c            0x8           8   
.text.setChCompletedFla 0x9d03f5a4            0x8           8   
.text.getChCompletedFla 0x9d03f5ac            0x8           8   
.text.getRemoteIp       0x9d03f5b4            0x8           8   
.text.setRemotePort     0x9d03f5bc            0x8           8   
.text.getRemotePort     0x9d03f5c4            0x8           8   
.text.setLocalPort      0x9d03f5cc            0x8           8   
.text.getLocalPort      0x9d03f5d4            0x8           8   
.text.getOSCPrefix      0x9d03f5dc            0x8           8   
.text.getOSCHostName    0x9d03f5e4            0x8           8   
.rodata.msgAdc.msgAdc   0x9d03f5ec            0x8           8   
.rodata.midiPrefix.midi 0x9d03f5f4            0x8           8   
.rodata.msgNote.msgNote 0x9d03f5fc            0x8           8   
.rodata.msgSetCc.msgSet 0x9d03f604            0x8           8   
.rodata.msgSetPc.msgSet 0x9d03f60c            0x8           8   
.rodata.msgSetKp.msgSet 0x9d03f614            0x8           8   
.rodata.msgSetCp.msgSet 0x9d03f61c            0x8           8   
.rodata.msgSetPb.msgSet 0x9d03f624            0x8           8   
.rodata.cdcPrefix.cdcPr 0x9d03f62c            0x8           8   
.rodata.msgData.msgData 0x9d03f634            0x8           8   
.rodata.sysPrefix.sysPr 0x9d03f63c            0x8           8   
.rodata.msgPrefix.msgPr 0x9d03f644            0x8           8   
.rodata.msgDebug.msgDeb 0x9d03f64c            0x8           8   
.rodata.msgError.msgErr 0x9d03f654            0x8           8   
.rodata.SerializedMACAd 0x9d03f65c            0x8           8   
.text.EthPhyMIIMClock   0x9d03f664            0x8           8   
.text._TxAckCallback    0x9d03f66c            0x8           8   
.rodata.C.69.28583.C.69 0x9d03f674            0x8           8   
.rodata.C.1.28585.C.1   0x9d03f67c            0x8           8   
.text._general_exceptio 0x9d03f684            0x8           8   
.rodata.__m_either.__m_ 0x9d03f68c            0x8           8   
.rodata.__m_del.__m_del 0x9d03f694            0x8           8   
.rodata.__m_empty.__m_e 0x9d03f69c            0x8           8   
.rodata.__m_either.__m_ 0x9d03f6a4            0x8           8   
.rodata.__m_del.__m_del 0x9d03f6ac            0x8           8   
.rodata.__m_empty.__m_e 0x9d03f6b4            0x8           8   
.rodata.__m_either.__m_ 0x9d03f6bc            0x8           8   
.rodata.__m_del.__m_del 0x9d03f6c4            0x8           8   
.rodata.__m_empty.__m_e 0x9d03f6cc            0x8           8   
.rodata                 0x9d03f6d4            0x8           8  Read-only const 
.text.mrb_proc_iseq     0x9d03f6dc            0x8           8   
.text.mrb_irep_incref   0x9d03f6e4            0x8           8   
.rodata.__m_either.__m_ 0x9d03f6ec            0x8           8   
.rodata.__m_del.__m_del 0x9d03f6f4            0x8           8   
.rodata.__m_empty.__m_e 0x9d03f6fc            0x8           8   
.text.mrb_vm_special_se 0x9d03f704            0x8           8   
.text.ReadCoreTimer     0x9d03f70c            0x8           8   
.text.INTDisableInterru 0x9d03f714            0x8           8   
.text.INTEnableInterrup 0x9d03f71c            0x8           8   
.text._bootstrap_except 0x9d03f724            0x8           8   
.rodata.USB_CD_Ptr.USB_ 0x9d03f72c            0x4           4   
.rodata.msgCc.msgCc     0x9d03f730            0x4           4   
.rodata.msgPc.msgPc     0x9d03f734            0x4           4   
.rodata.msgKp.msgKp     0x9d03f738            0x4           4   
.rodata.msgCp.msgCp     0x9d03f73c            0x4           4   
.rodata.msgPb.msgPb     0x9d03f740            0x4           4   
.text.EthPhyMIIMAddress 0x9d03f744            0x4           4   
.text.MACIsMemCopyDone  0x9d03f748            0x4           4   
.text.USBHostCDCTasks   0x9d03f74c            0x4           4   
.text.mrb_gc_arena_save 0x9d03f750            0x4           4   
.text.bin_to_uint8      0x9d03f754            0x4           4   
.text.offset_crc_body   0x9d03f758            0x4           4   
.text.mrb_final_core    0x9d03f75c            0x4           4   
.text._on_reset         0x9d03f760            0x4           4   
.text._on_bootstrap     0x9d03f764            0x4           4   
.text._cleanup          0x9d03f768            0x4           4   
.text.lseek             0x9d03f76c            0x4           4   
      Total kseg0_program_mem used  :     0x3b2e0      242400  47.5% of 0x7cb70

kseg0 Boot-Memory Usage
section                    address  length [bytes]      (dec)  Description
-------                 ----------  -------------------------  -----------
         Total kseg0_boot_mem used  :           0           0  

Exception-Memory Usage 
section                    address  length [bytes]      (dec)  Description
-------                 ----------  -------------------------  -----------
.app_excpt              0x9d003180           0x10          16  General-Exception 
.vector_4               0x9d003280            0x8           8  Interrupt Vector 4 
.vector_20              0x9d003480            0x8           8  Interrupt Vector 20 
.vector_45              0x9d0037a0            0x8           8  Interrupt Vector 45 
          Total exception_mem used  :        0x28          40  1.0% of 0x1000

kseg1 Boot-Memory Usage
section                    address  length [bytes]      (dec)  Description
-------                 ----------  -------------------------  -----------
.reset                  0x9d004000          0x1f4         500  Reset handler 
.bev_excpt              0x9d004380           0x10          16  BEV-Exception 
         Total kseg1_boot_mem used  :       0x204         516  44.2% of 0x490
        --------------------------------------------------------------------------
         Total Program Memory used  :     0x3b50c      242956  47.1% of 0x7e000
        --------------------------------------------------------------------------


kseg1 Data-Memory Usage
section                    address  length [bytes]      (dec)  Description
-------                 ----------  -------------------------  -----------
.eh_frame               0xa0000000           0x40          64   
.persist                0xa0000040            0x4           4   
.sdata                  0xa0000044           0x34          52  Small init data 
.sbss                   0xa0000078          0x28c         652  Small uninit data 
.bss.gResponderCtx.gRes 0xa0000304           0xcc         204   
.data.usbClientDrvTable 0xa00003d0           0x30          48   
.bss                    0xa0000400          0x690        1680  Uninitialized data 
.bss.udpPacket.udpPacke 0xa0000a90         0x2400        9216   
.bss._RxBuffers._RxBuff 0xa0002e90         0x2000        8192   
.bss._TxDescriptors._Tx 0xa0004e90          0xbe0        3040   
.bss.analog.analog      0xa0005a70          0x380         896   
.bss.gSDCtx.gSDCtx      0xa0005df0          0x21c         540   
.bss.bundleData.bundleD 0xa000600c          0x200         512   
.bss.name.22407.name    0xa000620c          0x100         256   
.bss.oscPacket.oscPacke 0xa000630c           0xc0         192   
.bss.sndOSCData.sndOSCD 0xa00063cc           0xa0         160   
.data                   0xa000646c          0x12c         300  Initialized data 
.bss.gHostCtx.gHostCtx  0xa0006598           0x6c         108   
.bss.rcvArgumentsStartI 0xa0006604           0x50          80   
.bss.rcvArgumentsIndexL 0xa0006654           0x50          80   
.bss.usbEventQueue.usbE 0xa00066a4           0x4c          76   
.bss.rcvAddressStrings. 0xa00066f0           0x40          64   
.bss                    0xa0006730           0x40          64  Uninitialized data 
.bss.currentValue.curre 0xa0006770           0x38          56   
.bss.prevValue.prevValu 0xa00067a8           0x38          56   
.bss.currentDirectionVa 0xa00067e0           0x38          56   
.bss.currentAnalog.curr 0xa0006818           0x38          56   
.bss.prevAnalog.prevAna 0xa0006850           0x38          56   
.bss.analogSendFlag.ana 0xa0006888           0x38          56   
.bss.analogEnable.analo 0xa00068c0           0x38          56   
.bss.boundaryValue.boun 0xa00068f8           0x38          56   
.bss.boundaryPosition.b 0xa0006930           0x38          56   
.bss.DHCPClient.DHCPCli 0xa0006968           0x2c          44   
.bss.rcvArgsTypeArray.r 0xa0006994           0x28          40   
.bss.usbDeviceInfo.usbD 0xa00069bc           0x20          32   
.data                   0xa00069dc           0x1c          28  Initialized data 
.bss                    0xa00069f8           0x1c          28  Uninitialized data 
.data.usbTPL.usbTPL     0xa0006a14           0x18          24   
.bss                    0xa0006a2c           0x18          24  Uninitialized data 
.data.hostName.hostName 0xa0006a44           0x14          20   
.bss.analogType.analogT 0xa0006a58           0x10          16   
.bss.count.count        0xa0006a68           0x10          16   
.bss.ioAnPort.ioAnPort  0xa0006a78           0x10          16   
.bss.reg_apps.reg_apps  0xa0006a88           0x10          16   
.bss                    0xa0006a98           0x10          16  Uninitialized data 
.bss.Cache.Cache        0xa0006aa8            0xc          12   
.bss.Target.22089.Targe 0xa0006ab4            0xc          12   
.bss.mDNSRemote.mDNSRem 0xa0006ac0            0xc          12   
.data.math_errhandling_ 0xa0006acc            0x4           4   
.bss                    0xa0006ad0            0x4           4  Uninitialized data 
         Total kseg1_data_mem used  :      0x6ad4       27348  20.9% of 0x20000
        --------------------------------------------------------------------------
            Total Data Memory used  :      0x6ad4       27348  20.9% of 0x20000
        --------------------------------------------------------------------------


Dynamic Data-Memory Reservation
section                    address  length [bytes]      (dec)  Description
-------                 ----------  -------------------------  -----------
heap                    0xa0006ad8        0x19000      102400  Reserved for heap 
stack                   0xa001faf0          0x500        1280  Reserved for stack 

        --------------------------------------------------------------------------

Discarded input sections

 .data          0x00000000        0x0 c:/program files (x86)/microchip/xc32/v1.22/bin/../lib/gcc/pic32mx/4.5.2/../../../../pic32mx/lib/mips16/crt0.o
 .bss           0x00000000        0x0 c:/program files (x86)/microchip/xc32/v1.22/bin/../lib/gcc/pic32mx/4.5.2/../../../../pic32mx/lib/mips16/crt0.o
 .text          0x00000000        0x0 build/default/production/_ext/454704213/analog.o
 .data          0x00000000        0x0 build/default/production/_ext/454704213/analog.o
 .bss           0x00000000        0x0 build/default/production/_ext/454704213/analog.o
 .reginfo       0x00000000       0x18 build/default/production/_ext/454704213/analog.o
 .text.setAnalogCurve
                0x00000000       0x10 build/default/production/_ext/454704213/analog.o
 .text.getAnalogCurve
                0x00000000       0x10 build/default/production/_ext/454704213/analog.o
 .text.sendInfinium
                0x00000000       0xb4 build/default/production/_ext/454704213/analog.o
 .text.sendCFX2
                0x00000000      0x2f0 build/default/production/_ext/454704213/analog.o
 .bss.analogCurve.analogCurve
                0x00000000       0x38 build/default/production/_ext/454704213/analog.o
 .text          0x00000000        0x0 build/default/production/_ext/454704213/iosetting.o
 .data          0x00000000        0x0 build/default/production/_ext/454704213/iosetting.o
 .bss           0x00000000        0x0 build/default/production/_ext/454704213/iosetting.o
 .reginfo       0x00000000       0x18 build/default/production/_ext/454704213/iosetting.o
 .text.sendSpiThreeWord
                0x00000000       0x7c build/default/production/_ext/454704213/iosetting.o
 .text          0x00000000        0x0 build/default/production/_ext/454704213/TimeDelay.o
 .data          0x00000000        0x0 build/default/production/_ext/454704213/TimeDelay.o
 .bss           0x00000000        0x0 build/default/production/_ext/454704213/TimeDelay.o
 .reginfo       0x00000000       0x18 build/default/production/_ext/454704213/TimeDelay.o
 .text          0x00000000        0x0 build/default/production/_ext/454704213/usb_config.o
 .data          0x00000000        0x0 build/default/production/_ext/454704213/usb_config.o
 .bss           0x00000000        0x0 build/default/production/_ext/454704213/usb_config.o
 .reginfo       0x00000000       0x18 build/default/production/_ext/454704213/usb_config.o
 .text          0x00000000        0x0 build/default/production/_ext/454704213/usb_descriptors.o
 .data          0x00000000        0x0 build/default/production/_ext/454704213/usb_descriptors.o
 .bss           0x00000000        0x0 build/default/production/_ext/454704213/usb_descriptors.o
 .reginfo       0x00000000       0x18 build/default/production/_ext/454704213/usb_descriptors.o
 .text          0x00000000        0x0 build/default/production/_ext/454704213/osc.o
 .data          0x00000000        0x0 build/default/production/_ext/454704213/osc.o
 .bss           0x00000000        0x0 build/default/production/_ext/454704213/osc.o
 .reginfo       0x00000000       0x18 build/default/production/_ext/454704213/osc.o
 .text.getInitReceiveFlag
                0x00000000        0x8 build/default/production/_ext/454704213/osc.o
 .text.isOSCSendPortOpened
                0x00000000       0x14 build/default/production/_ext/454704213/osc.o
 .text.isOSCReceivePortOpened
                0x00000000       0x14 build/default/production/_ext/454704213/osc.o
 .text.isDiscoverPortOpened
                0x00000000       0x14 build/default/production/_ext/454704213/osc.o
 .text.getBooleanArgumentAtIndex
                0x00000000       0x24 build/default/production/_ext/454704213/osc.o
 .rodata.msgLatticePadConnectedNum.msgLatticePadConnectedNum
                0x00000000       0x14 build/default/production/_ext/454704213/osc.o
 .rodata.msgSetLatticePadConnectedNum.msgSetLatticePadConnectedNum
                0x00000000       0x18 build/default/production/_ext/454704213/osc.o
 .rodata.msgGetLatticePadConnectedNum.msgGetLatticePadConnectedNum
                0x00000000       0x18 build/default/production/_ext/454704213/osc.o
 .rodata.msgLatticePadPinSelect.msgLatticePadPinSelect
                0x00000000       0x18 build/default/production/_ext/454704213/osc.o
 .rodata.msgLatticePad.msgLatticePad
                0x00000000       0x10 build/default/production/_ext/454704213/osc.o
 .rodata.msgLatticeLedDrvPinSelect.msgLatticeLedDrvPinSelect
                0x00000000       0x20 build/default/production/_ext/454704213/osc.o
 .rodata.msgSetLatticeLed.msgSetLatticeLed
                0x00000000       0x14 build/default/production/_ext/454704213/osc.o
 .rodata.msgSetLatticeLedColumn.msgSetLatticeLedColumn
                0x00000000       0x18 build/default/production/_ext/454704213/osc.o
 .rodata.msgSetLatticeLedRow.msgSetLatticeLedRow
                0x00000000       0x18 build/default/production/_ext/454704213/osc.o
 .rodata.msgSetLatticeLedAll.msgSetLatticeLedAll
                0x00000000       0x18 build/default/production/_ext/454704213/osc.o
 .rodata.msgLatticeLedClear.msgLatticeLedClear
                0x00000000       0x14 build/default/production/_ext/454704213/osc.o
 .rodata.msgLatticeLedIntensity.msgLatticeLedIntensity
                0x00000000       0x18 build/default/production/_ext/454704213/osc.o
 .rodata.msgGetLatticeLedIntensity.msgGetLatticeLedIntensity
                0x00000000       0x1c build/default/production/_ext/454704213/osc.o
 .rodata.msgLatticeLedIntensityAll.msgLatticeLedIntensityAll
                0x00000000       0x1c build/default/production/_ext/454704213/osc.o
 .rodata.msgGetLatticeLedIntensityAll.msgGetLatticeLedIntensityAll
                0x00000000       0x20 build/default/production/_ext/454704213/osc.o
 .rodata.msgLatticeRgbDrvPinSelect.msgLatticeRgbDrvPinSelect
                0x00000000       0x20 build/default/production/_ext/454704213/osc.o
 .rodata.msgLatticeRgbConnectedNum.msgLatticeRgbConnectedNum
                0x00000000       0x14 build/default/production/_ext/454704213/osc.o
 .rodata.msgSetLatticeRgbConnectedNum.msgSetLatticeRgbConnectedNum
                0x00000000       0x18 build/default/production/_ext/454704213/osc.o
 .rodata.msgGetLatticeRgbConnectedNum.msgGetLatticeRgbConnectedNum
                0x00000000       0x18 build/default/production/_ext/454704213/osc.o
 .rodata.msgLatticeRgbSize.msgLatticeRgbSize
                0x00000000       0x14 build/default/production/_ext/454704213/osc.o
 .rodata.msgSetLatticeRgbSize.msgSetLatticeRgbSize
                0x00000000       0x18 build/default/production/_ext/454704213/osc.o
 .rodata.msgGetLatticeRgbSize.msgGetLatticeRgbSize
                0x00000000       0x18 build/default/production/_ext/454704213/osc.o
 .rodata.msgSetLatticeRgb.msgSetLatticeRgb
                0x00000000       0x14 build/default/production/_ext/454704213/osc.o
 .rodata.msgSetLatticeRgbColumn.msgSetLatticeRgbColumn
                0x00000000       0x18 build/default/production/_ext/454704213/osc.o
 .rodata.msgSetLatticeRgbRow.msgSetLatticeRgbRow
                0x00000000       0x18 build/default/production/_ext/454704213/osc.o
 .rodata.msgSetLatticeRgbAll.msgSetLatticeRgbAll
                0x00000000       0x18 build/default/production/_ext/454704213/osc.o
 .rodata.msgLatticeRgbClear.msgLatticeRgbClear
                0x00000000       0x14 build/default/production/_ext/454704213/osc.o
 .rodata.msgLatticeRgbIntensity.msgLatticeRgbIntensity
                0x00000000       0x18 build/default/production/_ext/454704213/osc.o
 .rodata.msgGetLatticeRgbIntensity.msgGetLatticeRgbIntensity
                0x00000000       0x1c build/default/production/_ext/454704213/osc.o
 .rodata.msgLatticeRgbIntensityAll.msgLatticeRgbIntensityAll
                0x00000000       0x1c build/default/production/_ext/454704213/osc.o
 .rodata.msgGetLatticeRgbIntensityAll.msgGetLatticeRgbIntensityAll
                0x00000000       0x20 build/default/production/_ext/454704213/osc.o
 .rodata.msgRotaryLedDrvPinSelect.msgRotaryLedDrvPinSelect
                0x00000000       0x20 build/default/production/_ext/454704213/osc.o
 .rodata.msgSetRotaryLedStep.msgSetRotaryLedStep
                0x00000000       0x18 build/default/production/_ext/454704213/osc.o
 .rodata.msgSetRotaryLedBits.msgSetRotaryLedBits
                0x00000000       0x18 build/default/production/_ext/454704213/osc.o
 .rodata.msgRotaryLedIntensity.msgRotaryLedIntensity
                0x00000000       0x18 build/default/production/_ext/454704213/osc.o
 .rodata.msgSetRotaryLedIntensity.msgSetRotaryLedIntensity
                0x00000000       0x1c build/default/production/_ext/454704213/osc.o
 .rodata.msgGetRotaryLedIntensity.msgGetRotaryLedIntensity
                0x00000000       0x1c build/default/production/_ext/454704213/osc.o
 .rodata.msgSetRotaryLedIntensityAll.msgSetRotaryLedIntensityAll
                0x00000000       0x20 build/default/production/_ext/454704213/osc.o
 .rodata.msgRotaryIncEncPinSelect.msgRotaryIncEncPinSelect
                0x00000000       0x1c build/default/production/_ext/454704213/osc.o
 .rodata.msgRotaryIncEnc.msgRotaryIncEnc
                0x00000000       0x10 build/default/production/_ext/454704213/osc.o
 .rodata.msgRotaryIncEncSwitch.msgRotaryIncEncSwitch
                0x00000000       0x18 build/default/production/_ext/454704213/osc.o
 .rodata.msgRotaryAbsEncPinSelect.msgRotaryAbsEncPinSelect
                0x00000000       0x1c build/default/production/_ext/454704213/osc.o
 .rodata.msgRotaryAbsEncConnectedNum.msgRotaryAbsEncConnectedNum
                0x00000000       0x14 build/default/production/_ext/454704213/osc.o
 .rodata.msgSetRotaryAbsEncConnectedNum.msgSetRotaryAbsEncConnectedNum
                0x00000000       0x18 build/default/production/_ext/454704213/osc.o
 .rodata.msgGetRotaryAbsEncConnectedNum.msgGetRotaryAbsEncConnectedNum
                0x00000000       0x18 build/default/production/_ext/454704213/osc.o
 .rodata.msgRotaryAbsEnc.msgRotaryAbsEnc
                0x00000000       0x10 build/default/production/_ext/454704213/osc.o
 .rodata.msgAdcCurve.msgAdcCurve
                0x00000000        0xc build/default/production/_ext/454704213/osc.o
 .rodata.msgSetAdcCurve.msgSetAdcCurve
                0x00000000       0x10 build/default/production/_ext/454704213/osc.o
 .rodata.msgGetAdcCurve.msgGetAdcCurve
                0x00000000       0x10 build/default/production/_ext/454704213/osc.o
 .rodata.msgSetLcdConfig.msgSetLcdConfig
                0x00000000       0x10 build/default/production/_ext/454704213/osc.o
 .rodata.msgSetLcdText.msgSetLcdText
                0x00000000       0x10 build/default/production/_ext/454704213/osc.o
 .rodata.msgClearLcdText.msgClearLcdText
                0x00000000       0x10 build/default/production/_ext/454704213/osc.o
 .rodata.msgSetPp.msgSetPp
                0x00000000        0x8 build/default/production/_ext/454704213/osc.o
 .rodata.msgPp.msgPp
                0x00000000        0x4 build/default/production/_ext/454704213/osc.o
 .rodata.toscPrefix.toscPrefix
                0x00000000        0x8 build/default/production/_ext/454704213/osc.o
 .rodata.msgOnboardLed1.msgOnboardLed1
                0x00000000       0x10 build/default/production/_ext/454704213/osc.o
 .rodata.msgOnboardLed2.msgOnboardLed2
                0x00000000       0x10 build/default/production/_ext/454704213/osc.o
 .rodata.msgSetPwmEnable1.msgSetPwmEnable1
                0x00000000       0x14 build/default/production/_ext/454704213/osc.o
 .rodata.msgSetPwmEnable2.msgSetPwmEnable2
                0x00000000       0x14 build/default/production/_ext/454704213/osc.o
 .rodata.msgSetPwmEnable3.msgSetPwmEnable3
                0x00000000       0x14 build/default/production/_ext/454704213/osc.o
 .rodata.msgSetPwmEnable4.msgSetPwmEnable4
                0x00000000       0x14 build/default/production/_ext/454704213/osc.o
 .rodata.msgSetPwmDuty1.msgSetPwmDuty1
                0x00000000       0x10 build/default/production/_ext/454704213/osc.o
 .rodata.msgSetPwmDuty2.msgSetPwmDuty2
                0x00000000       0x10 build/default/production/_ext/454704213/osc.o
 .rodata.msgSetPwmDuty3.msgSetPwmDuty3
                0x00000000       0x10 build/default/production/_ext/454704213/osc.o
 .rodata.msgSetPwmDuty4.msgSetPwmDuty4
                0x00000000       0x10 build/default/production/_ext/454704213/osc.o
 .text          0x00000000        0x0 build/default/production/_ext/454704213/sram.o
 .data          0x00000000        0x0 build/default/production/_ext/454704213/sram.o
 .bss           0x00000000        0x0 build/default/production/_ext/454704213/sram.o
 .reginfo       0x00000000       0x18 build/default/production/_ext/454704213/sram.o
 .rodata        0x00000000        0x4 build/default/production/_ext/454704213/sram.o
 .text.initSPI2ForSRAM
                0x00000000       0x20 build/default/production/_ext/454704213/sram.o
 .text.readByteFromSRAM
                0x00000000       0x80 build/default/production/_ext/454704213/sram.o
 .text.writeByteToSRAM
                0x00000000       0x7c build/default/production/_ext/454704213/sram.o
 .text.readBytesFromSRAM
                0x00000000       0xd8 build/default/production/_ext/454704213/sram.o
 .text.writeBytesToSRAM
                0x00000000       0xd0 build/default/production/_ext/454704213/sram.o
 .text.clearSRAM
                0x00000000       0xc4 build/default/production/_ext/454704213/sram.o
 .text          0x00000000        0x0 build/default/production/_ext/1340694758/ARP.o
 .data          0x00000000        0x0 build/default/production/_ext/1340694758/ARP.o
 .bss           0x00000000        0x0 build/default/production/_ext/1340694758/ARP.o
 .reginfo       0x00000000       0x18 build/default/production/_ext/1340694758/ARP.o
 .text.ARPDeRegisterCallbacks
                0x00000000       0x20 build/default/production/_ext/1340694758/ARP.o
 .text          0x00000000        0x0 build/default/production/_ext/1340694758/DHCP.o
 .data          0x00000000        0x0 build/default/production/_ext/1340694758/DHCP.o
 .bss           0x00000000        0x0 build/default/production/_ext/1340694758/DHCP.o
 .reginfo       0x00000000       0x18 build/default/production/_ext/1340694758/DHCP.o
 .text.DHCPIsEnabled
                0x00000000       0x14 build/default/production/_ext/1340694758/DHCP.o
 .text.DHCPStateChanged
                0x00000000       0x20 build/default/production/_ext/1340694758/DHCP.o
 .text          0x00000000        0x0 build/default/production/_ext/1340694758/DHCPs.o
 .data          0x00000000        0x0 build/default/production/_ext/1340694758/DHCPs.o
 .bss           0x00000000        0x0 build/default/production/_ext/1340694758/DHCPs.o
 .reginfo       0x00000000       0x18 build/default/production/_ext/1340694758/DHCPs.o
 .text.DHCPServer_Disable
                0x00000000       0x24 build/default/production/_ext/1340694758/DHCPs.o
 .text.DHCPServer_Enable
                0x00000000       0x10 build/default/production/_ext/1340694758/DHCPs.o
 .text          0x00000000        0x0 build/default/production/_ext/1340694758/ETHPIC32ExtPhy.o
 .data          0x00000000        0x0 build/default/production/_ext/1340694758/ETHPIC32ExtPhy.o
 .bss           0x00000000        0x0 build/default/production/_ext/1340694758/ETHPIC32ExtPhy.o
 .reginfo       0x00000000       0x18 build/default/production/_ext/1340694758/ETHPIC32ExtPhy.o
 .text.EthPhyScanLinkStart
                0x00000000       0x14 build/default/production/_ext/1340694758/ETHPIC32ExtPhy.o
 .text.EthPhyScanLinkRead
                0x00000000       0x24 build/default/production/_ext/1340694758/ETHPIC32ExtPhy.o
 .text.EthPhyScanLinkStop
                0x00000000        0xc build/default/production/_ext/1340694758/ETHPIC32ExtPhy.o
 .text          0x00000000        0x0 build/default/production/_ext/1340694758/ETHPIC32ExtPhyDP83848.o
 .data          0x00000000        0x0 build/default/production/_ext/1340694758/ETHPIC32ExtPhyDP83848.o
 .bss           0x00000000        0x0 build/default/production/_ext/1340694758/ETHPIC32ExtPhyDP83848.o
 .reginfo       0x00000000       0x18 build/default/production/_ext/1340694758/ETHPIC32ExtPhyDP83848.o
 .text          0x00000000        0x0 build/default/production/_ext/1340694758/ETHPIC32IntMac.o
 .data          0x00000000        0x0 build/default/production/_ext/1340694758/ETHPIC32IntMac.o
 .bss           0x00000000        0x0 build/default/production/_ext/1340694758/ETHPIC32IntMac.o
 .reginfo       0x00000000       0x18 build/default/production/_ext/1340694758/ETHPIC32IntMac.o
 .text.MACGetHttpBaseAddr
                0x00000000        0x8 build/default/production/_ext/1340694758/ETHPIC32IntMac.o
 .text.MACGetSslBaseAddr
                0x00000000        0x8 build/default/production/_ext/1340694758/ETHPIC32IntMac.o
 .text.MACGetFreeRxSize
                0x00000000       0x18 build/default/production/_ext/1340694758/ETHPIC32IntMac.o
 .bss._HttpSSlBuffer._HttpSSlBuffer
                0x00000000        0x0 build/default/production/_ext/1340694758/ETHPIC32IntMac.o
 .text          0x00000000        0x0 build/default/production/_ext/1340694758/Helpers.o
 .data          0x00000000        0x0 build/default/production/_ext/1340694758/Helpers.o
 .bss           0x00000000        0x0 build/default/production/_ext/1340694758/Helpers.o
 .reginfo       0x00000000       0x18 build/default/production/_ext/1340694758/Helpers.o
 .text.StringToIPAddress
                0x00000000       0xe0 build/default/production/_ext/1340694758/Helpers.o
 .text.uitoa    0x00000000       0x50 build/default/production/_ext/1340694758/Helpers.o
 .text.hexatob  0x00000000       0x40 build/default/production/_ext/1340694758/Helpers.o
 .text.btohexa_high
                0x00000000       0x14 build/default/production/_ext/1340694758/Helpers.o
 .text.btohexa_low
                0x00000000       0x14 build/default/production/_ext/1340694758/Helpers.o
 .text.stricmppgm2ram
                0x00000000       0x50 build/default/production/_ext/1340694758/Helpers.o
 .text.strupr   0x00000000       0x20 build/default/production/_ext/1340694758/Helpers.o
 .text.FormatNetBIOSName
                0x00000000       0x3c build/default/production/_ext/1340694758/Helpers.o
 .text.strnchr  0x00000000       0x20 build/default/production/_ext/1340694758/Helpers.o
 .text          0x00000000        0x0 build/default/production/_ext/1340694758/ICMP.o
 .data          0x00000000        0x0 build/default/production/_ext/1340694758/ICMP.o
 .bss           0x00000000        0x0 build/default/production/_ext/1340694758/ICMP.o
 .reginfo       0x00000000       0x18 build/default/production/_ext/1340694758/ICMP.o
 .text          0x00000000        0x0 build/default/production/_ext/1340694758/IP.o
 .data          0x00000000        0x0 build/default/production/_ext/1340694758/IP.o
 .bss           0x00000000        0x0 build/default/production/_ext/1340694758/IP.o
 .reginfo       0x00000000       0x18 build/default/production/_ext/1340694758/IP.o
 .text          0x00000000        0x0 build/default/production/_ext/1340694758/NBNS.o
 .data          0x00000000        0x0 build/default/production/_ext/1340694758/NBNS.o
 .bss           0x00000000        0x0 build/default/production/_ext/1340694758/NBNS.o
 .reginfo       0x00000000       0x18 build/default/production/_ext/1340694758/NBNS.o
 .text          0x00000000        0x0 build/default/production/_ext/1340694758/StackTsk.o
 .data          0x00000000        0x0 build/default/production/_ext/1340694758/StackTsk.o
 .bss           0x00000000        0x0 build/default/production/_ext/1340694758/StackTsk.o
 .reginfo       0x00000000       0x18 build/default/production/_ext/1340694758/StackTsk.o
 .text.StackApplications
                0x00000000        0xc build/default/production/_ext/1340694758/StackTsk.o
 .text          0x00000000        0x0 build/default/production/_ext/1340694758/Tick.o
 .data          0x00000000        0x0 build/default/production/_ext/1340694758/Tick.o
 .bss           0x00000000        0x0 build/default/production/_ext/1340694758/Tick.o
 .reginfo       0x00000000       0x18 build/default/production/_ext/1340694758/Tick.o
 .text.TickGetDiv64K
                0x00000000       0x28 build/default/production/_ext/1340694758/Tick.o
 .text.TickConvertToMilliseconds
                0x00000000       0x1c build/default/production/_ext/1340694758/Tick.o
 .text          0x00000000        0x0 build/default/production/_ext/1340694758/UDP.o
 .data          0x00000000        0x0 build/default/production/_ext/1340694758/UDP.o
 .bss           0x00000000        0x0 build/default/production/_ext/1340694758/UDP.o
 .reginfo       0x00000000       0x18 build/default/production/_ext/1340694758/UDP.o
 .text.UDPIsOpened
                0x00000000       0x1c build/default/production/_ext/1340694758/UDP.o
 .text.UDPPutString
                0x00000000       0x18 build/default/production/_ext/1340694758/UDP.o
 .text          0x00000000        0x0 build/default/production/_ext/1340694758/ZeroconfHelper.o
 .data          0x00000000        0x0 build/default/production/_ext/1340694758/ZeroconfHelper.o
 .bss           0x00000000        0x0 build/default/production/_ext/1340694758/ZeroconfHelper.o
 .reginfo       0x00000000       0x18 build/default/production/_ext/1340694758/ZeroconfHelper.o
 .sdata.zeroconf_dbg_level.zeroconf_dbg_level
                0x00000000        0x1 build/default/production/_ext/1340694758/ZeroconfHelper.o
 .text          0x00000000        0x0 build/default/production/_ext/1340694758/ZeroconfLinkLocal.o
 .data          0x00000000        0x0 build/default/production/_ext/1340694758/ZeroconfLinkLocal.o
 .bss           0x00000000        0x0 build/default/production/_ext/1340694758/ZeroconfLinkLocal.o
 .reginfo       0x00000000       0x18 build/default/production/_ext/1340694758/ZeroconfLinkLocal.o
 .rodata.g_zcll_dhcp_client.g_zcll_dhcp_client
                0x00000000        0x1 build/default/production/_ext/1340694758/ZeroconfLinkLocal.o
 .text          0x00000000        0x0 build/default/production/_ext/1340694758/ZeroconfMulticastDNS.o
 .data          0x00000000        0x0 build/default/production/_ext/1340694758/ZeroconfMulticastDNS.o
 .bss           0x00000000        0x0 build/default/production/_ext/1340694758/ZeroconfMulticastDNS.o
 .reginfo       0x00000000       0x18 build/default/production/_ext/1340694758/ZeroconfMulticastDNS.o
 .text.mDNSServiceUpdate
                0x00000000       0x68 build/default/production/_ext/1340694758/ZeroconfMulticastDNS.o
 .text.mDNSDumpInfo
                0x00000000       0x1c build/default/production/_ext/1340694758/ZeroconfMulticastDNS.o
 .text          0x00000000        0x0 build/default/production/_ext/1798056102/usb_device.o
 .data          0x00000000        0x0 build/default/production/_ext/1798056102/usb_device.o
 .bss           0x00000000        0x0 build/default/production/_ext/1798056102/usb_device.o
 .reginfo       0x00000000       0x18 build/default/production/_ext/1798056102/usb_device.o
 .text.USBStallEndpoint
                0x00000000       0xac build/default/production/_ext/1798056102/usb_device.o
 .text.USBCancelIO
                0x00000000      0x134 build/default/production/_ext/1798056102/usb_device.o
 .text          0x00000000        0x0 build/default/production/_ext/1798056102/usb_function_hid.o
 .data          0x00000000        0x0 build/default/production/_ext/1798056102/usb_function_hid.o
 .bss           0x00000000        0x0 build/default/production/_ext/1798056102/usb_function_hid.o
 .reginfo       0x00000000       0x18 build/default/production/_ext/1798056102/usb_function_hid.o
 .text          0x00000000        0x0 build/default/production/_ext/1798056102/usb_host.o
 .data          0x00000000        0x0 build/default/production/_ext/1798056102/usb_host.o
 .bss           0x00000000        0x0 build/default/production/_ext/1798056102/usb_host.o
 .reginfo       0x00000000       0x18 build/default/production/_ext/1798056102/usb_host.o
 .text.USBHostDeviceSpecificClientDriver
                0x00000000       0x10 build/default/production/_ext/1798056102/usb_host.o
 .text.USBHostResetDevice
                0x00000000       0x2c build/default/production/_ext/1798056102/usb_host.o
 .text.USBHostResumeDevice
                0x00000000       0x30 build/default/production/_ext/1798056102/usb_host.o
 .text.USBHostSuspendDevice
                0x00000000       0x3c build/default/production/_ext/1798056102/usb_host.o
 .text.USBHostTerminateTransfer
                0x00000000       0x30 build/default/production/_ext/1798056102/usb_host.o
 .text.USBHostVbusEvent
                0x00000000       0x44 build/default/production/_ext/1798056102/usb_host.o
 .text._USB_NotifyDataClients
                0x00000000       0x34 build/default/production/_ext/1798056102/usb_host.o
 .text._USB_TransferInProgress
                0x00000000       0x54 build/default/production/_ext/1798056102/usb_host.o
 .text.USBHostSetDeviceConfiguration
                0x00000000       0x54 build/default/production/_ext/1798056102/usb_host.o
 .text          0x00000000        0x0 build/default/production/_ext/1798056102/usb_host_cdc.o
 .data          0x00000000        0x0 build/default/production/_ext/1798056102/usb_host_cdc.o
 .bss           0x00000000        0x0 build/default/production/_ext/1798056102/usb_host_cdc.o
 .reginfo       0x00000000       0x18 build/default/production/_ext/1798056102/usb_host_cdc.o
 .text.USBHostCDCResetDevice
                0x00000000       0x40 build/default/production/_ext/1798056102/usb_host_cdc.o
 .text          0x00000000        0x0 build/default/production/_ext/1798056102/usb_host_cdc_interface.o
 .data          0x00000000        0x0 build/default/production/_ext/1798056102/usb_host_cdc_interface.o
 .bss           0x00000000        0x0 build/default/production/_ext/1798056102/usb_host_cdc_interface.o
 .reginfo       0x00000000       0x18 build/default/production/_ext/1798056102/usb_host_cdc_interface.o
 .text.USBHostCDC_Api_ACM_Request
                0x00000000      0x140 build/default/production/_ext/1798056102/usb_host_cdc_interface.o
 .text          0x00000000        0x0 build/default/production/_ext/1798056102/usb_host_hid.o
 .data          0x00000000        0x0 build/default/production/_ext/1798056102/usb_host_hid.o
 .bss           0x00000000        0x0 build/default/production/_ext/1798056102/usb_host_hid.o
 .reginfo       0x00000000       0x18 build/default/production/_ext/1798056102/usb_host_hid.o
 .text.USBHostHIDDeviceStatus
                0x00000000       0x7c build/default/production/_ext/1798056102/usb_host_hid.o
 .text.USBHostHIDDeviceDetect
                0x00000000       0x28 build/default/production/_ext/1798056102/usb_host_hid.o
 .text.USBHostHIDTasks
                0x00000000        0x4 build/default/production/_ext/1798056102/usb_host_hid.o
 .text.USBHostHIDTerminateTransfer
                0x00000000       0x58 build/default/production/_ext/1798056102/usb_host_hid.o
 .text.USBHostHIDTransfer
                0x00000000       0xe4 build/default/production/_ext/1798056102/usb_host_hid.o
 .text.USBHostHIDTransferIsComplete
                0x00000000       0x38 build/default/production/_ext/1798056102/usb_host_hid.o
 .text.USBHostHID_ApiFindBit
                0x00000000       0xd8 build/default/production/_ext/1798056102/usb_host_hid.o
 .text.USBHostHID_ApiFindValue
                0x00000000      0x108 build/default/production/_ext/1798056102/usb_host_hid.o
 .text.USBHostHID_ApiGetCurrentInterfaceNum
                0x00000000        0xc build/default/production/_ext/1798056102/usb_host_hid.o
 .text.USBHostHID_ApiImportData
                0x00000000       0xf0 build/default/production/_ext/1798056102/usb_host_hid.o
 .text.USBHostHIDInitialize
                0x00000000      0x1cc build/default/production/_ext/1798056102/usb_host_hid.o
 .text._USBHostHID_FreeRptDecriptorDataMem
                0x00000000       0x44 build/default/production/_ext/1798056102/usb_host_hid.o
 .text._USBHostHID_ResetStateJump
                0x00000000       0xa8 build/default/production/_ext/1798056102/usb_host_hid.o
 .text.USBHostHIDEventHandler
                0x00000000      0x2d8 build/default/production/_ext/1798056102/usb_host_hid.o
 .text.USBHostHIDResetDevice
                0x00000000       0x38 build/default/production/_ext/1798056102/usb_host_hid.o
 .text.USBHostHIDResetDeviceWithWait
                0x00000000       0x48 build/default/production/_ext/1798056102/usb_host_hid.o
 .bss.deviceInfoHID.deviceInfoHID
                0x00000000       0x20 build/default/production/_ext/1798056102/usb_host_hid.o
 .sbss.pInterfaceDetails.pInterfaceDetails
                0x00000000        0x4 build/default/production/_ext/1798056102/usb_host_hid.o
 .sbss.pCurrInterfaceDetails.pCurrInterfaceDetails
                0x00000000        0x4 build/default/production/_ext/1798056102/usb_host_hid.o
 .text          0x00000000        0x0 build/default/production/_ext/1798056102/usb_host_hid_parser.o
 .data          0x00000000        0x0 build/default/production/_ext/1798056102/usb_host_hid_parser.o
 .bss           0x00000000        0x0 build/default/production/_ext/1798056102/usb_host_hid_parser.o
 .reginfo       0x00000000       0x18 build/default/production/_ext/1798056102/usb_host_hid_parser.o
 .text._USBHostHID_InitDeviceRptInfo
                0x00000000       0x6c build/default/production/_ext/1798056102/usb_host_hid_parser.o
 .text._USBHostHID_Parse_Collection
                0x00000000       0x80 build/default/production/_ext/1798056102/usb_host_hid_parser.o
 .text._USBHostHID_Parse_EndCollection
                0x00000000       0x40 build/default/production/_ext/1798056102/usb_host_hid_parser.o
 .text._USBHostHID_Parse_ReportType
                0x00000000      0x16c build/default/production/_ext/1798056102/usb_host_hid_parser.o
 .text._USBHostHID_ConvertDataToSigned
                0x00000000       0x30 build/default/production/_ext/1798056102/usb_host_hid_parser.o
 .text._USBHostHID_Parse_Report
                0x00000000      0x8d8 build/default/production/_ext/1798056102/usb_host_hid_parser.o
 .text.USBHostHID_HasUsage
                0x00000000      0x13c build/default/production/_ext/1798056102/usb_host_hid_parser.o
 .bss.deviceRptInfo.deviceRptInfo
                0x00000000       0x68 build/default/production/_ext/1798056102/usb_host_hid_parser.o
 .bss.itemListPtrs.itemListPtrs
                0x00000000       0x20 build/default/production/_ext/1798056102/usb_host_hid_parser.o
 .sbss.parsedDataMem.parsedDataMem
                0x00000000        0x4 build/default/production/_ext/1798056102/usb_host_hid_parser.o
 .text          0x00000000        0x0 build/default/production/_ext/1798056102/usb_host_midi.o
 .data          0x00000000        0x0 build/default/production/_ext/1798056102/usb_host_midi.o
 .bss           0x00000000        0x0 build/default/production/_ext/1798056102/usb_host_midi.o
 .reginfo       0x00000000       0x18 build/default/production/_ext/1798056102/usb_host_midi.o
 .text          0x00000000        0x0 build/default/production/picrouter.o
 .data          0x00000000        0x0 build/default/production/picrouter.o
 .bss           0x00000000        0x0 build/default/production/picrouter.o
 .reginfo       0x00000000       0x18 build/default/production/picrouter.o
 .text.USBCBSuspend
                0x00000000        0x4 build/default/production/picrouter.o
 .text.USBCBWakeFromSuspend
                0x00000000        0x4 build/default/production/picrouter.o
 .text.USBCBErrorHandler
                0x00000000        0x4 build/default/production/picrouter.o
 .text.USBCBStdSetDscHandler
                0x00000000        0x4 build/default/production/picrouter.o
 .text.USBCBSendResume
                0x00000000       0x5c build/default/production/picrouter.o
 .sbss.bUsbHostInitialized.bUsbHostInitialized
                0x00000000        0x4 build/default/production/picrouter.o
 .sbss.stateFlag.stateFlag
                0x00000000        0x4 build/default/production/picrouter.o
 .sbss.stateFlag2.stateFlag2
                0x00000000        0x4 build/default/production/picrouter.o
 .sbss.delay_count.25462.delay_count
                0x00000000        0x2 build/default/production/picrouter.o
 .text          0x00000000        0x0 build/default/production/mrb_picrouter.o
 .data          0x00000000        0x0 build/default/production/mrb_picrouter.o
 .bss           0x00000000        0x0 build/default/production/mrb_picrouter.o
 .reginfo       0x00000000       0x18 build/default/production/mrb_picrouter.o
 .text          0x00000000        0x0 ..\mruby-1.0.0\build\PICrouter\lib\libmruby.a(class.o)
 .data          0x00000000        0x0 ..\mruby-1.0.0\build\PICrouter\lib\libmruby.a(class.o)
 .bss           0x00000000        0x0 ..\mruby-1.0.0\build\PICrouter\lib\libmruby.a(class.o)
 .reginfo       0x00000000       0x18 ..\mruby-1.0.0\build\PICrouter\lib\libmruby.a(class.o)
 .text.kh_clear_mt
                0x00000000       0x20 ..\mruby-1.0.0\build\PICrouter\lib\libmruby.a(class.o)
 .text.mrb_class_defined
                0x00000000       0x34 ..\mruby-1.0.0\build\PICrouter\lib\libmruby.a(class.o)
 .text.mrb_define_module_function
                0x00000000       0x24 ..\mruby-1.0.0\build\PICrouter\lib\libmruby.a(class.o)
 .text.mrb_define_class_under
                0x00000000       0x80 ..\mruby-1.0.0\build\PICrouter\lib\libmruby.a(class.o)
 .text.mrb_define_module_under
                0x00000000       0x50 ..\mruby-1.0.0\build\PICrouter\lib\libmruby.a(class.o)
 .text          0x00000000        0x0 ..\mruby-1.0.0\build\PICrouter\lib\libmruby.a(error.o)
 .data          0x00000000        0x0 ..\mruby-1.0.0\build\PICrouter\lib\libmruby.a(error.o)
 .bss           0x00000000        0x0 ..\mruby-1.0.0\build\PICrouter\lib\libmruby.a(error.o)
 .reginfo       0x00000000       0x18 ..\mruby-1.0.0\build\PICrouter\lib\libmruby.a(error.o)
 .text.mrb_warn
                0x00000000       0x3c ..\mruby-1.0.0\build\PICrouter\lib\libmruby.a(error.o)
 .text.mrb_bug  0x00000000       0x3c ..\mruby-1.0.0\build\PICrouter\lib\libmruby.a(error.o)
 .text.sysexit_status
                0x00000000       0x28 ..\mruby-1.0.0\build\PICrouter\lib\libmruby.a(error.o)
 .text.mrb_sys_fail
                0x00000000       0xbc ..\mruby-1.0.0\build\PICrouter\lib\libmruby.a(error.o)
 .text          0x00000000        0x0 ..\mruby-1.0.0\build\PICrouter\lib\libmruby.a(gc.o)
 .data          0x00000000        0x0 ..\mruby-1.0.0\build\PICrouter\lib\libmruby.a(gc.o)
 .bss           0x00000000        0x0 ..\mruby-1.0.0\build\PICrouter\lib\libmruby.a(gc.o)
 .reginfo       0x00000000       0x18 ..\mruby-1.0.0\build\PICrouter\lib\libmruby.a(gc.o)
 .text.mrb_malloc_simple
                0x00000000       0x10 ..\mruby-1.0.0\build\PICrouter\lib\libmruby.a(gc.o)
 .text.mrb_garbage_collect
                0x00000000        0xc ..\mruby-1.0.0\build\PICrouter\lib\libmruby.a(gc.o)
 .text.mrb_objspace_each_objects
                0x00000000       0x38 ..\mruby-1.0.0\build\PICrouter\lib\libmruby.a(gc.o)
 .text          0x00000000        0x0 ..\mruby-1.0.0\build\PICrouter\lib\libmruby.a(hash.o)
 .data          0x00000000        0x0 ..\mruby-1.0.0\build\PICrouter\lib\libmruby.a(hash.o)
 .bss           0x00000000        0x0 ..\mruby-1.0.0\build\PICrouter\lib\libmruby.a(hash.o)
 .reginfo       0x00000000       0x18 ..\mruby-1.0.0\build\PICrouter\lib\libmruby.a(hash.o)
 .text.kh_copy_ht
                0x00000000       0x84 ..\mruby-1.0.0\build\PICrouter\lib\libmruby.a(hash.o)
 .text.mrb_hash_new
                0x00000000       0x10 ..\mruby-1.0.0\build\PICrouter\lib\libmruby.a(hash.o)
 .text.mrb_hash_fetch
                0x00000000       0x40 ..\mruby-1.0.0\build\PICrouter\lib\libmruby.a(hash.o)
 .text.mrb_hash_dup
                0x00000000       0xc0 ..\mruby-1.0.0\build\PICrouter\lib\libmruby.a(hash.o)
 .text.mrb_check_hash_type
                0x00000000       0x24 ..\mruby-1.0.0\build\PICrouter\lib\libmruby.a(hash.o)
 .text.mrb_hash_assoc
                0x00000000       0x94 ..\mruby-1.0.0\build\PICrouter\lib\libmruby.a(hash.o)
 .text.mrb_hash_rassoc
                0x00000000       0x6c ..\mruby-1.0.0\build\PICrouter\lib\libmruby.a(hash.o)
 .text          0x00000000        0x0 ..\mruby-1.0.0\build\PICrouter\lib\libmruby.a(kernel.o)
 .data          0x00000000        0x0 ..\mruby-1.0.0\build\PICrouter\lib\libmruby.a(kernel.o)
 .bss           0x00000000        0x0 ..\mruby-1.0.0\build\PICrouter\lib\libmruby.a(kernel.o)
 .reginfo       0x00000000       0x18 ..\mruby-1.0.0\build\PICrouter\lib\libmruby.a(kernel.o)
 .text.kh_clear_st
                0x00000000       0x20 ..\mruby-1.0.0\build\PICrouter\lib\libmruby.a(kernel.o)
 .text.kh_get_st
                0x00000000       0x64 ..\mruby-1.0.0\build\PICrouter\lib\libmruby.a(kernel.o)
 .text.kh_del_st
                0x00000000       0x24 ..\mruby-1.0.0\build\PICrouter\lib\libmruby.a(kernel.o)
 .text.kh_copy_st
                0x00000000       0x4c ..\mruby-1.0.0\build\PICrouter\lib\libmruby.a(kernel.o)
 .text          0x00000000        0x0 ..\mruby-1.0.0\build\PICrouter\lib\libmruby.a(load.o)
 .data          0x00000000        0x0 ..\mruby-1.0.0\build\PICrouter\lib\libmruby.a(load.o)
 .bss           0x00000000        0x0 ..\mruby-1.0.0\build\PICrouter\lib\libmruby.a(load.o)
 .reginfo       0x00000000       0x18 ..\mruby-1.0.0\build\PICrouter\lib\libmruby.a(load.o)
 .text.read_lineno_record_file
                0x00000000       0x9c ..\mruby-1.0.0\build\PICrouter\lib\libmruby.a(load.o)
 .text.read_section_lineno_file
                0x00000000       0x2c ..\mruby-1.0.0\build\PICrouter\lib\libmruby.a(load.o)
 .text.read_irep_record_file
                0x00000000       0x98 ..\mruby-1.0.0\build\PICrouter\lib\libmruby.a(load.o)
 .text.read_section_irep_file
                0x00000000       0x28 ..\mruby-1.0.0\build\PICrouter\lib\libmruby.a(load.o)
 .text.mrb_read_irep_file
                0x00000000      0x1d8 ..\mruby-1.0.0\build\PICrouter\lib\libmruby.a(load.o)
 .text.mrb_load_irep_file_cxt
                0x00000000       0x78 ..\mruby-1.0.0\build\PICrouter\lib\libmruby.a(load.o)
 .text.mrb_load_irep_file
                0x00000000       0x10 ..\mruby-1.0.0\build\PICrouter\lib\libmruby.a(load.o)
 .text          0x00000000        0x0 ..\mruby-1.0.0\build\PICrouter\lib\libmruby.a(object.o)
 .data          0x00000000        0x0 ..\mruby-1.0.0\build\PICrouter\lib\libmruby.a(object.o)
 .bss           0x00000000        0x0 ..\mruby-1.0.0\build\PICrouter\lib\libmruby.a(object.o)
 .reginfo       0x00000000       0x18 ..\mruby-1.0.0\build\PICrouter\lib\libmruby.a(object.o)
 .text.mrb_float_value
                0x00000000       0x18 ..\mruby-1.0.0\build\PICrouter\lib\libmruby.a(object.o)
 .text.mrb_Float
                0x00000000       0xb8 ..\mruby-1.0.0\build\PICrouter\lib\libmruby.a(object.o)
 .text.mrb_check_to_integer
                0x00000000       0x60 ..\mruby-1.0.0\build\PICrouter\lib\libmruby.a(object.o)
 .text          0x00000000        0x0 ..\mruby-1.0.0\build\PICrouter\lib\libmruby.a(print.o)
 .data          0x00000000        0x0 ..\mruby-1.0.0\build\PICrouter\lib\libmruby.a(print.o)
 .bss           0x00000000        0x0 ..\mruby-1.0.0\build\PICrouter\lib\libmruby.a(print.o)
 .reginfo       0x00000000       0x18 ..\mruby-1.0.0\build\PICrouter\lib\libmruby.a(print.o)
 .text.mrb_obj_value
                0x00000000       0x18 ..\mruby-1.0.0\build\PICrouter\lib\libmruby.a(print.o)
 .text.mrb_print_error
                0x00000000       0x50 ..\mruby-1.0.0\build\PICrouter\lib\libmruby.a(print.o)
 .text.mrb_show_version
                0x00000000       0x24 ..\mruby-1.0.0\build\PICrouter\lib\libmruby.a(print.o)
 .text.mrb_show_copyright
                0x00000000       0x24 ..\mruby-1.0.0\build\PICrouter\lib\libmruby.a(print.o)
 .rodata.copyright_msg.5402.copyright_msg
                0x00000000       0x34 ..\mruby-1.0.0\build\PICrouter\lib\libmruby.a(print.o)
 .rodata.version_msg.5397.version_msg
                0x00000000       0x44 ..\mruby-1.0.0\build\PICrouter\lib\libmruby.a(print.o)
 .text          0x00000000        0x0 ..\mruby-1.0.0\build\PICrouter\lib\libmruby.a(proc.o)
 .data          0x00000000        0x0 ..\mruby-1.0.0\build\PICrouter\lib\libmruby.a(proc.o)
 .bss           0x00000000        0x0 ..\mruby-1.0.0\build\PICrouter\lib\libmruby.a(proc.o)
 .reginfo       0x00000000       0x18 ..\mruby-1.0.0\build\PICrouter\lib\libmruby.a(proc.o)
 .text.mrb_closure_new_cfunc
                0x00000000       0x1c ..\mruby-1.0.0\build\PICrouter\lib\libmruby.a(proc.o)
 .text.mrb_proc_cfunc_p
                0x00000000       0x14 ..\mruby-1.0.0\build\PICrouter\lib\libmruby.a(proc.o)
 .text.mrb_proc_call_cfunc
                0x00000000       0x14 ..\mruby-1.0.0\build\PICrouter\lib\libmruby.a(proc.o)
 .text          0x00000000        0x0 ..\mruby-1.0.0\build\PICrouter\lib\libmruby.a(state.o)
 .data          0x00000000        0x0 ..\mruby-1.0.0\build\PICrouter\lib\libmruby.a(state.o)
 .bss           0x00000000        0x0 ..\mruby-1.0.0\build\PICrouter\lib\libmruby.a(state.o)
 .reginfo       0x00000000       0x18 ..\mruby-1.0.0\build\PICrouter\lib\libmruby.a(state.o)
 .text.mrb_alloca
                0x00000000       0x20 ..\mruby-1.0.0\build\PICrouter\lib\libmruby.a(state.o)
 .text          0x00000000        0x0 ..\mruby-1.0.0\build\PICrouter\lib\libmruby.a(string.o)
 .data          0x00000000        0x0 ..\mruby-1.0.0\build\PICrouter\lib\libmruby.a(string.o)
 .bss           0x00000000        0x0 ..\mruby-1.0.0\build\PICrouter\lib\libmruby.a(string.o)
 .reginfo       0x00000000       0x18 ..\mruby-1.0.0\build\PICrouter\lib\libmruby.a(string.o)
 .text.mrb_str_offset
                0x00000000        0x8 ..\mruby-1.0.0\build\PICrouter\lib\libmruby.a(string.o)
 .text.mrb_str_to_cstr
                0x00000000       0x60 ..\mruby-1.0.0\build\PICrouter\lib\libmruby.a(string.o)
 .text.mrb_str_body
                0x00000000        0xc ..\mruby-1.0.0\build\PICrouter\lib\libmruby.a(string.o)
 .text.mrb_string_value_ptr
                0x00000000       0x1c ..\mruby-1.0.0\build\PICrouter\lib\libmruby.a(string.o)
 .text.mrb_string_type
                0x00000000       0x24 ..\mruby-1.0.0\build\PICrouter\lib\libmruby.a(string.o)
 .text          0x00000000        0x0 ..\mruby-1.0.0\build\PICrouter\lib\libmruby.a(symbol.o)
 .data          0x00000000        0x0 ..\mruby-1.0.0\build\PICrouter\lib\libmruby.a(symbol.o)
 .bss           0x00000000        0x0 ..\mruby-1.0.0\build\PICrouter\lib\libmruby.a(symbol.o)
 .reginfo       0x00000000       0x18 ..\mruby-1.0.0\build\PICrouter\lib\libmruby.a(symbol.o)
 .text.kh_clear_n2s
                0x00000000       0x20 ..\mruby-1.0.0\build\PICrouter\lib\libmruby.a(symbol.o)
 .text.kh_del_n2s
                0x00000000       0x24 ..\mruby-1.0.0\build\PICrouter\lib\libmruby.a(symbol.o)
 .text.kh_copy_n2s
                0x00000000       0x84 ..\mruby-1.0.0\build\PICrouter\lib\libmruby.a(symbol.o)
 .text.mrb_check_intern_cstr
                0x00000000       0x20 ..\mruby-1.0.0\build\PICrouter\lib\libmruby.a(symbol.o)
 .text          0x00000000        0x0 ..\mruby-1.0.0\build\PICrouter\lib\libmruby.a(variable.o)
 .data          0x00000000        0x0 ..\mruby-1.0.0\build\PICrouter\lib\libmruby.a(variable.o)
 .bss           0x00000000        0x0 ..\mruby-1.0.0\build\PICrouter\lib\libmruby.a(variable.o)
 .reginfo       0x00000000       0x18 ..\mruby-1.0.0\build\PICrouter\lib\libmruby.a(variable.o)
 .text.mrb_const_defined_0
                0x00000000       0x60 ..\mruby-1.0.0\build\PICrouter\lib\libmruby.a(variable.o)
 .text.mrb_iv_defined
                0x00000000       0x28 ..\mruby-1.0.0\build\PICrouter\lib\libmruby.a(variable.o)
 .text.mrb_const_remove
                0x00000000       0x20 ..\mruby-1.0.0\build\PICrouter\lib\libmruby.a(variable.o)
 .text.mrb_define_global_const
                0x00000000       0x1c ..\mruby-1.0.0\build\PICrouter\lib\libmruby.a(variable.o)
 .text.mrb_gv_remove
                0x00000000       0x14 ..\mruby-1.0.0\build\PICrouter\lib\libmruby.a(variable.o)
 .text.mrb_const_defined_at
                0x00000000       0x14 ..\mruby-1.0.0\build\PICrouter\lib\libmruby.a(variable.o)
 .text          0x00000000        0x0 ..\mruby-1.0.0\build\PICrouter\lib\libmruby.a(vm.o)
 .data          0x00000000        0x0 ..\mruby-1.0.0\build\PICrouter\lib\libmruby.a(vm.o)
 .bss           0x00000000        0x0 ..\mruby-1.0.0\build\PICrouter\lib\libmruby.a(vm.o)
 .reginfo       0x00000000       0x18 ..\mruby-1.0.0\build\PICrouter\lib\libmruby.a(vm.o)
 .text.mrb_yield
                0x00000000       0x40 ..\mruby-1.0.0\build\PICrouter\lib\libmruby.a(vm.o)
 .text.mrb_yield_argv
                0x00000000       0x40 ..\mruby-1.0.0\build\PICrouter\lib\libmruby.a(vm.o)
 .text          0x00000000        0x0 ..\mruby-1.0.0\build\PICrouter\lib\libmruby.a(array.o)
 .data          0x00000000        0x0 ..\mruby-1.0.0\build\PICrouter\lib\libmruby.a(array.o)
 .bss           0x00000000        0x0 ..\mruby-1.0.0\build\PICrouter\lib\libmruby.a(array.o)
 .reginfo       0x00000000       0x18 ..\mruby-1.0.0\build\PICrouter\lib\libmruby.a(array.o)
 .text.mrb_ary_len
                0x00000000        0x8 ..\mruby-1.0.0\build\PICrouter\lib\libmruby.a(array.o)
 .text.mrb_ary_modify
                0x00000000       0x18 ..\mruby-1.0.0\build\PICrouter\lib\libmruby.a(array.o)
 .text.mrb_check_array_type
                0x00000000       0x24 ..\mruby-1.0.0\build\PICrouter\lib\libmruby.a(array.o)
 .text.mrb_ary_entry
                0x00000000       0x20 ..\mruby-1.0.0\build\PICrouter\lib\libmruby.a(array.o)
 .text          0x00000000        0x0 ..\mruby-1.0.0\build\PICrouter\lib\libmruby.a(backtrace.o)
 .data          0x00000000        0x0 ..\mruby-1.0.0\build\PICrouter\lib\libmruby.a(backtrace.o)
 .bss           0x00000000        0x0 ..\mruby-1.0.0\build\PICrouter\lib\libmruby.a(backtrace.o)
 .reginfo       0x00000000       0x18 ..\mruby-1.0.0\build\PICrouter\lib\libmruby.a(backtrace.o)
 .text.print_backtrace_i
                0x00000000       0x14 ..\mruby-1.0.0\build\PICrouter\lib\libmruby.a(backtrace.o)
 .text.mrb_print_backtrace
                0x00000000       0x18 ..\mruby-1.0.0\build\PICrouter\lib\libmruby.a(backtrace.o)
 .text          0x00000000        0x0 ..\mruby-1.0.0\build\PICrouter\lib\libmruby.a(crc.o)
 .data          0x00000000        0x0 ..\mruby-1.0.0\build\PICrouter\lib\libmruby.a(crc.o)
 .bss           0x00000000        0x0 ..\mruby-1.0.0\build\PICrouter\lib\libmruby.a(crc.o)
 .reginfo       0x00000000       0x18 ..\mruby-1.0.0\build\PICrouter\lib\libmruby.a(crc.o)
 .text          0x00000000        0x0 ..\mruby-1.0.0\build\PICrouter\lib\libmruby.a(debug.o)
 .data          0x00000000        0x0 ..\mruby-1.0.0\build\PICrouter\lib\libmruby.a(debug.o)
 .bss           0x00000000        0x0 ..\mruby-1.0.0\build\PICrouter\lib\libmruby.a(debug.o)
 .reginfo       0x00000000       0x18 ..\mruby-1.0.0\build\PICrouter\lib\libmruby.a(debug.o)
 .text.select_line_type
                0x00000000       0x18 ..\mruby-1.0.0\build\PICrouter\lib\libmruby.a(debug.o)
 .text.mrb_debug_info_alloc
                0x00000000       0x18 ..\mruby-1.0.0\build\PICrouter\lib\libmruby.a(debug.o)
 .text.mrb_debug_info_append_file
                0x00000000      0x158 ..\mruby-1.0.0\build\PICrouter\lib\libmruby.a(debug.o)
 .text          0x00000000        0x0 ..\mruby-1.0.0\build\PICrouter\lib\libmruby.a(etc.o)
 .data          0x00000000        0x0 ..\mruby-1.0.0\build\PICrouter\lib\libmruby.a(etc.o)
 .bss           0x00000000        0x0 ..\mruby-1.0.0\build\PICrouter\lib\libmruby.a(etc.o)
 .reginfo       0x00000000       0x18 ..\mruby-1.0.0\build\PICrouter\lib\libmruby.a(etc.o)
 .text.mrb_obj_value
                0x00000000       0x18 ..\mruby-1.0.0\build\PICrouter\lib\libmruby.a(etc.o)
 .text.mrb_nil_value
                0x00000000       0x10 ..\mruby-1.0.0\build\PICrouter\lib\libmruby.a(etc.o)
 .text.mrb_class
                0x00000000       0x68 ..\mruby-1.0.0\build\PICrouter\lib\libmruby.a(etc.o)
 .text.mrb_data_object_alloc
                0x00000000       0x18 ..\mruby-1.0.0\build\PICrouter\lib\libmruby.a(etc.o)
 .rodata        0x00000000       0x6c ..\mruby-1.0.0\build\PICrouter\lib\libmruby.a(etc.o)
 .text.mrb_data_check_type
                0x00000000       0xc0 ..\mruby-1.0.0\build\PICrouter\lib\libmruby.a(etc.o)
 .text.mrb_data_check_get_ptr
                0x00000000       0x18 ..\mruby-1.0.0\build\PICrouter\lib\libmruby.a(etc.o)
 .text.mrb_data_get_ptr
                0x00000000       0x14 ..\mruby-1.0.0\build\PICrouter\lib\libmruby.a(etc.o)
 .text.mrb_lastline_get
                0x00000000       0x34 ..\mruby-1.0.0\build\PICrouter\lib\libmruby.a(etc.o)
 .text.mrb_exec_recursive
                0x00000000       0x30 ..\mruby-1.0.0\build\PICrouter\lib\libmruby.a(etc.o)
 .text.mrb_obj_to_sym
                0x00000000       0x98 ..\mruby-1.0.0\build\PICrouter\lib\libmruby.a(etc.o)
 .text.mrb_block_proc
                0x00000000       0x10 ..\mruby-1.0.0\build\PICrouter\lib\libmruby.a(etc.o)
 .text          0x00000000        0x0 ..\mruby-1.0.0\build\PICrouter\lib\libmruby.a(init.o)
 .data          0x00000000        0x0 ..\mruby-1.0.0\build\PICrouter\lib\libmruby.a(init.o)
 .bss           0x00000000        0x0 ..\mruby-1.0.0\build\PICrouter\lib\libmruby.a(init.o)
 .reginfo       0x00000000       0x18 ..\mruby-1.0.0\build\PICrouter\lib\libmruby.a(init.o)
 .text          0x00000000        0x0 ..\mruby-1.0.0\build\PICrouter\lib\libmruby.a(numeric.o)
 .data          0x00000000        0x0 ..\mruby-1.0.0\build\PICrouter\lib\libmruby.a(numeric.o)
 .bss           0x00000000        0x0 ..\mruby-1.0.0\build\PICrouter\lib\libmruby.a(numeric.o)
 .reginfo       0x00000000       0x18 ..\mruby-1.0.0\build\PICrouter\lib\libmruby.a(numeric.o)
 .text.mrb_num_div
                0x00000000       0x38 ..\mruby-1.0.0\build\PICrouter\lib\libmruby.a(numeric.o)
 .text          0x00000000        0x0 ..\mruby-1.0.0\build\PICrouter\lib\libmruby.a(range.o)
 .data          0x00000000        0x0 ..\mruby-1.0.0\build\PICrouter\lib\libmruby.a(range.o)
 .bss           0x00000000        0x0 ..\mruby-1.0.0\build\PICrouter\lib\libmruby.a(range.o)
 .reginfo       0x00000000       0x18 ..\mruby-1.0.0\build\PICrouter\lib\libmruby.a(range.o)
 .text          0x00000000        0x0 ..\mruby-1.0.0\build\PICrouter\lib\libmruby.a(mrblib.o)
 .data          0x00000000        0x0 ..\mruby-1.0.0\build\PICrouter\lib\libmruby.a(mrblib.o)
 .bss           0x00000000        0x0 ..\mruby-1.0.0\build\PICrouter\lib\libmruby.a(mrblib.o)
 .reginfo       0x00000000       0x18 ..\mruby-1.0.0\build\PICrouter\lib\libmruby.a(mrblib.o)
 .text          0x00000000        0x0 ..\mruby-1.0.0\build\PICrouter\lib\libmruby.a(compar.o)
 .data          0x00000000        0x0 ..\mruby-1.0.0\build\PICrouter\lib\libmruby.a(compar.o)
 .bss           0x00000000        0x0 ..\mruby-1.0.0\build\PICrouter\lib\libmruby.a(compar.o)
 .reginfo       0x00000000       0x18 ..\mruby-1.0.0\build\PICrouter\lib\libmruby.a(compar.o)
 .text          0x00000000        0x0 ..\mruby-1.0.0\build\PICrouter\lib\libmruby.a(enum.o)
 .data          0x00000000        0x0 ..\mruby-1.0.0\build\PICrouter\lib\libmruby.a(enum.o)
 .bss           0x00000000        0x0 ..\mruby-1.0.0\build\PICrouter\lib\libmruby.a(enum.o)
 .reginfo       0x00000000       0x18 ..\mruby-1.0.0\build\PICrouter\lib\libmruby.a(enum.o)
 .text          0x00000000        0x0 c:/program files (x86)/microchip/xc32/v1.22/bin/../lib/gcc/pic32mx/4.5.2/../../../../pic32mx/lib/./proc/32MX795F512H\processor.o
 .data          0x00000000        0x0 c:/program files (x86)/microchip/xc32/v1.22/bin/../lib/gcc/pic32mx/4.5.2/../../../../pic32mx/lib/./proc/32MX795F512H\processor.o
 .bss           0x00000000        0x0 c:/program files (x86)/microchip/xc32/v1.22/bin/../lib/gcc/pic32mx/4.5.2/../../../../pic32mx/lib/./proc/32MX795F512H\processor.o
 .reginfo       0x00000000       0x18 c:/program files (x86)/microchip/xc32/v1.22/bin/../lib/gcc/pic32mx/4.5.2/../../../../pic32mx/lib/./proc/32MX795F512H\processor.o
 .text          0x00000000        0x0 c:/program files (x86)/microchip/xc32/v1.22/bin/../lib/gcc/pic32mx/4.5.2/../../../../pic32mx/lib/mips16\libmchp_peripheral.a(read_core_timer_lib.o)
 .data          0x00000000        0x0 c:/program files (x86)/microchip/xc32/v1.22/bin/../lib/gcc/pic32mx/4.5.2/../../../../pic32mx/lib/mips16\libmchp_peripheral.a(read_core_timer_lib.o)
 .bss           0x00000000        0x0 c:/program files (x86)/microchip/xc32/v1.22/bin/../lib/gcc/pic32mx/4.5.2/../../../../pic32mx/lib/mips16\libmchp_peripheral.a(read_core_timer_lib.o)
 .reginfo       0x00000000       0x18 c:/program files (x86)/microchip/xc32/v1.22/bin/../lib/gcc/pic32mx/4.5.2/../../../../pic32mx/lib/mips16\libmchp_peripheral.a(read_core_timer_lib.o)
 .pdr           0x00000000       0x20 c:/program files (x86)/microchip/xc32/v1.22/bin/../lib/gcc/pic32mx/4.5.2/../../../../pic32mx/lib/mips16\libmchp_peripheral.a(read_core_timer_lib.o)
 .text          0x00000000        0x0 c:/program files (x86)/microchip/xc32/v1.22/bin/../lib/gcc/pic32mx/4.5.2/../../../../pic32mx/lib/mips16\libmchp_peripheral_32MX795F512H.a(eth_ack_packet_lib.o)
 .data          0x00000000        0x0 c:/program files (x86)/microchip/xc32/v1.22/bin/../lib/gcc/pic32mx/4.5.2/../../../../pic32mx/lib/mips16\libmchp_peripheral_32MX795F512H.a(eth_ack_packet_lib.o)
 .bss           0x00000000        0x0 c:/program files (x86)/microchip/xc32/v1.22/bin/../lib/gcc/pic32mx/4.5.2/../../../../pic32mx/lib/mips16\libmchp_peripheral_32MX795F512H.a(eth_ack_packet_lib.o)
 .reginfo       0x00000000       0x18 c:/program files (x86)/microchip/xc32/v1.22/bin/../lib/gcc/pic32mx/4.5.2/../../../../pic32mx/lib/mips16\libmchp_peripheral_32MX795F512H.a(eth_ack_packet_lib.o)
 .pdr           0x00000000       0xc0 c:/program files (x86)/microchip/xc32/v1.22/bin/../lib/gcc/pic32mx/4.5.2/../../../../pic32mx/lib/mips16\libmchp_peripheral_32MX795F512H.a(eth_ack_packet_lib.o)
 .text.EthRxAckBuffer
                0x00000000        0xc c:/program files (x86)/microchip/xc32/v1.22/bin/../lib/gcc/pic32mx/4.5.2/../../../../pic32mx/lib/mips16\libmchp_peripheral_32MX795F512H.a(eth_ack_packet_lib.o)
 .text.EthTxAckBuffer
                0x00000000       0x1c c:/program files (x86)/microchip/xc32/v1.22/bin/../lib/gcc/pic32mx/4.5.2/../../../../pic32mx/lib/mips16\libmchp_peripheral_32MX795F512H.a(eth_ack_packet_lib.o)
 .text          0x00000000        0x0 c:/program files (x86)/microchip/xc32/v1.22/bin/../lib/gcc/pic32mx/4.5.2/../../../../pic32mx/lib/mips16\libmchp_peripheral_32MX795F512H.a(eth_descriptors_add_lib.o)
 .data          0x00000000        0x0 c:/program files (x86)/microchip/xc32/v1.22/bin/../lib/gcc/pic32mx/4.5.2/../../../../pic32mx/lib/mips16\libmchp_peripheral_32MX795F512H.a(eth_descriptors_add_lib.o)
 .bss           0x00000000        0x0 c:/program files (x86)/microchip/xc32/v1.22/bin/../lib/gcc/pic32mx/4.5.2/../../../../pic32mx/lib/mips16\libmchp_peripheral_32MX795F512H.a(eth_descriptors_add_lib.o)
 .reginfo       0x00000000       0x18 c:/program files (x86)/microchip/xc32/v1.22/bin/../lib/gcc/pic32mx/4.5.2/../../../../pic32mx/lib/mips16\libmchp_peripheral_32MX795F512H.a(eth_descriptors_add_lib.o)
 .pdr           0x00000000       0x40 c:/program files (x86)/microchip/xc32/v1.22/bin/../lib/gcc/pic32mx/4.5.2/../../../../pic32mx/lib/mips16\libmchp_peripheral_32MX795F512H.a(eth_descriptors_add_lib.o)
 .text.EthDescriptorsAdd
                0x00000000       0xa0 c:/program files (x86)/microchip/xc32/v1.22/bin/../lib/gcc/pic32mx/4.5.2/../../../../pic32mx/lib/mips16\libmchp_peripheral_32MX795F512H.a(eth_descriptors_add_lib.o)
 .text          0x00000000        0x0 c:/program files (x86)/microchip/xc32/v1.22/bin/../lib/gcc/pic32mx/4.5.2/../../../../pic32mx/lib/mips16\libmchp_peripheral_32MX795F512H.a(eth_init_lib.o)
 .data          0x00000000        0x0 c:/program files (x86)/microchip/xc32/v1.22/bin/../lib/gcc/pic32mx/4.5.2/../../../../pic32mx/lib/mips16\libmchp_peripheral_32MX795F512H.a(eth_init_lib.o)
 .bss           0x00000000        0x0 c:/program files (x86)/microchip/xc32/v1.22/bin/../lib/gcc/pic32mx/4.5.2/../../../../pic32mx/lib/mips16\libmchp_peripheral_32MX795F512H.a(eth_init_lib.o)
 .reginfo       0x00000000       0x18 c:/program files (x86)/microchip/xc32/v1.22/bin/../lib/gcc/pic32mx/4.5.2/../../../../pic32mx/lib/mips16\libmchp_peripheral_32MX795F512H.a(eth_init_lib.o)
 .pdr           0x00000000       0x20 c:/program files (x86)/microchip/xc32/v1.22/bin/../lib/gcc/pic32mx/4.5.2/../../../../pic32mx/lib/mips16\libmchp_peripheral_32MX795F512H.a(eth_init_lib.o)
 .text          0x00000000        0x0 c:/program files (x86)/microchip/xc32/v1.22/bin/../lib/gcc/pic32mx/4.5.2/../../../../pic32mx/lib/mips16\libmchp_peripheral_32MX795F512H.a(eth_mac_open_lib.o)
 .data          0x00000000        0x0 c:/program files (x86)/microchip/xc32/v1.22/bin/../lib/gcc/pic32mx/4.5.2/../../../../pic32mx/lib/mips16\libmchp_peripheral_32MX795F512H.a(eth_mac_open_lib.o)
 .bss           0x00000000        0x0 c:/program files (x86)/microchip/xc32/v1.22/bin/../lib/gcc/pic32mx/4.5.2/../../../../pic32mx/lib/mips16\libmchp_peripheral_32MX795F512H.a(eth_mac_open_lib.o)
 .reginfo       0x00000000       0x18 c:/program files (x86)/microchip/xc32/v1.22/bin/../lib/gcc/pic32mx/4.5.2/../../../../pic32mx/lib/mips16\libmchp_peripheral_32MX795F512H.a(eth_mac_open_lib.o)
 .pdr           0x00000000       0x20 c:/program files (x86)/microchip/xc32/v1.22/bin/../lib/gcc/pic32mx/4.5.2/../../../../pic32mx/lib/mips16\libmchp_peripheral_32MX795F512H.a(eth_mac_open_lib.o)
 .text          0x00000000        0x0 c:/program files (x86)/microchip/xc32/v1.22/bin/../lib/gcc/pic32mx/4.5.2/../../../../pic32mx/lib/mips16\libmchp_peripheral_32MX795F512H.a(eth_mac_set_address_max_lib.o)
 .data          0x00000000        0x0 c:/program files (x86)/microchip/xc32/v1.22/bin/../lib/gcc/pic32mx/4.5.2/../../../../pic32mx/lib/mips16\libmchp_peripheral_32MX795F512H.a(eth_mac_set_address_max_lib.o)
 .bss           0x00000000        0x0 c:/program files (x86)/microchip/xc32/v1.22/bin/../lib/gcc/pic32mx/4.5.2/../../../../pic32mx/lib/mips16\libmchp_peripheral_32MX795F512H.a(eth_mac_set_address_max_lib.o)
 .reginfo       0x00000000       0x18 c:/program files (x86)/microchip/xc32/v1.22/bin/../lib/gcc/pic32mx/4.5.2/../../../../pic32mx/lib/mips16\libmchp_peripheral_32MX795F512H.a(eth_mac_set_address_max_lib.o)
 .pdr           0x00000000       0x60 c:/program files (x86)/microchip/xc32/v1.22/bin/../lib/gcc/pic32mx/4.5.2/../../../../pic32mx/lib/mips16\libmchp_peripheral_32MX795F512H.a(eth_mac_set_address_max_lib.o)
 .text.EthMACGetAddress
                0x00000000       0x30 c:/program files (x86)/microchip/xc32/v1.22/bin/../lib/gcc/pic32mx/4.5.2/../../../../pic32mx/lib/mips16\libmchp_peripheral_32MX795F512H.a(eth_mac_set_address_max_lib.o)
 .text.EthMACSetMaxFrame
                0x00000000        0xc c:/program files (x86)/microchip/xc32/v1.22/bin/../lib/gcc/pic32mx/4.5.2/../../../../pic32mx/lib/mips16\libmchp_peripheral_32MX795F512H.a(eth_mac_set_address_max_lib.o)
 .text          0x00000000        0x0 c:/program files (x86)/microchip/xc32/v1.22/bin/../lib/gcc/pic32mx/4.5.2/../../../../pic32mx/lib/mips16\libmchp_peripheral_32MX795F512H.a(eth_rx_buffers_append_lib.o)
 .data          0x00000000        0x0 c:/program files (x86)/microchip/xc32/v1.22/bin/../lib/gcc/pic32mx/4.5.2/../../../../pic32mx/lib/mips16\libmchp_peripheral_32MX795F512H.a(eth_rx_buffers_append_lib.o)
 .bss           0x00000000        0x0 c:/program files (x86)/microchip/xc32/v1.22/bin/../lib/gcc/pic32mx/4.5.2/../../../../pic32mx/lib/mips16\libmchp_peripheral_32MX795F512H.a(eth_rx_buffers_append_lib.o)
 .reginfo       0x00000000       0x18 c:/program files (x86)/microchip/xc32/v1.22/bin/../lib/gcc/pic32mx/4.5.2/../../../../pic32mx/lib/mips16\libmchp_peripheral_32MX795F512H.a(eth_rx_buffers_append_lib.o)
 .pdr           0x00000000       0x20 c:/program files (x86)/microchip/xc32/v1.22/bin/../lib/gcc/pic32mx/4.5.2/../../../../pic32mx/lib/mips16\libmchp_peripheral_32MX795F512H.a(eth_rx_buffers_append_lib.o)
 .text          0x00000000        0x0 c:/program files (x86)/microchip/xc32/v1.22/bin/../lib/gcc/pic32mx/4.5.2/../../../../pic32mx/lib/mips16\libmchp_peripheral_32MX795F512H.a(eth_rx_filters_lib.o)
 .data          0x00000000        0x0 c:/program files (x86)/microchip/xc32/v1.22/bin/../lib/gcc/pic32mx/4.5.2/../../../../pic32mx/lib/mips16\libmchp_peripheral_32MX795F512H.a(eth_rx_filters_lib.o)
 .bss           0x00000000        0x0 c:/program files (x86)/microchip/xc32/v1.22/bin/../lib/gcc/pic32mx/4.5.2/../../../../pic32mx/lib/mips16\libmchp_peripheral_32MX795F512H.a(eth_rx_filters_lib.o)
 .reginfo       0x00000000       0x18 c:/program files (x86)/microchip/xc32/v1.22/bin/../lib/gcc/pic32mx/4.5.2/../../../../pic32mx/lib/mips16\libmchp_peripheral_32MX795F512H.a(eth_rx_filters_lib.o)
 .pdr           0x00000000       0xc0 c:/program files (x86)/microchip/xc32/v1.22/bin/../lib/gcc/pic32mx/4.5.2/../../../../pic32mx/lib/mips16\libmchp_peripheral_32MX795F512H.a(eth_rx_filters_lib.o)
 .text.EthRxFiltersWrite
                0x00000000        0xc c:/program files (x86)/microchip/xc32/v1.22/bin/../lib/gcc/pic32mx/4.5.2/../../../../pic32mx/lib/mips16\libmchp_peripheral_32MX795F512H.a(eth_rx_filters_lib.o)
 .text.EthRxFiltersPMSet
                0x00000000       0x54 c:/program files (x86)/microchip/xc32/v1.22/bin/../lib/gcc/pic32mx/4.5.2/../../../../pic32mx/lib/mips16\libmchp_peripheral_32MX795F512H.a(eth_rx_filters_lib.o)
 .text.EthRxFiltersPMClr
                0x00000000       0x10 c:/program files (x86)/microchip/xc32/v1.22/bin/../lib/gcc/pic32mx/4.5.2/../../../../pic32mx/lib/mips16\libmchp_peripheral_32MX795F512H.a(eth_rx_filters_lib.o)
 .text          0x00000000        0x0 c:/program files (x86)/microchip/xc32/v1.22/bin/../lib/gcc/pic32mx/4.5.2/../../../../pic32mx/lib/mips16\libmchp_peripheral_32MX795F512H.a(eth_rx_get_packet_lib.o)
 .data          0x00000000        0x0 c:/program files (x86)/microchip/xc32/v1.22/bin/../lib/gcc/pic32mx/4.5.2/../../../../pic32mx/lib/mips16\libmchp_peripheral_32MX795F512H.a(eth_rx_get_packet_lib.o)
 .bss           0x00000000        0x0 c:/program files (x86)/microchip/xc32/v1.22/bin/../lib/gcc/pic32mx/4.5.2/../../../../pic32mx/lib/mips16\libmchp_peripheral_32MX795F512H.a(eth_rx_get_packet_lib.o)
 .reginfo       0x00000000       0x18 c:/program files (x86)/microchip/xc32/v1.22/bin/../lib/gcc/pic32mx/4.5.2/../../../../pic32mx/lib/mips16\libmchp_peripheral_32MX795F512H.a(eth_rx_get_packet_lib.o)
 .pdr           0x00000000       0x40 c:/program files (x86)/microchip/xc32/v1.22/bin/../lib/gcc/pic32mx/4.5.2/../../../../pic32mx/lib/mips16\libmchp_peripheral_32MX795F512H.a(eth_rx_get_packet_lib.o)
 .text          0x00000000        0x0 c:/program files (x86)/microchip/xc32/v1.22/bin/../lib/gcc/pic32mx/4.5.2/../../../../pic32mx/lib/mips16\libmchp_peripheral_32MX795F512H.a(eth_rx_set_buffer_size_lib.o)
 .data          0x00000000        0x0 c:/program files (x86)/microchip/xc32/v1.22/bin/../lib/gcc/pic32mx/4.5.2/../../../../pic32mx/lib/mips16\libmchp_peripheral_32MX795F512H.a(eth_rx_set_buffer_size_lib.o)
 .bss           0x00000000        0x0 c:/program files (x86)/microchip/xc32/v1.22/bin/../lib/gcc/pic32mx/4.5.2/../../../../pic32mx/lib/mips16\libmchp_peripheral_32MX795F512H.a(eth_rx_set_buffer_size_lib.o)
 .reginfo       0x00000000       0x18 c:/program files (x86)/microchip/xc32/v1.22/bin/../lib/gcc/pic32mx/4.5.2/../../../../pic32mx/lib/mips16\libmchp_peripheral_32MX795F512H.a(eth_rx_set_buffer_size_lib.o)
 .pdr           0x00000000       0x20 c:/program files (x86)/microchip/xc32/v1.22/bin/../lib/gcc/pic32mx/4.5.2/../../../../pic32mx/lib/mips16\libmchp_peripheral_32MX795F512H.a(eth_rx_set_buffer_size_lib.o)
 .text          0x00000000        0x0 c:/program files (x86)/microchip/xc32/v1.22/bin/../lib/gcc/pic32mx/4.5.2/../../../../pic32mx/lib/mips16\libmchp_peripheral_32MX795F512H.a(eth_tx_packet_lib.o)
 .data          0x00000000        0x0 c:/program files (x86)/microchip/xc32/v1.22/bin/../lib/gcc/pic32mx/4.5.2/../../../../pic32mx/lib/mips16\libmchp_peripheral_32MX795F512H.a(eth_tx_packet_lib.o)
 .bss           0x00000000        0x0 c:/program files (x86)/microchip/xc32/v1.22/bin/../lib/gcc/pic32mx/4.5.2/../../../../pic32mx/lib/mips16\libmchp_peripheral_32MX795F512H.a(eth_tx_packet_lib.o)
 .reginfo       0x00000000       0x18 c:/program files (x86)/microchip/xc32/v1.22/bin/../lib/gcc/pic32mx/4.5.2/../../../../pic32mx/lib/mips16\libmchp_peripheral_32MX795F512H.a(eth_tx_packet_lib.o)
 .pdr           0x00000000       0xc0 c:/program files (x86)/microchip/xc32/v1.22/bin/../lib/gcc/pic32mx/4.5.2/../../../../pic32mx/lib/mips16\libmchp_peripheral_32MX795F512H.a(eth_tx_packet_lib.o)
 .text.EthTxSendPacket
                0x00000000       0xd8 c:/program files (x86)/microchip/xc32/v1.22/bin/../lib/gcc/pic32mx/4.5.2/../../../../pic32mx/lib/mips16\libmchp_peripheral_32MX795F512H.a(eth_tx_packet_lib.o)
 .text._EthFindPacket
                0x00000000       0x24 c:/program files (x86)/microchip/xc32/v1.22/bin/../lib/gcc/pic32mx/4.5.2/../../../../pic32mx/lib/mips16\libmchp_peripheral_32MX795F512H.a(eth_tx_packet_lib.o)
 .text.EthTxGetBufferStatus
                0x00000000       0x34 c:/program files (x86)/microchip/xc32/v1.22/bin/../lib/gcc/pic32mx/4.5.2/../../../../pic32mx/lib/mips16\libmchp_peripheral_32MX795F512H.a(eth_tx_packet_lib.o)
 .text          0x00000000        0x0 c:/program files (x86)/microchip/xc32/v1.22/bin/../lib/gcc/pic32mx/4.5.2/../../../../pic32mx/lib/mips16\libmchp_peripheral_32MX795F512H.a(_eth_append_busy_list_lib.o)
 .data          0x00000000        0x0 c:/program files (x86)/microchip/xc32/v1.22/bin/../lib/gcc/pic32mx/4.5.2/../../../../pic32mx/lib/mips16\libmchp_peripheral_32MX795F512H.a(_eth_append_busy_list_lib.o)
 .bss           0x00000000        0x0 c:/program files (x86)/microchip/xc32/v1.22/bin/../lib/gcc/pic32mx/4.5.2/../../../../pic32mx/lib/mips16\libmchp_peripheral_32MX795F512H.a(_eth_append_busy_list_lib.o)
 .reginfo       0x00000000       0x18 c:/program files (x86)/microchip/xc32/v1.22/bin/../lib/gcc/pic32mx/4.5.2/../../../../pic32mx/lib/mips16\libmchp_peripheral_32MX795F512H.a(_eth_append_busy_list_lib.o)
 .pdr           0x00000000       0x20 c:/program files (x86)/microchip/xc32/v1.22/bin/../lib/gcc/pic32mx/4.5.2/../../../../pic32mx/lib/mips16\libmchp_peripheral_32MX795F512H.a(_eth_append_busy_list_lib.o)
 .text          0x00000000        0x0 c:/program files (x86)/microchip/xc32/v1.22/bin/../lib/gcc/pic32mx/4.5.2/../../../../pic32mx/lib/mips16\libmchp_peripheral_32MX795F512H.a(eth_miim_access.o)
 .data          0x00000000        0x0 c:/program files (x86)/microchip/xc32/v1.22/bin/../lib/gcc/pic32mx/4.5.2/../../../../pic32mx/lib/mips16\libmchp_peripheral_32MX795F512H.a(eth_miim_access.o)
 .bss           0x00000000        0x0 c:/program files (x86)/microchip/xc32/v1.22/bin/../lib/gcc/pic32mx/4.5.2/../../../../pic32mx/lib/mips16\libmchp_peripheral_32MX795F512H.a(eth_miim_access.o)
 .reginfo       0x00000000       0x18 c:/program files (x86)/microchip/xc32/v1.22/bin/../lib/gcc/pic32mx/4.5.2/../../../../pic32mx/lib/mips16\libmchp_peripheral_32MX795F512H.a(eth_miim_access.o)
 .pdr           0x00000000       0xc0 c:/program files (x86)/microchip/xc32/v1.22/bin/../lib/gcc/pic32mx/4.5.2/../../../../pic32mx/lib/mips16\libmchp_peripheral_32MX795F512H.a(eth_miim_access.o)
 .text.EthMIIMScanStart
                0x00000000       0x28 c:/program files (x86)/microchip/xc32/v1.22/bin/../lib/gcc/pic32mx/4.5.2/../../../../pic32mx/lib/mips16\libmchp_peripheral_32MX795F512H.a(eth_miim_access.o)
 .text.EthMIIMScanResult
                0x00000000       0x1c c:/program files (x86)/microchip/xc32/v1.22/bin/../lib/gcc/pic32mx/4.5.2/../../../../pic32mx/lib/mips16\libmchp_peripheral_32MX795F512H.a(eth_miim_access.o)
 .text          0x00000000        0x0 c:/program files (x86)/microchip/xc32/v1.22/bin/../lib/gcc/pic32mx/4.5.2/../../../../pic32mx/lib/mips16\libmchp_peripheral_32MX795F512H.a(soft_reset_lib.o)
 .data          0x00000000        0x0 c:/program files (x86)/microchip/xc32/v1.22/bin/../lib/gcc/pic32mx/4.5.2/../../../../pic32mx/lib/mips16\libmchp_peripheral_32MX795F512H.a(soft_reset_lib.o)
 .bss           0x00000000        0x0 c:/program files (x86)/microchip/xc32/v1.22/bin/../lib/gcc/pic32mx/4.5.2/../../../../pic32mx/lib/mips16\libmchp_peripheral_32MX795F512H.a(soft_reset_lib.o)
 .reginfo       0x00000000       0x18 c:/program files (x86)/microchip/xc32/v1.22/bin/../lib/gcc/pic32mx/4.5.2/../../../../pic32mx/lib/mips16\libmchp_peripheral_32MX795F512H.a(soft_reset_lib.o)
 .pdr           0x00000000       0x20 c:/program files (x86)/microchip/xc32/v1.22/bin/../lib/gcc/pic32mx/4.5.2/../../../../pic32mx/lib/mips16\libmchp_peripheral_32MX795F512H.a(soft_reset_lib.o)
 .text          0x00000000        0x0 c:/program files (x86)/microchip/xc32/v1.22/bin/../lib/gcc/pic32mx/4.5.2/../../../../pic32mx/lib/mips16\libmchp_peripheral_32MX795F512H.a(pcache.o)
 .data          0x00000000        0x0 c:/program files (x86)/microchip/xc32/v1.22/bin/../lib/gcc/pic32mx/4.5.2/../../../../pic32mx/lib/mips16\libmchp_peripheral_32MX795F512H.a(pcache.o)
 .bss           0x00000000        0x0 c:/program files (x86)/microchip/xc32/v1.22/bin/../lib/gcc/pic32mx/4.5.2/../../../../pic32mx/lib/mips16\libmchp_peripheral_32MX795F512H.a(pcache.o)
 .reginfo       0x00000000       0x18 c:/program files (x86)/microchip/xc32/v1.22/bin/../lib/gcc/pic32mx/4.5.2/../../../../pic32mx/lib/mips16\libmchp_peripheral_32MX795F512H.a(pcache.o)
 .pdr           0x00000000       0x40 c:/program files (x86)/microchip/xc32/v1.22/bin/../lib/gcc/pic32mx/4.5.2/../../../../pic32mx/lib/mips16\libmchp_peripheral_32MX795F512H.a(pcache.o)
 .text.CheKseg0CacheOff
                0x00000000       0x18 c:/program files (x86)/microchip/xc32/v1.22/bin/../lib/gcc/pic32mx/4.5.2/../../../../pic32mx/lib/mips16\libmchp_peripheral_32MX795F512H.a(pcache.o)
 .text          0x00000000        0x0 c:/program files (x86)/microchip/xc32/v1.22/bin/../lib/gcc/pic32mx/4.5.2/../../../../pic32mx/lib/mips16\libmchp_peripheral_32MX795F512H.a(int_disable_interrupts_lib.o)
 .data          0x00000000        0x0 c:/program files (x86)/microchip/xc32/v1.22/bin/../lib/gcc/pic32mx/4.5.2/../../../../pic32mx/lib/mips16\libmchp_peripheral_32MX795F512H.a(int_disable_interrupts_lib.o)
 .bss           0x00000000        0x0 c:/program files (x86)/microchip/xc32/v1.22/bin/../lib/gcc/pic32mx/4.5.2/../../../../pic32mx/lib/mips16\libmchp_peripheral_32MX795F512H.a(int_disable_interrupts_lib.o)
 .reginfo       0x00000000       0x18 c:/program files (x86)/microchip/xc32/v1.22/bin/../lib/gcc/pic32mx/4.5.2/../../../../pic32mx/lib/mips16\libmchp_peripheral_32MX795F512H.a(int_disable_interrupts_lib.o)
 .pdr           0x00000000       0x20 c:/program files (x86)/microchip/xc32/v1.22/bin/../lib/gcc/pic32mx/4.5.2/../../../../pic32mx/lib/mips16\libmchp_peripheral_32MX795F512H.a(int_disable_interrupts_lib.o)
 .text          0x00000000        0x0 c:/program files (x86)/microchip/xc32/v1.22/bin/../lib/gcc/pic32mx/4.5.2/../../../../pic32mx/lib/mips16\libmchp_peripheral_32MX795F512H.a(int_restore_interrupts_lib.o)
 .data          0x00000000        0x0 c:/program files (x86)/microchip/xc32/v1.22/bin/../lib/gcc/pic32mx/4.5.2/../../../../pic32mx/lib/mips16\libmchp_peripheral_32MX795F512H.a(int_restore_interrupts_lib.o)
 .bss           0x00000000        0x0 c:/program files (x86)/microchip/xc32/v1.22/bin/../lib/gcc/pic32mx/4.5.2/../../../../pic32mx/lib/mips16\libmchp_peripheral_32MX795F512H.a(int_restore_interrupts_lib.o)
 .reginfo       0x00000000       0x18 c:/program files (x86)/microchip/xc32/v1.22/bin/../lib/gcc/pic32mx/4.5.2/../../../../pic32mx/lib/mips16\libmchp_peripheral_32MX795F512H.a(int_restore_interrupts_lib.o)
 .pdr           0x00000000       0x20 c:/program files (x86)/microchip/xc32/v1.22/bin/../lib/gcc/pic32mx/4.5.2/../../../../pic32mx/lib/mips16\libmchp_peripheral_32MX795F512H.a(int_restore_interrupts_lib.o)
 .text          0x00000000        0x0 c:/program files (x86)/microchip/xc32/v1.22/bin/../lib/gcc/pic32mx/4.5.2/../../../../pic32mx/lib/mips16\libmchp_peripheral_32MX795F512H.a(int_enable_mv_int_lib.o)
 .data          0x00000000        0x0 c:/program files (x86)/microchip/xc32/v1.22/bin/../lib/gcc/pic32mx/4.5.2/../../../../pic32mx/lib/mips16\libmchp_peripheral_32MX795F512H.a(int_enable_mv_int_lib.o)
 .bss           0x00000000        0x0 c:/program files (x86)/microchip/xc32/v1.22/bin/../lib/gcc/pic32mx/4.5.2/../../../../pic32mx/lib/mips16\libmchp_peripheral_32MX795F512H.a(int_enable_mv_int_lib.o)
 .reginfo       0x00000000       0x18 c:/program files (x86)/microchip/xc32/v1.22/bin/../lib/gcc/pic32mx/4.5.2/../../../../pic32mx/lib/mips16\libmchp_peripheral_32MX795F512H.a(int_enable_mv_int_lib.o)
 .pdr           0x00000000       0x20 c:/program files (x86)/microchip/xc32/v1.22/bin/../lib/gcc/pic32mx/4.5.2/../../../../pic32mx/lib/mips16\libmchp_peripheral_32MX795F512H.a(int_enable_mv_int_lib.o)
 .text          0x00000000        0x0 c:/program files (x86)/microchip/xc32/v1.22/bin/../lib/gcc/pic32mx/4.5.2/../../../../pic32mx/lib/mips16\libmchp_peripheral_32MX795F512H.a(int_tbl_lib.o)
 .data          0x00000000        0x0 c:/program files (x86)/microchip/xc32/v1.22/bin/../lib/gcc/pic32mx/4.5.2/../../../../pic32mx/lib/mips16\libmchp_peripheral_32MX795F512H.a(int_tbl_lib.o)
 .bss           0x00000000        0x0 c:/program files (x86)/microchip/xc32/v1.22/bin/../lib/gcc/pic32mx/4.5.2/../../../../pic32mx/lib/mips16\libmchp_peripheral_32MX795F512H.a(int_tbl_lib.o)
 .reginfo       0x00000000       0x18 c:/program files (x86)/microchip/xc32/v1.22/bin/../lib/gcc/pic32mx/4.5.2/../../../../pic32mx/lib/mips16\libmchp_peripheral_32MX795F512H.a(int_tbl_lib.o)
 .pdr           0x00000000      0x120 c:/program files (x86)/microchip/xc32/v1.22/bin/../lib/gcc/pic32mx/4.5.2/../../../../pic32mx/lib/mips16\libmchp_peripheral_32MX795F512H.a(int_tbl_lib.o)
 .text.INTSetFlag
                0x00000000       0x18 c:/program files (x86)/microchip/xc32/v1.22/bin/../lib/gcc/pic32mx/4.5.2/../../../../pic32mx/lib/mips16\libmchp_peripheral_32MX795F512H.a(int_tbl_lib.o)
 .text.INTGetFlag
                0x00000000       0x18 c:/program files (x86)/microchip/xc32/v1.22/bin/../lib/gcc/pic32mx/4.5.2/../../../../pic32mx/lib/mips16\libmchp_peripheral_32MX795F512H.a(int_tbl_lib.o)
 .text.INTGetEnable
                0x00000000       0x18 c:/program files (x86)/microchip/xc32/v1.22/bin/../lib/gcc/pic32mx/4.5.2/../../../../pic32mx/lib/mips16\libmchp_peripheral_32MX795F512H.a(int_tbl_lib.o)
 .text.INTSetVectorPriority
                0x00000000       0x20 c:/program files (x86)/microchip/xc32/v1.22/bin/../lib/gcc/pic32mx/4.5.2/../../../../pic32mx/lib/mips16\libmchp_peripheral_32MX795F512H.a(int_tbl_lib.o)
 .text.INTGetVectorPriority
                0x00000000       0x1c c:/program files (x86)/microchip/xc32/v1.22/bin/../lib/gcc/pic32mx/4.5.2/../../../../pic32mx/lib/mips16\libmchp_peripheral_32MX795F512H.a(int_tbl_lib.o)
 .text.INTSetVectorSubPriority
                0x00000000       0x20 c:/program files (x86)/microchip/xc32/v1.22/bin/../lib/gcc/pic32mx/4.5.2/../../../../pic32mx/lib/mips16\libmchp_peripheral_32MX795F512H.a(int_tbl_lib.o)
 .text.INTGetVectorSubPriority
                0x00000000       0x1c c:/program files (x86)/microchip/xc32/v1.22/bin/../lib/gcc/pic32mx/4.5.2/../../../../pic32mx/lib/mips16\libmchp_peripheral_32MX795F512H.a(int_tbl_lib.o)
 .text          0x00000000        0x0 c:/program files (x86)/microchip/xc32/v1.22/bin/../lib/gcc/pic32mx/4.5.2/../../../../pic32mx/lib/mips16\libmchp_peripheral_32MX795F512H.a(spi_chn_close_lib.o)
 .data          0x00000000        0x0 c:/program files (x86)/microchip/xc32/v1.22/bin/../lib/gcc/pic32mx/4.5.2/../../../../pic32mx/lib/mips16\libmchp_peripheral_32MX795F512H.a(spi_chn_close_lib.o)
 .bss           0x00000000        0x0 c:/program files (x86)/microchip/xc32/v1.22/bin/../lib/gcc/pic32mx/4.5.2/../../../../pic32mx/lib/mips16\libmchp_peripheral_32MX795F512H.a(spi_chn_close_lib.o)
 .reginfo       0x00000000       0x18 c:/program files (x86)/microchip/xc32/v1.22/bin/../lib/gcc/pic32mx/4.5.2/../../../../pic32mx/lib/mips16\libmchp_peripheral_32MX795F512H.a(spi_chn_close_lib.o)
 .pdr           0x00000000       0x20 c:/program files (x86)/microchip/xc32/v1.22/bin/../lib/gcc/pic32mx/4.5.2/../../../../pic32mx/lib/mips16\libmchp_peripheral_32MX795F512H.a(spi_chn_close_lib.o)
 .text          0x00000000        0x0 c:/program files (x86)/microchip/xc32/v1.22/bin/../lib/gcc/pic32mx/4.5.2/../../../../pic32mx/lib/mips16\libmchp_peripheral_32MX795F512H.a(spi_chn_open_lib.o)
 .data          0x00000000        0x0 c:/program files (x86)/microchip/xc32/v1.22/bin/../lib/gcc/pic32mx/4.5.2/../../../../pic32mx/lib/mips16\libmchp_peripheral_32MX795F512H.a(spi_chn_open_lib.o)
 .bss           0x00000000        0x0 c:/program files (x86)/microchip/xc32/v1.22/bin/../lib/gcc/pic32mx/4.5.2/../../../../pic32mx/lib/mips16\libmchp_peripheral_32MX795F512H.a(spi_chn_open_lib.o)
 .reginfo       0x00000000       0x18 c:/program files (x86)/microchip/xc32/v1.22/bin/../lib/gcc/pic32mx/4.5.2/../../../../pic32mx/lib/mips16\libmchp_peripheral_32MX795F512H.a(spi_chn_open_lib.o)
 .pdr           0x00000000       0x20 c:/program files (x86)/microchip/xc32/v1.22/bin/../lib/gcc/pic32mx/4.5.2/../../../../pic32mx/lib/mips16\libmchp_peripheral_32MX795F512H.a(spi_chn_open_lib.o)
 .text          0x00000000        0x0 c:/program files (x86)/microchip/xc32/v1.22/bin/../lib/gcc/pic32mx/4.5.2/../../../../pic32mx/lib/mips16\libmchp_peripheral_32MX795F512H.a(spi_io_tbl_libp.o)
 .data          0x00000000        0x0 c:/program files (x86)/microchip/xc32/v1.22/bin/../lib/gcc/pic32mx/4.5.2/../../../../pic32mx/lib/mips16\libmchp_peripheral_32MX795F512H.a(spi_io_tbl_libp.o)
 .bss           0x00000000        0x0 c:/program files (x86)/microchip/xc32/v1.22/bin/../lib/gcc/pic32mx/4.5.2/../../../../pic32mx/lib/mips16\libmchp_peripheral_32MX795F512H.a(spi_io_tbl_libp.o)
 .reginfo       0x00000000       0x18 c:/program files (x86)/microchip/xc32/v1.22/bin/../lib/gcc/pic32mx/4.5.2/../../../../pic32mx/lib/mips16\libmchp_peripheral_32MX795F512H.a(spi_io_tbl_libp.o)
 .pdr           0x00000000        0x0 c:/program files (x86)/microchip/xc32/v1.22/bin/../lib/gcc/pic32mx/4.5.2/../../../../pic32mx/lib/mips16\libmchp_peripheral_32MX795F512H.a(spi_io_tbl_libp.o)
 .text          0x00000000        0x0 c:/program files (x86)/microchip/xc32/v1.22/bin/../lib/gcc/pic32mx/4.5.2/../../../../pic32mx/lib/mips16\libmchp_peripheral_32MX795F512H.a(spi_map_tbl_libp.o)
 .data          0x00000000        0x0 c:/program files (x86)/microchip/xc32/v1.22/bin/../lib/gcc/pic32mx/4.5.2/../../../../pic32mx/lib/mips16\libmchp_peripheral_32MX795F512H.a(spi_map_tbl_libp.o)
 .bss           0x00000000        0x0 c:/program files (x86)/microchip/xc32/v1.22/bin/../lib/gcc/pic32mx/4.5.2/../../../../pic32mx/lib/mips16\libmchp_peripheral_32MX795F512H.a(spi_map_tbl_libp.o)
 .reginfo       0x00000000       0x18 c:/program files (x86)/microchip/xc32/v1.22/bin/../lib/gcc/pic32mx/4.5.2/../../../../pic32mx/lib/mips16\libmchp_peripheral_32MX795F512H.a(spi_map_tbl_libp.o)
 .pdr           0x00000000        0x0 c:/program files (x86)/microchip/xc32/v1.22/bin/../lib/gcc/pic32mx/4.5.2/../../../../pic32mx/lib/mips16\libmchp_peripheral_32MX795F512H.a(spi_map_tbl_libp.o)
 .text          0x00000000        0x0 c:/program files (x86)/microchip/xc32/v1.22/bin/../lib/gcc/pic32mx/4.5.2/../../../../pic32mx/lib/mips16\libmchp_peripheral_32MX795F512H.a(spi_getc_spi2_lib_legacy.o)
 .data          0x00000000        0x0 c:/program files (x86)/microchip/xc32/v1.22/bin/../lib/gcc/pic32mx/4.5.2/../../../../pic32mx/lib/mips16\libmchp_peripheral_32MX795F512H.a(spi_getc_spi2_lib_legacy.o)
 .bss           0x00000000        0x0 c:/program files (x86)/microchip/xc32/v1.22/bin/../lib/gcc/pic32mx/4.5.2/../../../../pic32mx/lib/mips16\libmchp_peripheral_32MX795F512H.a(spi_getc_spi2_lib_legacy.o)
 .reginfo       0x00000000       0x18 c:/program files (x86)/microchip/xc32/v1.22/bin/../lib/gcc/pic32mx/4.5.2/../../../../pic32mx/lib/mips16\libmchp_peripheral_32MX795F512H.a(spi_getc_spi2_lib_legacy.o)
 .pdr           0x00000000       0x20 c:/program files (x86)/microchip/xc32/v1.22/bin/../lib/gcc/pic32mx/4.5.2/../../../../pic32mx/lib/mips16\libmchp_peripheral_32MX795F512H.a(spi_getc_spi2_lib_legacy.o)
 .text          0x00000000        0x0 c:/program files (x86)/microchip/xc32/v1.22/bin/../lib/gcc/pic32mx/4.5.2/../../../../pic32mx/lib/mips16\libmchp_peripheral_32MX795F512H.a(nvm_erase_page_lib.o)
 .data          0x00000000        0x0 c:/program files (x86)/microchip/xc32/v1.22/bin/../lib/gcc/pic32mx/4.5.2/../../../../pic32mx/lib/mips16\libmchp_peripheral_32MX795F512H.a(nvm_erase_page_lib.o)
 .bss           0x00000000        0x0 c:/program files (x86)/microchip/xc32/v1.22/bin/../lib/gcc/pic32mx/4.5.2/../../../../pic32mx/lib/mips16\libmchp_peripheral_32MX795F512H.a(nvm_erase_page_lib.o)
 .reginfo       0x00000000       0x18 c:/program files (x86)/microchip/xc32/v1.22/bin/../lib/gcc/pic32mx/4.5.2/../../../../pic32mx/lib/mips16\libmchp_peripheral_32MX795F512H.a(nvm_erase_page_lib.o)
 .pdr           0x00000000       0x20 c:/program files (x86)/microchip/xc32/v1.22/bin/../lib/gcc/pic32mx/4.5.2/../../../../pic32mx/lib/mips16\libmchp_peripheral_32MX795F512H.a(nvm_erase_page_lib.o)
 .text          0x00000000        0x0 c:/program files (x86)/microchip/xc32/v1.22/bin/../lib/gcc/pic32mx/4.5.2/../../../../pic32mx/lib/mips16\libmchp_peripheral_32MX795F512H.a(nvm_operation_lib.o)
 .data          0x00000000        0x0 c:/program files (x86)/microchip/xc32/v1.22/bin/../lib/gcc/pic32mx/4.5.2/../../../../pic32mx/lib/mips16\libmchp_peripheral_32MX795F512H.a(nvm_operation_lib.o)
 .bss           0x00000000        0x0 c:/program files (x86)/microchip/xc32/v1.22/bin/../lib/gcc/pic32mx/4.5.2/../../../../pic32mx/lib/mips16\libmchp_peripheral_32MX795F512H.a(nvm_operation_lib.o)
 .reginfo       0x00000000       0x18 c:/program files (x86)/microchip/xc32/v1.22/bin/../lib/gcc/pic32mx/4.5.2/../../../../pic32mx/lib/mips16\libmchp_peripheral_32MX795F512H.a(nvm_operation_lib.o)
 .pdr           0x00000000       0x20 c:/program files (x86)/microchip/xc32/v1.22/bin/../lib/gcc/pic32mx/4.5.2/../../../../pic32mx/lib/mips16\libmchp_peripheral_32MX795F512H.a(nvm_operation_lib.o)
 .text          0x00000000        0x0 c:/program files (x86)/microchip/xc32/v1.22/bin/../lib/gcc/pic32mx/4.5.2/../../../../pic32mx/lib/mips16\libmchp_peripheral_32MX795F512H.a(nvm_write_word_lib.o)
 .data          0x00000000        0x0 c:/program files (x86)/microchip/xc32/v1.22/bin/../lib/gcc/pic32mx/4.5.2/../../../../pic32mx/lib/mips16\libmchp_peripheral_32MX795F512H.a(nvm_write_word_lib.o)
 .bss           0x00000000        0x0 c:/program files (x86)/microchip/xc32/v1.22/bin/../lib/gcc/pic32mx/4.5.2/../../../../pic32mx/lib/mips16\libmchp_peripheral_32MX795F512H.a(nvm_write_word_lib.o)
 .reginfo       0x00000000       0x18 c:/program files (x86)/microchip/xc32/v1.22/bin/../lib/gcc/pic32mx/4.5.2/../../../../pic32mx/lib/mips16\libmchp_peripheral_32MX795F512H.a(nvm_write_word_lib.o)
 .pdr           0x00000000       0x20 c:/program files (x86)/microchip/xc32/v1.22/bin/../lib/gcc/pic32mx/4.5.2/../../../../pic32mx/lib/mips16\libmchp_peripheral_32MX795F512H.a(nvm_write_word_lib.o)
 .text          0x00000000        0x0 c:/program files (x86)/microchip/xc32/v1.22/bin/../lib/gcc/pic32mx/4.5.2/../../../../pic32mx/lib/mips16\libmchp_peripheral_32MX795F512H.a(port_reset_pins_lib.o)
 .data          0x00000000        0x0 c:/program files (x86)/microchip/xc32/v1.22/bin/../lib/gcc/pic32mx/4.5.2/../../../../pic32mx/lib/mips16\libmchp_peripheral_32MX795F512H.a(port_reset_pins_lib.o)
 .bss           0x00000000        0x0 c:/program files (x86)/microchip/xc32/v1.22/bin/../lib/gcc/pic32mx/4.5.2/../../../../pic32mx/lib/mips16\libmchp_peripheral_32MX795F512H.a(port_reset_pins_lib.o)
 .reginfo       0x00000000       0x18 c:/program files (x86)/microchip/xc32/v1.22/bin/../lib/gcc/pic32mx/4.5.2/../../../../pic32mx/lib/mips16\libmchp_peripheral_32MX795F512H.a(port_reset_pins_lib.o)
 .pdr           0x00000000       0x20 c:/program files (x86)/microchip/xc32/v1.22/bin/../lib/gcc/pic32mx/4.5.2/../../../../pic32mx/lib/mips16\libmchp_peripheral_32MX795F512H.a(port_reset_pins_lib.o)
 .text          0x00000000        0x0 c:/program files (x86)/microchip/xc32/v1.22/bin/../lib/gcc/pic32mx/4.5.2/../../../../pic32mx/lib/mips16\libmchp_peripheral_32MX795F512H.a(port_set_pins_digital_in_lib.o)
 .data          0x00000000        0x0 c:/program files (x86)/microchip/xc32/v1.22/bin/../lib/gcc/pic32mx/4.5.2/../../../../pic32mx/lib/mips16\libmchp_peripheral_32MX795F512H.a(port_set_pins_digital_in_lib.o)
 .bss           0x00000000        0x0 c:/program files (x86)/microchip/xc32/v1.22/bin/../lib/gcc/pic32mx/4.5.2/../../../../pic32mx/lib/mips16\libmchp_peripheral_32MX795F512H.a(port_set_pins_digital_in_lib.o)
 .reginfo       0x00000000       0x18 c:/program files (x86)/microchip/xc32/v1.22/bin/../lib/gcc/pic32mx/4.5.2/../../../../pic32mx/lib/mips16\libmchp_peripheral_32MX795F512H.a(port_set_pins_digital_in_lib.o)
 .pdr           0x00000000       0x20 c:/program files (x86)/microchip/xc32/v1.22/bin/../lib/gcc/pic32mx/4.5.2/../../../../pic32mx/lib/mips16\libmchp_peripheral_32MX795F512H.a(port_set_pins_digital_in_lib.o)
 .text          0x00000000        0x0 c:/program files (x86)/microchip/xc32/v1.22/bin/../lib/gcc/pic32mx/4.5.2/../../../../pic32mx/lib/mips16\libmchp_peripheral_32MX795F512H.a(port_set_pins_digital_out_lib.o)
 .data          0x00000000        0x0 c:/program files (x86)/microchip/xc32/v1.22/bin/../lib/gcc/pic32mx/4.5.2/../../../../pic32mx/lib/mips16\libmchp_peripheral_32MX795F512H.a(port_set_pins_digital_out_lib.o)
 .bss           0x00000000        0x0 c:/program files (x86)/microchip/xc32/v1.22/bin/../lib/gcc/pic32mx/4.5.2/../../../../pic32mx/lib/mips16\libmchp_peripheral_32MX795F512H.a(port_set_pins_digital_out_lib.o)
 .reginfo       0x00000000       0x18 c:/program files (x86)/microchip/xc32/v1.22/bin/../lib/gcc/pic32mx/4.5.2/../../../../pic32mx/lib/mips16\libmchp_peripheral_32MX795F512H.a(port_set_pins_digital_out_lib.o)
 .pdr           0x00000000       0x20 c:/program files (x86)/microchip/xc32/v1.22/bin/../lib/gcc/pic32mx/4.5.2/../../../../pic32mx/lib/mips16\libmchp_peripheral_32MX795F512H.a(port_set_pins_digital_out_lib.o)
 .text          0x00000000        0x0 c:/program files (x86)/microchip/xc32/v1.22/bin/../lib/gcc/pic32mx/4.5.2/../../../../pic32mx/lib/mips16\libmchp_peripheral_32MX795F512H.a(_ports_tbl_libp.o)
 .data          0x00000000        0x0 c:/program files (x86)/microchip/xc32/v1.22/bin/../lib/gcc/pic32mx/4.5.2/../../../../pic32mx/lib/mips16\libmchp_peripheral_32MX795F512H.a(_ports_tbl_libp.o)
 .bss           0x00000000        0x0 c:/program files (x86)/microchip/xc32/v1.22/bin/../lib/gcc/pic32mx/4.5.2/../../../../pic32mx/lib/mips16\libmchp_peripheral_32MX795F512H.a(_ports_tbl_libp.o)
 .reginfo       0x00000000       0x18 c:/program files (x86)/microchip/xc32/v1.22/bin/../lib/gcc/pic32mx/4.5.2/../../../../pic32mx/lib/mips16\libmchp_peripheral_32MX795F512H.a(_ports_tbl_libp.o)
 .pdr           0x00000000        0x0 c:/program files (x86)/microchip/xc32/v1.22/bin/../lib/gcc/pic32mx/4.5.2/../../../../pic32mx/lib/mips16\libmchp_peripheral_32MX795F512H.a(_ports_tbl_libp.o)
 .text          0x00000000        0x0 c:/program files (x86)/microchip/xc32/v1.22/bin/../lib/gcc/pic32mx/4.5.2/../../../../pic32mx/lib/mips16\libmchp_peripheral_32MX795F512H.a(I2CConfigure.o)
 .data          0x00000000        0x0 c:/program files (x86)/microchip/xc32/v1.22/bin/../lib/gcc/pic32mx/4.5.2/../../../../pic32mx/lib/mips16\libmchp_peripheral_32MX795F512H.a(I2CConfigure.o)
 .bss           0x00000000        0x0 c:/program files (x86)/microchip/xc32/v1.22/bin/../lib/gcc/pic32mx/4.5.2/../../../../pic32mx/lib/mips16\libmchp_peripheral_32MX795F512H.a(I2CConfigure.o)
 .reginfo       0x00000000       0x18 c:/program files (x86)/microchip/xc32/v1.22/bin/../lib/gcc/pic32mx/4.5.2/../../../../pic32mx/lib/mips16\libmchp_peripheral_32MX795F512H.a(I2CConfigure.o)
 .pdr           0x00000000       0x20 c:/program files (x86)/microchip/xc32/v1.22/bin/../lib/gcc/pic32mx/4.5.2/../../../../pic32mx/lib/mips16\libmchp_peripheral_32MX795F512H.a(I2CConfigure.o)
 .text          0x00000000        0x0 c:/program files (x86)/microchip/xc32/v1.22/bin/../lib/gcc/pic32mx/4.5.2/../../../../pic32mx/lib/mips16\libmchp_peripheral_32MX795F512H.a(I2CEnable.o)
 .data          0x00000000        0x0 c:/program files (x86)/microchip/xc32/v1.22/bin/../lib/gcc/pic32mx/4.5.2/../../../../pic32mx/lib/mips16\libmchp_peripheral_32MX795F512H.a(I2CEnable.o)
 .bss           0x00000000        0x0 c:/program files (x86)/microchip/xc32/v1.22/bin/../lib/gcc/pic32mx/4.5.2/../../../../pic32mx/lib/mips16\libmchp_peripheral_32MX795F512H.a(I2CEnable.o)
 .reginfo       0x00000000       0x18 c:/program files (x86)/microchip/xc32/v1.22/bin/../lib/gcc/pic32mx/4.5.2/../../../../pic32mx/lib/mips16\libmchp_peripheral_32MX795F512H.a(I2CEnable.o)
 .pdr           0x00000000       0x20 c:/program files (x86)/microchip/xc32/v1.22/bin/../lib/gcc/pic32mx/4.5.2/../../../../pic32mx/lib/mips16\libmchp_peripheral_32MX795F512H.a(I2CEnable.o)
 .text          0x00000000        0x0 c:/program files (x86)/microchip/xc32/v1.22/bin/../lib/gcc/pic32mx/4.5.2/../../../../pic32mx/lib/mips16\libmchp_peripheral_32MX795F512H.a(I2CSetFrequency.o)
 .data          0x00000000        0x0 c:/program files (x86)/microchip/xc32/v1.22/bin/../lib/gcc/pic32mx/4.5.2/../../../../pic32mx/lib/mips16\libmchp_peripheral_32MX795F512H.a(I2CSetFrequency.o)
 .bss           0x00000000        0x0 c:/program files (x86)/microchip/xc32/v1.22/bin/../lib/gcc/pic32mx/4.5.2/../../../../pic32mx/lib/mips16\libmchp_peripheral_32MX795F512H.a(I2CSetFrequency.o)
 .reginfo       0x00000000       0x18 c:/program files (x86)/microchip/xc32/v1.22/bin/../lib/gcc/pic32mx/4.5.2/../../../../pic32mx/lib/mips16\libmchp_peripheral_32MX795F512H.a(I2CSetFrequency.o)
 .pdr           0x00000000       0x20 c:/program files (x86)/microchip/xc32/v1.22/bin/../lib/gcc/pic32mx/4.5.2/../../../../pic32mx/lib/mips16\libmchp_peripheral_32MX795F512H.a(I2CSetFrequency.o)
 .text          0x00000000        0x0 c:/program files (x86)/microchip/xc32/v1.22/bin/../lib/gcc/pic32mx/4.5.2/../../../../pic32mx/lib/mips16\libmchp_peripheral_32MX795F512H.a(I2CSetSlaveAddress.o)
 .data          0x00000000        0x0 c:/program files (x86)/microchip/xc32/v1.22/bin/../lib/gcc/pic32mx/4.5.2/../../../../pic32mx/lib/mips16\libmchp_peripheral_32MX795F512H.a(I2CSetSlaveAddress.o)
 .bss           0x00000000        0x0 c:/program files (x86)/microchip/xc32/v1.22/bin/../lib/gcc/pic32mx/4.5.2/../../../../pic32mx/lib/mips16\libmchp_peripheral_32MX795F512H.a(I2CSetSlaveAddress.o)
 .reginfo       0x00000000       0x18 c:/program files (x86)/microchip/xc32/v1.22/bin/../lib/gcc/pic32mx/4.5.2/../../../../pic32mx/lib/mips16\libmchp_peripheral_32MX795F512H.a(I2CSetSlaveAddress.o)
 .pdr           0x00000000       0x20 c:/program files (x86)/microchip/xc32/v1.22/bin/../lib/gcc/pic32mx/4.5.2/../../../../pic32mx/lib/mips16\libmchp_peripheral_32MX795F512H.a(I2CSetSlaveAddress.o)
 .text          0x00000000        0x0 c:/program files (x86)/microchip/xc32/v1.22/bin/../lib/gcc/pic32mx/4.5.2/../../../../pic32mx/lib/mips16\libmchp_peripheral_32MX795F512H.a(int_enable_interrupts_lib.o)
 .data          0x00000000        0x0 c:/program files (x86)/microchip/xc32/v1.22/bin/../lib/gcc/pic32mx/4.5.2/../../../../pic32mx/lib/mips16\libmchp_peripheral_32MX795F512H.a(int_enable_interrupts_lib.o)
 .bss           0x00000000        0x0 c:/program files (x86)/microchip/xc32/v1.22/bin/../lib/gcc/pic32mx/4.5.2/../../../../pic32mx/lib/mips16\libmchp_peripheral_32MX795F512H.a(int_enable_interrupts_lib.o)
 .reginfo       0x00000000       0x18 c:/program files (x86)/microchip/xc32/v1.22/bin/../lib/gcc/pic32mx/4.5.2/../../../../pic32mx/lib/mips16\libmchp_peripheral_32MX795F512H.a(int_enable_interrupts_lib.o)
 .pdr           0x00000000       0x20 c:/program files (x86)/microchip/xc32/v1.22/bin/../lib/gcc/pic32mx/4.5.2/../../../../pic32mx/lib/mips16\libmchp_peripheral_32MX795F512H.a(int_enable_interrupts_lib.o)
 .text          0x00000000        0x0 c:/program files (x86)/microchip/xc32/v1.22/bin/../lib/gcc/pic32mx/4.5.2/../../../../pic32mx/lib/mips16\libmchp_peripheral_32MX795F512H.a(I2CPrivate.o)
 .data          0x00000000        0x0 c:/program files (x86)/microchip/xc32/v1.22/bin/../lib/gcc/pic32mx/4.5.2/../../../../pic32mx/lib/mips16\libmchp_peripheral_32MX795F512H.a(I2CPrivate.o)
 .bss           0x00000000        0x0 c:/program files (x86)/microchip/xc32/v1.22/bin/../lib/gcc/pic32mx/4.5.2/../../../../pic32mx/lib/mips16\libmchp_peripheral_32MX795F512H.a(I2CPrivate.o)
 .reginfo       0x00000000       0x18 c:/program files (x86)/microchip/xc32/v1.22/bin/../lib/gcc/pic32mx/4.5.2/../../../../pic32mx/lib/mips16\libmchp_peripheral_32MX795F512H.a(I2CPrivate.o)
 .pdr           0x00000000        0x0 c:/program files (x86)/microchip/xc32/v1.22/bin/../lib/gcc/pic32mx/4.5.2/../../../../pic32mx/lib/mips16\libmchp_peripheral_32MX795F512H.a(I2CPrivate.o)
 .data          0x00000000        0x0 c:/program files (x86)/microchip/xc32/v1.22/bin/../lib/gcc/pic32mx/4.5.2/mips16\libgcc.a(_floatdisf.o)
 .bss           0x00000000        0x0 c:/program files (x86)/microchip/xc32/v1.22/bin/../lib/gcc/pic32mx/4.5.2/mips16\libgcc.a(_floatdisf.o)
 .reginfo       0x00000000       0x18 c:/program files (x86)/microchip/xc32/v1.22/bin/../lib/gcc/pic32mx/4.5.2/mips16\libgcc.a(_floatdisf.o)
 .data          0x00000000        0x0 c:/program files (x86)/microchip/xc32/v1.22/bin/../lib/gcc/pic32mx/4.5.2/mips16\libgcc.a(_udivdi3.o)
 .bss           0x00000000        0x0 c:/program files (x86)/microchip/xc32/v1.22/bin/../lib/gcc/pic32mx/4.5.2/mips16\libgcc.a(_udivdi3.o)
 .reginfo       0x00000000       0x18 c:/program files (x86)/microchip/xc32/v1.22/bin/../lib/gcc/pic32mx/4.5.2/mips16\libgcc.a(_udivdi3.o)
 .data          0x00000000        0x0 c:/program files (x86)/microchip/xc32/v1.22/bin/../lib/gcc/pic32mx/4.5.2/mips16\libgcc.a(_umoddi3.o)
 .bss           0x00000000        0x0 c:/program files (x86)/microchip/xc32/v1.22/bin/../lib/gcc/pic32mx/4.5.2/mips16\libgcc.a(_umoddi3.o)
 .reginfo       0x00000000       0x18 c:/program files (x86)/microchip/xc32/v1.22/bin/../lib/gcc/pic32mx/4.5.2/mips16\libgcc.a(_umoddi3.o)
 .text          0x00000000        0x0 c:/program files (x86)/microchip/xc32/v1.22/bin/../lib/gcc/pic32mx/4.5.2/mips16\libgcc.a(_clz.o)
 .data          0x00000000        0x0 c:/program files (x86)/microchip/xc32/v1.22/bin/../lib/gcc/pic32mx/4.5.2/mips16\libgcc.a(_clz.o)
 .bss           0x00000000        0x0 c:/program files (x86)/microchip/xc32/v1.22/bin/../lib/gcc/pic32mx/4.5.2/mips16\libgcc.a(_clz.o)
 .reginfo       0x00000000       0x18 c:/program files (x86)/microchip/xc32/v1.22/bin/../lib/gcc/pic32mx/4.5.2/mips16\libgcc.a(_clz.o)
 .data          0x00000000        0x0 c:/program files (x86)/microchip/xc32/v1.22/bin/../lib/gcc/pic32mx/4.5.2/../../../../pic32mx/lib/mips16\libpic32.a(setjmp.o)
 .bss           0x00000000        0x0 c:/program files (x86)/microchip/xc32/v1.22/bin/../lib/gcc/pic32mx/4.5.2/../../../../pic32mx/lib/mips16\libpic32.a(setjmp.o)
 .reginfo       0x00000000       0x18 c:/program files (x86)/microchip/xc32/v1.22/bin/../lib/gcc/pic32mx/4.5.2/../../../../pic32mx/lib/mips16\libpic32.a(setjmp.o)
 .text          0x00000000        0x0 c:/program files (x86)/microchip/xc32/v1.22/bin/../lib/gcc/pic32mx/4.5.2/../../../../pic32mx/lib/mips16\libpic32.a(default-bootstrap-exception-handler.o)
 .data          0x00000000        0x0 c:/program files (x86)/microchip/xc32/v1.22/bin/../lib/gcc/pic32mx/4.5.2/../../../../pic32mx/lib/mips16\libpic32.a(default-bootstrap-exception-handler.o)
 .bss           0x00000000        0x0 c:/program files (x86)/microchip/xc32/v1.22/bin/../lib/gcc/pic32mx/4.5.2/../../../../pic32mx/lib/mips16\libpic32.a(default-bootstrap-exception-handler.o)
 .reginfo       0x00000000       0x18 c:/program files (x86)/microchip/xc32/v1.22/bin/../lib/gcc/pic32mx/4.5.2/../../../../pic32mx/lib/mips16\libpic32.a(default-bootstrap-exception-handler.o)
 .text          0x00000000        0x0 c:/program files (x86)/microchip/xc32/v1.22/bin/../lib/gcc/pic32mx/4.5.2/../../../../pic32mx/lib/mips16\libpic32.a(default-on-reset.o)
 .data          0x00000000        0x0 c:/program files (x86)/microchip/xc32/v1.22/bin/../lib/gcc/pic32mx/4.5.2/../../../../pic32mx/lib/mips16\libpic32.a(default-on-reset.o)
 .bss           0x00000000        0x0 c:/program files (x86)/microchip/xc32/v1.22/bin/../lib/gcc/pic32mx/4.5.2/../../../../pic32mx/lib/mips16\libpic32.a(default-on-reset.o)
 .reginfo       0x00000000       0x18 c:/program files (x86)/microchip/xc32/v1.22/bin/../lib/gcc/pic32mx/4.5.2/../../../../pic32mx/lib/mips16\libpic32.a(default-on-reset.o)
 .text          0x00000000        0x0 c:/program files (x86)/microchip/xc32/v1.22/bin/../lib/gcc/pic32mx/4.5.2/../../../../pic32mx/lib/mips16\libpic32.a(default-on-bootstrap.o)
 .data          0x00000000        0x0 c:/program files (x86)/microchip/xc32/v1.22/bin/../lib/gcc/pic32mx/4.5.2/../../../../pic32mx/lib/mips16\libpic32.a(default-on-bootstrap.o)
 .bss           0x00000000        0x0 c:/program files (x86)/microchip/xc32/v1.22/bin/../lib/gcc/pic32mx/4.5.2/../../../../pic32mx/lib/mips16\libpic32.a(default-on-bootstrap.o)
 .reginfo       0x00000000       0x18 c:/program files (x86)/microchip/xc32/v1.22/bin/../lib/gcc/pic32mx/4.5.2/../../../../pic32mx/lib/mips16\libpic32.a(default-on-bootstrap.o)
 .data          0x00000000        0x0 c:/program files (x86)/microchip/xc32/v1.22/bin/../lib/gcc/pic32mx/4.5.2/../../../../pic32mx/lib/mips16\libpic32.a(default-nmi-handler.o)
 .bss           0x00000000        0x0 c:/program files (x86)/microchip/xc32/v1.22/bin/../lib/gcc/pic32mx/4.5.2/../../../../pic32mx/lib/mips16\libpic32.a(default-nmi-handler.o)
 .reginfo       0x00000000       0x18 c:/program files (x86)/microchip/xc32/v1.22/bin/../lib/gcc/pic32mx/4.5.2/../../../../pic32mx/lib/mips16\libpic32.a(default-nmi-handler.o)
 .text          0x00000000        0x0 c:/program files (x86)/microchip/xc32/v1.22/bin/../lib/gcc/pic32mx/4.5.2/../../../../pic32mx/lib/mips16\libpic32.a(errno.o)
 .data          0x00000000        0x0 c:/program files (x86)/microchip/xc32/v1.22/bin/../lib/gcc/pic32mx/4.5.2/../../../../pic32mx/lib/mips16\libpic32.a(errno.o)
 .bss           0x00000000        0x0 c:/program files (x86)/microchip/xc32/v1.22/bin/../lib/gcc/pic32mx/4.5.2/../../../../pic32mx/lib/mips16\libpic32.a(errno.o)
 .reginfo       0x00000000       0x18 c:/program files (x86)/microchip/xc32/v1.22/bin/../lib/gcc/pic32mx/4.5.2/../../../../pic32mx/lib/mips16\libpic32.a(errno.o)
 .text          0x00000000        0x0 c:/program files (x86)/microchip/xc32/v1.22/bin/../lib/gcc/pic32mx/4.5.2/../../../../pic32mx/lib/mips16\libpic32.a(general-exception.o)
 .data          0x00000000        0x0 c:/program files (x86)/microchip/xc32/v1.22/bin/../lib/gcc/pic32mx/4.5.2/../../../../pic32mx/lib/mips16\libpic32.a(general-exception.o)
 .bss           0x00000000        0x0 c:/program files (x86)/microchip/xc32/v1.22/bin/../lib/gcc/pic32mx/4.5.2/../../../../pic32mx/lib/mips16\libpic32.a(general-exception.o)
 .reginfo       0x00000000       0x18 c:/program files (x86)/microchip/xc32/v1.22/bin/../lib/gcc/pic32mx/4.5.2/../../../../pic32mx/lib/mips16\libpic32.a(general-exception.o)
 .data          0x00000000        0x0 c:/program files (x86)/microchip/xc32/v1.22/bin/../lib/gcc/pic32mx/4.5.2/../../../../pic32mx/lib/mips16\libm.a(fpfloo32.o)
 .bss           0x00000000        0x0 c:/program files (x86)/microchip/xc32/v1.22/bin/../lib/gcc/pic32mx/4.5.2/../../../../pic32mx/lib/mips16\libm.a(fpfloo32.o)
 .reginfo       0x00000000       0x18 c:/program files (x86)/microchip/xc32/v1.22/bin/../lib/gcc/pic32mx/4.5.2/../../../../pic32mx/lib/mips16\libm.a(fpfloo32.o)
 .data          0x00000000        0x0 c:/program files (x86)/microchip/xc32/v1.22/bin/../lib/gcc/pic32mx/4.5.2/../../../../pic32mx/lib/mips16\libm.a(fpmod32.o)
 .bss           0x00000000        0x0 c:/program files (x86)/microchip/xc32/v1.22/bin/../lib/gcc/pic32mx/4.5.2/../../../../pic32mx/lib/mips16\libm.a(fpmod32.o)
 .reginfo       0x00000000       0x18 c:/program files (x86)/microchip/xc32/v1.22/bin/../lib/gcc/pic32mx/4.5.2/../../../../pic32mx/lib/mips16\libm.a(fpmod32.o)
 .data          0x00000000        0x0 c:/program files (x86)/microchip/xc32/v1.22/bin/../lib/gcc/pic32mx/4.5.2/../../../../pic32mx/lib/mips16\libm.a(fpceil32.o)
 .bss           0x00000000        0x0 c:/program files (x86)/microchip/xc32/v1.22/bin/../lib/gcc/pic32mx/4.5.2/../../../../pic32mx/lib/mips16\libm.a(fpceil32.o)
 .reginfo       0x00000000       0x18 c:/program files (x86)/microchip/xc32/v1.22/bin/../lib/gcc/pic32mx/4.5.2/../../../../pic32mx/lib/mips16\libm.a(fpceil32.o)
 .text          0x00000000        0x0 c:/program files (x86)/microchip/xc32/v1.22/bin/../lib/gcc/pic32mx/4.5.2/../../../../pic32mx/lib/mips16\libm.a(w_powf.o)
 .data          0x00000000        0x0 c:/program files (x86)/microchip/xc32/v1.22/bin/../lib/gcc/pic32mx/4.5.2/../../../../pic32mx/lib/mips16\libm.a(w_powf.o)
 .bss           0x00000000        0x0 c:/program files (x86)/microchip/xc32/v1.22/bin/../lib/gcc/pic32mx/4.5.2/../../../../pic32mx/lib/mips16\libm.a(w_powf.o)
 .reginfo       0x00000000       0x18 c:/program files (x86)/microchip/xc32/v1.22/bin/../lib/gcc/pic32mx/4.5.2/../../../../pic32mx/lib/mips16\libm.a(w_powf.o)
 .data          0x00000000        0x0 c:/program files (x86)/microchip/xc32/v1.22/bin/../lib/gcc/pic32mx/4.5.2/../../../../pic32mx/lib/mips16\libm.a(fppow32.o)
 .bss           0x00000000        0x0 c:/program files (x86)/microchip/xc32/v1.22/bin/../lib/gcc/pic32mx/4.5.2/../../../../pic32mx/lib/mips16\libm.a(fppow32.o)
 .reginfo       0x00000000       0x18 c:/program files (x86)/microchip/xc32/v1.22/bin/../lib/gcc/pic32mx/4.5.2/../../../../pic32mx/lib/mips16\libm.a(fppow32.o)
 .data          0x00000000        0x0 c:/program files (x86)/microchip/xc32/v1.22/bin/../lib/gcc/pic32mx/4.5.2/../../../../pic32mx/lib/mips16\libm.a(dp32.o)
 .bss           0x00000000        0x0 c:/program files (x86)/microchip/xc32/v1.22/bin/../lib/gcc/pic32mx/4.5.2/../../../../pic32mx/lib/mips16\libm.a(dp32.o)
 .reginfo       0x00000000       0x18 c:/program files (x86)/microchip/xc32/v1.22/bin/../lib/gcc/pic32mx/4.5.2/../../../../pic32mx/lib/mips16\libm.a(dp32.o)
 .data          0x00000000        0x0 c:/program files (x86)/microchip/xc32/v1.22/bin/../lib/gcc/pic32mx/4.5.2/../../../../pic32mx/lib/mips16\libm.a(fp32.o)
 .bss           0x00000000        0x0 c:/program files (x86)/microchip/xc32/v1.22/bin/../lib/gcc/pic32mx/4.5.2/../../../../pic32mx/lib/mips16\libm.a(fp32.o)
 .reginfo       0x00000000       0x18 c:/program files (x86)/microchip/xc32/v1.22/bin/../lib/gcc/pic32mx/4.5.2/../../../../pic32mx/lib/mips16\libm.a(fp32.o)
 .bss           0x00000000        0x0 c:/program files (x86)/microchip/xc32/v1.22/bin/../lib/gcc/pic32mx/4.5.2/../../../../pic32mx/lib/mips16\libm.a(fplog32.o)
 .reginfo       0x00000000       0x18 c:/program files (x86)/microchip/xc32/v1.22/bin/../lib/gcc/pic32mx/4.5.2/../../../../pic32mx/lib/mips16\libm.a(fplog32.o)
 .text          0x00000000        0x0 c:/program files (x86)/microchip/xc32/v1.22/bin/../lib/gcc/pic32mx/4.5.2/../../../../pic32mx/lib/mips16\libm.a(w_log10f.o)
 .data          0x00000000        0x0 c:/program files (x86)/microchip/xc32/v1.22/bin/../lib/gcc/pic32mx/4.5.2/../../../../pic32mx/lib/mips16\libm.a(w_log10f.o)
 .bss           0x00000000        0x0 c:/program files (x86)/microchip/xc32/v1.22/bin/../lib/gcc/pic32mx/4.5.2/../../../../pic32mx/lib/mips16\libm.a(w_log10f.o)
 .reginfo       0x00000000       0x18 c:/program files (x86)/microchip/xc32/v1.22/bin/../lib/gcc/pic32mx/4.5.2/../../../../pic32mx/lib/mips16\libm.a(w_log10f.o)
 .bss           0x00000000        0x0 c:/program files (x86)/microchip/xc32/v1.22/bin/../lib/gcc/pic32mx/4.5.2/../../../../pic32mx/lib/mips16\libm.a(fpexp32.o)
 .reginfo       0x00000000       0x18 c:/program files (x86)/microchip/xc32/v1.22/bin/../lib/gcc/pic32mx/4.5.2/../../../../pic32mx/lib/mips16\libm.a(fpexp32.o)
 .text          0x00000000        0x0 c:/program files (x86)/microchip/xc32/v1.22/bin/../lib/gcc/pic32mx/4.5.2/../../../../pic32mx/lib/mips16\libm.a(s_lib_ver.o)
 .data          0x00000000        0x0 c:/program files (x86)/microchip/xc32/v1.22/bin/../lib/gcc/pic32mx/4.5.2/../../../../pic32mx/lib/mips16\libm.a(s_lib_ver.o)
 .bss           0x00000000        0x0 c:/program files (x86)/microchip/xc32/v1.22/bin/../lib/gcc/pic32mx/4.5.2/../../../../pic32mx/lib/mips16\libm.a(s_lib_ver.o)
 .reginfo       0x00000000       0x18 c:/program files (x86)/microchip/xc32/v1.22/bin/../lib/gcc/pic32mx/4.5.2/../../../../pic32mx/lib/mips16\libm.a(s_lib_ver.o)
 .text          0x00000000        0x0 c:/program files (x86)/microchip/xc32/v1.22/bin/../lib/gcc/pic32mx/4.5.2/../../../../pic32mx/lib/mips16\libe.a(_unordsf2.o)
 .data          0x00000000        0x0 c:/program files (x86)/microchip/xc32/v1.22/bin/../lib/gcc/pic32mx/4.5.2/../../../../pic32mx/lib/mips16\libe.a(_unordsf2.o)
 .bss           0x00000000        0x0 c:/program files (x86)/microchip/xc32/v1.22/bin/../lib/gcc/pic32mx/4.5.2/../../../../pic32mx/lib/mips16\libe.a(_unordsf2.o)
 .reginfo       0x00000000       0x18 c:/program files (x86)/microchip/xc32/v1.22/bin/../lib/gcc/pic32mx/4.5.2/../../../../pic32mx/lib/mips16\libe.a(_unordsf2.o)
 .text          0x00000000        0x0 c:/program files (x86)/microchip/xc32/v1.22/bin/../lib/gcc/pic32mx/4.5.2/../../../../pic32mx/lib/mips16\libpic32.a(isinf.o)
 .data          0x00000000        0x0 c:/program files (x86)/microchip/xc32/v1.22/bin/../lib/gcc/pic32mx/4.5.2/../../../../pic32mx/lib/mips16\libpic32.a(isinf.o)
 .bss           0x00000000        0x0 c:/program files (x86)/microchip/xc32/v1.22/bin/../lib/gcc/pic32mx/4.5.2/../../../../pic32mx/lib/mips16\libpic32.a(isinf.o)
 .reginfo       0x00000000       0x18 c:/program files (x86)/microchip/xc32/v1.22/bin/../lib/gcc/pic32mx/4.5.2/../../../../pic32mx/lib/mips16\libpic32.a(isinf.o)
 .text.isnanl   0x00000000       0x28 c:/program files (x86)/microchip/xc32/v1.22/bin/../lib/gcc/pic32mx/4.5.2/../../../../pic32mx/lib/mips16\libpic32.a(isinf.o)
 .text.isnan    0x00000000       0x20 c:/program files (x86)/microchip/xc32/v1.22/bin/../lib/gcc/pic32mx/4.5.2/../../../../pic32mx/lib/mips16\libpic32.a(isinf.o)
 .text.isnanf   0x00000000       0x20 c:/program files (x86)/microchip/xc32/v1.22/bin/../lib/gcc/pic32mx/4.5.2/../../../../pic32mx/lib/mips16\libpic32.a(isinf.o)
 .text.isinf    0x00000000       0x48 c:/program files (x86)/microchip/xc32/v1.22/bin/../lib/gcc/pic32mx/4.5.2/../../../../pic32mx/lib/mips16\libpic32.a(isinf.o)
 .text.isinff   0x00000000       0x48 c:/program files (x86)/microchip/xc32/v1.22/bin/../lib/gcc/pic32mx/4.5.2/../../../../pic32mx/lib/mips16\libpic32.a(isinf.o)
 .text          0x00000000        0x0 c:/program files (x86)/microchip/xc32/v1.22/bin/../lib/gcc/pic32mx/4.5.2/../../../../pic32mx/lib/mips16\libc.a(_iob.o)
 .reginfo       0x00000000       0x18 c:/program files (x86)/microchip/xc32/v1.22/bin/../lib/gcc/pic32mx/4.5.2/../../../../pic32mx/lib/mips16\libc.a(_iob.o)
 .sdata         0x00000000        0x4 c:/program files (x86)/microchip/xc32/v1.22/bin/../lib/gcc/pic32mx/4.5.2/../../../../pic32mx/lib/mips16\libc.a(_iob.o)
 .text          0x00000000        0x0 c:/program files (x86)/microchip/xc32/v1.22/bin/../lib/gcc/pic32mx/4.5.2/../../../../pic32mx/lib/mips16\libc.a(_fputc_simple.o)
 .data          0x00000000        0x0 c:/program files (x86)/microchip/xc32/v1.22/bin/../lib/gcc/pic32mx/4.5.2/../../../../pic32mx/lib/mips16\libc.a(_fputc_simple.o)
 .bss           0x00000000        0x0 c:/program files (x86)/microchip/xc32/v1.22/bin/../lib/gcc/pic32mx/4.5.2/../../../../pic32mx/lib/mips16\libc.a(_fputc_simple.o)
 .reginfo       0x00000000       0x18 c:/program files (x86)/microchip/xc32/v1.22/bin/../lib/gcc/pic32mx/4.5.2/../../../../pic32mx/lib/mips16\libc.a(_fputc_simple.o)
 .text          0x00000000        0x0 c:/program files (x86)/microchip/xc32/v1.22/bin/../lib/gcc/pic32mx/4.5.2/../../../../pic32mx/lib/mips16\libc.a(fread.o)
 .data          0x00000000        0x0 c:/program files (x86)/microchip/xc32/v1.22/bin/../lib/gcc/pic32mx/4.5.2/../../../../pic32mx/lib/mips16\libc.a(fread.o)
 .bss           0x00000000        0x0 c:/program files (x86)/microchip/xc32/v1.22/bin/../lib/gcc/pic32mx/4.5.2/../../../../pic32mx/lib/mips16\libc.a(fread.o)
 .reginfo       0x00000000       0x18 c:/program files (x86)/microchip/xc32/v1.22/bin/../lib/gcc/pic32mx/4.5.2/../../../../pic32mx/lib/mips16\libc.a(fread.o)
 .text.fread    0x00000000       0xc0 c:/program files (x86)/microchip/xc32/v1.22/bin/../lib/gcc/pic32mx/4.5.2/../../../../pic32mx/lib/mips16\libc.a(fread.o)
 .text          0x00000000        0x0 c:/program files (x86)/microchip/xc32/v1.22/bin/../lib/gcc/pic32mx/4.5.2/../../../../pic32mx/lib/mips16\libc.a(fseek.o)
 .data          0x00000000        0x0 c:/program files (x86)/microchip/xc32/v1.22/bin/../lib/gcc/pic32mx/4.5.2/../../../../pic32mx/lib/mips16\libc.a(fseek.o)
 .bss           0x00000000        0x0 c:/program files (x86)/microchip/xc32/v1.22/bin/../lib/gcc/pic32mx/4.5.2/../../../../pic32mx/lib/mips16\libc.a(fseek.o)
 .reginfo       0x00000000       0x18 c:/program files (x86)/microchip/xc32/v1.22/bin/../lib/gcc/pic32mx/4.5.2/../../../../pic32mx/lib/mips16\libc.a(fseek.o)
 .text          0x00000000        0x0 c:/program files (x86)/microchip/xc32/v1.22/bin/../lib/gcc/pic32mx/4.5.2/../../../../pic32mx/lib/mips16\libc.a(fwrite.o)
 .data          0x00000000        0x0 c:/program files (x86)/microchip/xc32/v1.22/bin/../lib/gcc/pic32mx/4.5.2/../../../../pic32mx/lib/mips16\libc.a(fwrite.o)
 .bss           0x00000000        0x0 c:/program files (x86)/microchip/xc32/v1.22/bin/../lib/gcc/pic32mx/4.5.2/../../../../pic32mx/lib/mips16\libc.a(fwrite.o)
 .reginfo       0x00000000       0x18 c:/program files (x86)/microchip/xc32/v1.22/bin/../lib/gcc/pic32mx/4.5.2/../../../../pic32mx/lib/mips16\libc.a(fwrite.o)
 .text          0x00000000        0x0 c:/program files (x86)/microchip/xc32/v1.22/bin/../lib/gcc/pic32mx/4.5.2/../../../../pic32mx/lib/mips16\libc.a(atoi.o)
 .data          0x00000000        0x0 c:/program files (x86)/microchip/xc32/v1.22/bin/../lib/gcc/pic32mx/4.5.2/../../../../pic32mx/lib/mips16\libc.a(atoi.o)
 .bss           0x00000000        0x0 c:/program files (x86)/microchip/xc32/v1.22/bin/../lib/gcc/pic32mx/4.5.2/../../../../pic32mx/lib/mips16\libc.a(atoi.o)
 .reginfo       0x00000000       0x18 c:/program files (x86)/microchip/xc32/v1.22/bin/../lib/gcc/pic32mx/4.5.2/../../../../pic32mx/lib/mips16\libc.a(atoi.o)
 .text          0x00000000        0x0 c:/program files (x86)/microchip/xc32/v1.22/bin/../lib/gcc/pic32mx/4.5.2/../../../../pic32mx/lib/mips16\libc.a(calloc.o)
 .data          0x00000000        0x0 c:/program files (x86)/microchip/xc32/v1.22/bin/../lib/gcc/pic32mx/4.5.2/../../../../pic32mx/lib/mips16\libc.a(calloc.o)
 .bss           0x00000000        0x0 c:/program files (x86)/microchip/xc32/v1.22/bin/../lib/gcc/pic32mx/4.5.2/../../../../pic32mx/lib/mips16\libc.a(calloc.o)
 .reginfo       0x00000000       0x18 c:/program files (x86)/microchip/xc32/v1.22/bin/../lib/gcc/pic32mx/4.5.2/../../../../pic32mx/lib/mips16\libc.a(calloc.o)
 .text          0x00000000        0x0 c:/program files (x86)/microchip/xc32/v1.22/bin/../lib/gcc/pic32mx/4.5.2/../../../../pic32mx/lib/mips16\libc.a(ctype.o)
 .data          0x00000000        0x0 c:/program files (x86)/microchip/xc32/v1.22/bin/../lib/gcc/pic32mx/4.5.2/../../../../pic32mx/lib/mips16\libc.a(ctype.o)
 .bss           0x00000000        0x0 c:/program files (x86)/microchip/xc32/v1.22/bin/../lib/gcc/pic32mx/4.5.2/../../../../pic32mx/lib/mips16\libc.a(ctype.o)
 .reginfo       0x00000000       0x18 c:/program files (x86)/microchip/xc32/v1.22/bin/../lib/gcc/pic32mx/4.5.2/../../../../pic32mx/lib/mips16\libc.a(ctype.o)
 .text          0x00000000        0x0 c:/program files (x86)/microchip/xc32/v1.22/bin/../lib/gcc/pic32mx/4.5.2/../../../../pic32mx/lib/mips16\libc.a(ctypef.o)
 .data          0x00000000        0x0 c:/program files (x86)/microchip/xc32/v1.22/bin/../lib/gcc/pic32mx/4.5.2/../../../../pic32mx/lib/mips16\libc.a(ctypef.o)
 .bss           0x00000000        0x0 c:/program files (x86)/microchip/xc32/v1.22/bin/../lib/gcc/pic32mx/4.5.2/../../../../pic32mx/lib/mips16\libc.a(ctypef.o)
 .reginfo       0x00000000       0x18 c:/program files (x86)/microchip/xc32/v1.22/bin/../lib/gcc/pic32mx/4.5.2/../../../../pic32mx/lib/mips16\libc.a(ctypef.o)
 .text.isalnum  0x00000000       0x10 c:/program files (x86)/microchip/xc32/v1.22/bin/../lib/gcc/pic32mx/4.5.2/../../../../pic32mx/lib/mips16\libc.a(ctypef.o)
 .text.isalpha  0x00000000       0x10 c:/program files (x86)/microchip/xc32/v1.22/bin/../lib/gcc/pic32mx/4.5.2/../../../../pic32mx/lib/mips16\libc.a(ctypef.o)
 .text.isascii  0x00000000        0x8 c:/program files (x86)/microchip/xc32/v1.22/bin/../lib/gcc/pic32mx/4.5.2/../../../../pic32mx/lib/mips16\libc.a(ctypef.o)
 .text.iscntrl  0x00000000       0x10 c:/program files (x86)/microchip/xc32/v1.22/bin/../lib/gcc/pic32mx/4.5.2/../../../../pic32mx/lib/mips16\libc.a(ctypef.o)
 .text.isdigit  0x00000000       0x10 c:/program files (x86)/microchip/xc32/v1.22/bin/../lib/gcc/pic32mx/4.5.2/../../../../pic32mx/lib/mips16\libc.a(ctypef.o)
 .text.isgraph  0x00000000       0x10 c:/program files (x86)/microchip/xc32/v1.22/bin/../lib/gcc/pic32mx/4.5.2/../../../../pic32mx/lib/mips16\libc.a(ctypef.o)
 .text.islower  0x00000000       0x10 c:/program files (x86)/microchip/xc32/v1.22/bin/../lib/gcc/pic32mx/4.5.2/../../../../pic32mx/lib/mips16\libc.a(ctypef.o)
 .text.isprint  0x00000000       0x10 c:/program files (x86)/microchip/xc32/v1.22/bin/../lib/gcc/pic32mx/4.5.2/../../../../pic32mx/lib/mips16\libc.a(ctypef.o)
 .text.ispunct  0x00000000       0x10 c:/program files (x86)/microchip/xc32/v1.22/bin/../lib/gcc/pic32mx/4.5.2/../../../../pic32mx/lib/mips16\libc.a(ctypef.o)
 .text.isspace  0x00000000       0x10 c:/program files (x86)/microchip/xc32/v1.22/bin/../lib/gcc/pic32mx/4.5.2/../../../../pic32mx/lib/mips16\libc.a(ctypef.o)
 .text.isupper  0x00000000       0x10 c:/program files (x86)/microchip/xc32/v1.22/bin/../lib/gcc/pic32mx/4.5.2/../../../../pic32mx/lib/mips16\libc.a(ctypef.o)
 .text.isxdigit
                0x00000000       0x10 c:/program files (x86)/microchip/xc32/v1.22/bin/../lib/gcc/pic32mx/4.5.2/../../../../pic32mx/lib/mips16\libc.a(ctypef.o)
 .text.toascii  0x00000000        0x8 c:/program files (x86)/microchip/xc32/v1.22/bin/../lib/gcc/pic32mx/4.5.2/../../../../pic32mx/lib/mips16\libc.a(ctypef.o)
 .text._tolower
                0x00000000        0x8 c:/program files (x86)/microchip/xc32/v1.22/bin/../lib/gcc/pic32mx/4.5.2/../../../../pic32mx/lib/mips16\libc.a(ctypef.o)
 .text._toupper
                0x00000000        0x8 c:/program files (x86)/microchip/xc32/v1.22/bin/../lib/gcc/pic32mx/4.5.2/../../../../pic32mx/lib/mips16\libc.a(ctypef.o)
 .text          0x00000000        0x0 c:/program files (x86)/microchip/xc32/v1.22/bin/../lib/gcc/pic32mx/4.5.2/../../../../pic32mx/lib/mips16\libc.a(malloc.o)
 .data          0x00000000        0x0 c:/program files (x86)/microchip/xc32/v1.22/bin/../lib/gcc/pic32mx/4.5.2/../../../../pic32mx/lib/mips16\libc.a(malloc.o)
 .reginfo       0x00000000       0x18 c:/program files (x86)/microchip/xc32/v1.22/bin/../lib/gcc/pic32mx/4.5.2/../../../../pic32mx/lib/mips16\libc.a(malloc.o)
 .text          0x00000000        0x0 c:/program files (x86)/microchip/xc32/v1.22/bin/../lib/gcc/pic32mx/4.5.2/../../../../pic32mx/lib/mips16\libc.a(memchr.o)
 .data          0x00000000        0x0 c:/program files (x86)/microchip/xc32/v1.22/bin/../lib/gcc/pic32mx/4.5.2/../../../../pic32mx/lib/mips16\libc.a(memchr.o)
 .bss           0x00000000        0x0 c:/program files (x86)/microchip/xc32/v1.22/bin/../lib/gcc/pic32mx/4.5.2/../../../../pic32mx/lib/mips16\libc.a(memchr.o)
 .reginfo       0x00000000       0x18 c:/program files (x86)/microchip/xc32/v1.22/bin/../lib/gcc/pic32mx/4.5.2/../../../../pic32mx/lib/mips16\libc.a(memchr.o)
 .text          0x00000000        0x0 c:/program files (x86)/microchip/xc32/v1.22/bin/../lib/gcc/pic32mx/4.5.2/../../../../pic32mx/lib/mips16\libc.a(memcmp.o)
 .data          0x00000000        0x0 c:/program files (x86)/microchip/xc32/v1.22/bin/../lib/gcc/pic32mx/4.5.2/../../../../pic32mx/lib/mips16\libc.a(memcmp.o)
 .bss           0x00000000        0x0 c:/program files (x86)/microchip/xc32/v1.22/bin/../lib/gcc/pic32mx/4.5.2/../../../../pic32mx/lib/mips16\libc.a(memcmp.o)
 .reginfo       0x00000000       0x18 c:/program files (x86)/microchip/xc32/v1.22/bin/../lib/gcc/pic32mx/4.5.2/../../../../pic32mx/lib/mips16\libc.a(memcmp.o)
 .text          0x00000000        0x0 c:/program files (x86)/microchip/xc32/v1.22/bin/../lib/gcc/pic32mx/4.5.2/../../../../pic32mx/lib/mips16\libc.a(memcpy.o)
 .data          0x00000000        0x0 c:/program files (x86)/microchip/xc32/v1.22/bin/../lib/gcc/pic32mx/4.5.2/../../../../pic32mx/lib/mips16\libc.a(memcpy.o)
 .bss           0x00000000        0x0 c:/program files (x86)/microchip/xc32/v1.22/bin/../lib/gcc/pic32mx/4.5.2/../../../../pic32mx/lib/mips16\libc.a(memcpy.o)
 .reginfo       0x00000000       0x18 c:/program files (x86)/microchip/xc32/v1.22/bin/../lib/gcc/pic32mx/4.5.2/../../../../pic32mx/lib/mips16\libc.a(memcpy.o)
 .text          0x00000000        0x0 c:/program files (x86)/microchip/xc32/v1.22/bin/../lib/gcc/pic32mx/4.5.2/../../../../pic32mx/lib/mips16\libc.a(memmove.o)
 .data          0x00000000        0x0 c:/program files (x86)/microchip/xc32/v1.22/bin/../lib/gcc/pic32mx/4.5.2/../../../../pic32mx/lib/mips16\libc.a(memmove.o)
 .bss           0x00000000        0x0 c:/program files (x86)/microchip/xc32/v1.22/bin/../lib/gcc/pic32mx/4.5.2/../../../../pic32mx/lib/mips16\libc.a(memmove.o)
 .reginfo       0x00000000       0x18 c:/program files (x86)/microchip/xc32/v1.22/bin/../lib/gcc/pic32mx/4.5.2/../../../../pic32mx/lib/mips16\libc.a(memmove.o)
 .text          0x00000000        0x0 c:/program files (x86)/microchip/xc32/v1.22/bin/../lib/gcc/pic32mx/4.5.2/../../../../pic32mx/lib/mips16\libc.a(memset.o)
 .data          0x00000000        0x0 c:/program files (x86)/microchip/xc32/v1.22/bin/../lib/gcc/pic32mx/4.5.2/../../../../pic32mx/lib/mips16\libc.a(memset.o)
 .bss           0x00000000        0x0 c:/program files (x86)/microchip/xc32/v1.22/bin/../lib/gcc/pic32mx/4.5.2/../../../../pic32mx/lib/mips16\libc.a(memset.o)
 .reginfo       0x00000000       0x18 c:/program files (x86)/microchip/xc32/v1.22/bin/../lib/gcc/pic32mx/4.5.2/../../../../pic32mx/lib/mips16\libc.a(memset.o)
 .text          0x00000000        0x0 c:/program files (x86)/microchip/xc32/v1.22/bin/../lib/gcc/pic32mx/4.5.2/../../../../pic32mx/lib/mips16\libc.a(signal.o)
 .data          0x00000000        0x0 c:/program files (x86)/microchip/xc32/v1.22/bin/../lib/gcc/pic32mx/4.5.2/../../../../pic32mx/lib/mips16\libc.a(signal.o)
 .reginfo       0x00000000       0x18 c:/program files (x86)/microchip/xc32/v1.22/bin/../lib/gcc/pic32mx/4.5.2/../../../../pic32mx/lib/mips16\libc.a(signal.o)
 .text.signal   0x00000000       0x1c c:/program files (x86)/microchip/xc32/v1.22/bin/../lib/gcc/pic32mx/4.5.2/../../../../pic32mx/lib/mips16\libc.a(signal.o)
 .text          0x00000000        0x0 c:/program files (x86)/microchip/xc32/v1.22/bin/../lib/gcc/pic32mx/4.5.2/../../../../pic32mx/lib/mips16\libc.a(strchr.o)
 .data          0x00000000        0x0 c:/program files (x86)/microchip/xc32/v1.22/bin/../lib/gcc/pic32mx/4.5.2/../../../../pic32mx/lib/mips16\libc.a(strchr.o)
 .bss           0x00000000        0x0 c:/program files (x86)/microchip/xc32/v1.22/bin/../lib/gcc/pic32mx/4.5.2/../../../../pic32mx/lib/mips16\libc.a(strchr.o)
 .reginfo       0x00000000       0x18 c:/program files (x86)/microchip/xc32/v1.22/bin/../lib/gcc/pic32mx/4.5.2/../../../../pic32mx/lib/mips16\libc.a(strchr.o)
 .text          0x00000000        0x0 c:/program files (x86)/microchip/xc32/v1.22/bin/../lib/gcc/pic32mx/4.5.2/../../../../pic32mx/lib/mips16\libc.a(strcmp.o)
 .data          0x00000000        0x0 c:/program files (x86)/microchip/xc32/v1.22/bin/../lib/gcc/pic32mx/4.5.2/../../../../pic32mx/lib/mips16\libc.a(strcmp.o)
 .bss           0x00000000        0x0 c:/program files (x86)/microchip/xc32/v1.22/bin/../lib/gcc/pic32mx/4.5.2/../../../../pic32mx/lib/mips16\libc.a(strcmp.o)
 .reginfo       0x00000000       0x18 c:/program files (x86)/microchip/xc32/v1.22/bin/../lib/gcc/pic32mx/4.5.2/../../../../pic32mx/lib/mips16\libc.a(strcmp.o)
 .text          0x00000000        0x0 c:/program files (x86)/microchip/xc32/v1.22/bin/../lib/gcc/pic32mx/4.5.2/../../../../pic32mx/lib/mips16\libc.a(strlen.o)
 .data          0x00000000        0x0 c:/program files (x86)/microchip/xc32/v1.22/bin/../lib/gcc/pic32mx/4.5.2/../../../../pic32mx/lib/mips16\libc.a(strlen.o)
 .bss           0x00000000        0x0 c:/program files (x86)/microchip/xc32/v1.22/bin/../lib/gcc/pic32mx/4.5.2/../../../../pic32mx/lib/mips16\libc.a(strlen.o)
 .reginfo       0x00000000       0x18 c:/program files (x86)/microchip/xc32/v1.22/bin/../lib/gcc/pic32mx/4.5.2/../../../../pic32mx/lib/mips16\libc.a(strlen.o)
 .text          0x00000000        0x0 c:/program files (x86)/microchip/xc32/v1.22/bin/../lib/gcc/pic32mx/4.5.2/../../../../pic32mx/lib/mips16\libc.a(strncpy.o)
 .data          0x00000000        0x0 c:/program files (x86)/microchip/xc32/v1.22/bin/../lib/gcc/pic32mx/4.5.2/../../../../pic32mx/lib/mips16\libc.a(strncpy.o)
 .bss           0x00000000        0x0 c:/program files (x86)/microchip/xc32/v1.22/bin/../lib/gcc/pic32mx/4.5.2/../../../../pic32mx/lib/mips16\libc.a(strncpy.o)
 .reginfo       0x00000000       0x18 c:/program files (x86)/microchip/xc32/v1.22/bin/../lib/gcc/pic32mx/4.5.2/../../../../pic32mx/lib/mips16\libc.a(strncpy.o)
 .text          0x00000000        0x0 c:/program files (x86)/microchip/xc32/v1.22/bin/../lib/gcc/pic32mx/4.5.2/../../../../pic32mx/lib/mips16\libc.a(strtod.o)
 .data          0x00000000        0x0 c:/program files (x86)/microchip/xc32/v1.22/bin/../lib/gcc/pic32mx/4.5.2/../../../../pic32mx/lib/mips16\libc.a(strtod.o)
 .bss           0x00000000        0x0 c:/program files (x86)/microchip/xc32/v1.22/bin/../lib/gcc/pic32mx/4.5.2/../../../../pic32mx/lib/mips16\libc.a(strtod.o)
 .reginfo       0x00000000       0x18 c:/program files (x86)/microchip/xc32/v1.22/bin/../lib/gcc/pic32mx/4.5.2/../../../../pic32mx/lib/mips16\libc.a(strtod.o)
 .text._dstrtod
                0x00000000        0xc c:/program files (x86)/microchip/xc32/v1.22/bin/../lib/gcc/pic32mx/4.5.2/../../../../pic32mx/lib/mips16\libc.a(strtod.o)
 .text          0x00000000        0x0 c:/program files (x86)/microchip/xc32/v1.22/bin/../lib/gcc/pic32mx/4.5.2/../../../../pic32mx/lib/mips16\libc.a(strstr.o)
 .data          0x00000000        0x0 c:/program files (x86)/microchip/xc32/v1.22/bin/../lib/gcc/pic32mx/4.5.2/../../../../pic32mx/lib/mips16\libc.a(strstr.o)
 .bss           0x00000000        0x0 c:/program files (x86)/microchip/xc32/v1.22/bin/../lib/gcc/pic32mx/4.5.2/../../../../pic32mx/lib/mips16\libc.a(strstr.o)
 .reginfo       0x00000000       0x18 c:/program files (x86)/microchip/xc32/v1.22/bin/../lib/gcc/pic32mx/4.5.2/../../../../pic32mx/lib/mips16\libc.a(strstr.o)
 .text          0x00000000        0x0 c:/program files (x86)/microchip/xc32/v1.22/bin/../lib/gcc/pic32mx/4.5.2/../../../../pic32mx/lib/mips16\libc.a(strtok.o)
 .data          0x00000000        0x0 c:/program files (x86)/microchip/xc32/v1.22/bin/../lib/gcc/pic32mx/4.5.2/../../../../pic32mx/lib/mips16\libc.a(strtok.o)
 .reginfo       0x00000000       0x18 c:/program files (x86)/microchip/xc32/v1.22/bin/../lib/gcc/pic32mx/4.5.2/../../../../pic32mx/lib/mips16\libc.a(strtok.o)
 .text          0x00000000        0x0 c:/program files (x86)/microchip/xc32/v1.22/bin/../lib/gcc/pic32mx/4.5.2/../../../../pic32mx/lib/mips16\libc.a(strtol.o)
 .data          0x00000000        0x0 c:/program files (x86)/microchip/xc32/v1.22/bin/../lib/gcc/pic32mx/4.5.2/../../../../pic32mx/lib/mips16\libc.a(strtol.o)
 .bss           0x00000000        0x0 c:/program files (x86)/microchip/xc32/v1.22/bin/../lib/gcc/pic32mx/4.5.2/../../../../pic32mx/lib/mips16\libc.a(strtol.o)
 .reginfo       0x00000000       0x18 c:/program files (x86)/microchip/xc32/v1.22/bin/../lib/gcc/pic32mx/4.5.2/../../../../pic32mx/lib/mips16\libc.a(strtol.o)
 .text.strtol   0x00000000       0xb0 c:/program files (x86)/microchip/xc32/v1.22/bin/../lib/gcc/pic32mx/4.5.2/../../../../pic32mx/lib/mips16\libc.a(strtol.o)
 .text          0x00000000        0x0 c:/program files (x86)/microchip/xc32/v1.22/bin/../lib/gcc/pic32mx/4.5.2/../../../../pic32mx/lib/mips16\libc.a(exit.o)
 .data          0x00000000        0x0 c:/program files (x86)/microchip/xc32/v1.22/bin/../lib/gcc/pic32mx/4.5.2/../../../../pic32mx/lib/mips16\libc.a(exit.o)
 .bss           0x00000000        0x0 c:/program files (x86)/microchip/xc32/v1.22/bin/../lib/gcc/pic32mx/4.5.2/../../../../pic32mx/lib/mips16\libc.a(exit.o)
 .reginfo       0x00000000       0x18 c:/program files (x86)/microchip/xc32/v1.22/bin/../lib/gcc/pic32mx/4.5.2/../../../../pic32mx/lib/mips16\libc.a(exit.o)
 .text          0x00000000        0x0 c:/program files (x86)/microchip/xc32/v1.22/bin/../lib/gcc/pic32mx/4.5.2/../../../../pic32mx/lib/mips16\libc.a(doprnt.o)
 .data          0x00000000        0x0 c:/program files (x86)/microchip/xc32/v1.22/bin/../lib/gcc/pic32mx/4.5.2/../../../../pic32mx/lib/mips16\libc.a(doprnt.o)
 .bss           0x00000000        0x0 c:/program files (x86)/microchip/xc32/v1.22/bin/../lib/gcc/pic32mx/4.5.2/../../../../pic32mx/lib/mips16\libc.a(doprnt.o)
 .reginfo       0x00000000       0x18 c:/program files (x86)/microchip/xc32/v1.22/bin/../lib/gcc/pic32mx/4.5.2/../../../../pic32mx/lib/mips16\libc.a(doprnt.o)
 .text          0x00000000        0x0 c:/program files (x86)/microchip/xc32/v1.22/bin/../lib/gcc/pic32mx/4.5.2/../../../../pic32mx/lib/mips16\libc.a(printf_cdnopuxX.eo)
 .data          0x00000000        0x0 c:/program files (x86)/microchip/xc32/v1.22/bin/../lib/gcc/pic32mx/4.5.2/../../../../pic32mx/lib/mips16\libc.a(printf_cdnopuxX.eo)
 .bss           0x00000000        0x0 c:/program files (x86)/microchip/xc32/v1.22/bin/../lib/gcc/pic32mx/4.5.2/../../../../pic32mx/lib/mips16\libc.a(printf_cdnopuxX.eo)
 .reginfo       0x00000000       0x18 c:/program files (x86)/microchip/xc32/v1.22/bin/../lib/gcc/pic32mx/4.5.2/../../../../pic32mx/lib/mips16\libc.a(printf_cdnopuxX.eo)
 .text          0x00000000        0x0 c:/program files (x86)/microchip/xc32/v1.22/bin/../lib/gcc/pic32mx/4.5.2/../../../../pic32mx/lib/mips16\libc.a(sprintf_cdnopsuxX.eo)
 .data          0x00000000        0x0 c:/program files (x86)/microchip/xc32/v1.22/bin/../lib/gcc/pic32mx/4.5.2/../../../../pic32mx/lib/mips16\libc.a(sprintf_cdnopsuxX.eo)
 .bss           0x00000000        0x0 c:/program files (x86)/microchip/xc32/v1.22/bin/../lib/gcc/pic32mx/4.5.2/../../../../pic32mx/lib/mips16\libc.a(sprintf_cdnopsuxX.eo)
 .reginfo       0x00000000       0x18 c:/program files (x86)/microchip/xc32/v1.22/bin/../lib/gcc/pic32mx/4.5.2/../../../../pic32mx/lib/mips16\libc.a(sprintf_cdnopsuxX.eo)
 .text          0x00000000        0x0 c:/program files (x86)/microchip/xc32/v1.22/bin/../lib/gcc/pic32mx/4.5.2/../../../../pic32mx/lib/mips16\libc.a(vsnprintf.o)
 .data          0x00000000        0x0 c:/program files (x86)/microchip/xc32/v1.22/bin/../lib/gcc/pic32mx/4.5.2/../../../../pic32mx/lib/mips16\libc.a(vsnprintf.o)
 .bss           0x00000000        0x0 c:/program files (x86)/microchip/xc32/v1.22/bin/../lib/gcc/pic32mx/4.5.2/../../../../pic32mx/lib/mips16\libc.a(vsnprintf.o)
 .reginfo       0x00000000       0x18 c:/program files (x86)/microchip/xc32/v1.22/bin/../lib/gcc/pic32mx/4.5.2/../../../../pic32mx/lib/mips16\libc.a(vsnprintf.o)
 .text          0x00000000        0x0 c:/program files (x86)/microchip/xc32/v1.22/bin/../lib/gcc/pic32mx/4.5.2/../../../../pic32mx/lib/mips16\libc.a(_flsbuf_simple.o)
 .data          0x00000000        0x0 c:/program files (x86)/microchip/xc32/v1.22/bin/../lib/gcc/pic32mx/4.5.2/../../../../pic32mx/lib/mips16\libc.a(_flsbuf_simple.o)
 .bss           0x00000000        0x0 c:/program files (x86)/microchip/xc32/v1.22/bin/../lib/gcc/pic32mx/4.5.2/../../../../pic32mx/lib/mips16\libc.a(_flsbuf_simple.o)
 .reginfo       0x00000000       0x18 c:/program files (x86)/microchip/xc32/v1.22/bin/../lib/gcc/pic32mx/4.5.2/../../../../pic32mx/lib/mips16\libc.a(_flsbuf_simple.o)
 .text          0x00000000        0x0 c:/program files (x86)/microchip/xc32/v1.22/bin/../lib/gcc/pic32mx/4.5.2/../../../../pic32mx/lib/mips16\libc.a(stdclean_simple.o)
 .data          0x00000000        0x0 c:/program files (x86)/microchip/xc32/v1.22/bin/../lib/gcc/pic32mx/4.5.2/../../../../pic32mx/lib/mips16\libc.a(stdclean_simple.o)
 .bss           0x00000000        0x0 c:/program files (x86)/microchip/xc32/v1.22/bin/../lib/gcc/pic32mx/4.5.2/../../../../pic32mx/lib/mips16\libc.a(stdclean_simple.o)
 .reginfo       0x00000000       0x18 c:/program files (x86)/microchip/xc32/v1.22/bin/../lib/gcc/pic32mx/4.5.2/../../../../pic32mx/lib/mips16\libc.a(stdclean_simple.o)
 .sbss          0x00000000        0x4 c:/program files (x86)/microchip/xc32/v1.22/bin/../lib/gcc/pic32mx/4.5.2/../../../../pic32mx/lib/mips16\libc.a(stdclean_simple.o)
 .text          0x00000000        0x0 c:/program files (x86)/microchip/xc32/v1.22/bin/../lib/gcc/pic32mx/4.5.2/../../../../pic32mx/lib/mips16\libc.a(fflush.o)
 .data          0x00000000        0x0 c:/program files (x86)/microchip/xc32/v1.22/bin/../lib/gcc/pic32mx/4.5.2/../../../../pic32mx/lib/mips16\libc.a(fflush.o)
 .bss           0x00000000        0x0 c:/program files (x86)/microchip/xc32/v1.22/bin/../lib/gcc/pic32mx/4.5.2/../../../../pic32mx/lib/mips16\libc.a(fflush.o)
 .reginfo       0x00000000       0x18 c:/program files (x86)/microchip/xc32/v1.22/bin/../lib/gcc/pic32mx/4.5.2/../../../../pic32mx/lib/mips16\libc.a(fflush.o)
 .text          0x00000000        0x0 c:/program files (x86)/microchip/xc32/v1.22/bin/../lib/gcc/pic32mx/4.5.2/../../../../pic32mx/lib/mips16\libc.a(fgetc.o)
 .data          0x00000000        0x0 c:/program files (x86)/microchip/xc32/v1.22/bin/../lib/gcc/pic32mx/4.5.2/../../../../pic32mx/lib/mips16\libc.a(fgetc.o)
 .bss           0x00000000        0x0 c:/program files (x86)/microchip/xc32/v1.22/bin/../lib/gcc/pic32mx/4.5.2/../../../../pic32mx/lib/mips16\libc.a(fgetc.o)
 .reginfo       0x00000000       0x18 c:/program files (x86)/microchip/xc32/v1.22/bin/../lib/gcc/pic32mx/4.5.2/../../../../pic32mx/lib/mips16\libc.a(fgetc.o)
 .text.fgetc    0x00000000       0x8c c:/program files (x86)/microchip/xc32/v1.22/bin/../lib/gcc/pic32mx/4.5.2/../../../../pic32mx/lib/mips16\libc.a(fgetc.o)
 .text          0x00000000        0x0 c:/program files (x86)/microchip/xc32/v1.22/bin/../lib/gcc/pic32mx/4.5.2/../../../../pic32mx/lib/mips16\libc.a(powersf.o)
 .data          0x00000000        0x0 c:/program files (x86)/microchip/xc32/v1.22/bin/../lib/gcc/pic32mx/4.5.2/../../../../pic32mx/lib/mips16\libc.a(powersf.o)
 .bss           0x00000000        0x0 c:/program files (x86)/microchip/xc32/v1.22/bin/../lib/gcc/pic32mx/4.5.2/../../../../pic32mx/lib/mips16\libc.a(powersf.o)
 .reginfo       0x00000000       0x18 c:/program files (x86)/microchip/xc32/v1.22/bin/../lib/gcc/pic32mx/4.5.2/../../../../pic32mx/lib/mips16\libc.a(powersf.o)
 .text          0x00000000        0x0 c:/program files (x86)/microchip/xc32/v1.22/bin/../lib/gcc/pic32mx/4.5.2/../../../../pic32mx/lib/mips16\libc.a(strcspn.o)
 .data          0x00000000        0x0 c:/program files (x86)/microchip/xc32/v1.22/bin/../lib/gcc/pic32mx/4.5.2/../../../../pic32mx/lib/mips16\libc.a(strcspn.o)
 .bss           0x00000000        0x0 c:/program files (x86)/microchip/xc32/v1.22/bin/../lib/gcc/pic32mx/4.5.2/../../../../pic32mx/lib/mips16\libc.a(strcspn.o)
 .reginfo       0x00000000       0x18 c:/program files (x86)/microchip/xc32/v1.22/bin/../lib/gcc/pic32mx/4.5.2/../../../../pic32mx/lib/mips16\libc.a(strcspn.o)
 .text          0x00000000        0x0 c:/program files (x86)/microchip/xc32/v1.22/bin/../lib/gcc/pic32mx/4.5.2/../../../../pic32mx/lib/mips16\libc.a(strncmp.o)
 .data          0x00000000        0x0 c:/program files (x86)/microchip/xc32/v1.22/bin/../lib/gcc/pic32mx/4.5.2/../../../../pic32mx/lib/mips16\libc.a(strncmp.o)
 .bss           0x00000000        0x0 c:/program files (x86)/microchip/xc32/v1.22/bin/../lib/gcc/pic32mx/4.5.2/../../../../pic32mx/lib/mips16\libc.a(strncmp.o)
 .reginfo       0x00000000       0x18 c:/program files (x86)/microchip/xc32/v1.22/bin/../lib/gcc/pic32mx/4.5.2/../../../../pic32mx/lib/mips16\libc.a(strncmp.o)
 .text          0x00000000        0x0 c:/program files (x86)/microchip/xc32/v1.22/bin/../lib/gcc/pic32mx/4.5.2/../../../../pic32mx/lib/mips16\libc.a(strspn.o)
 .data          0x00000000        0x0 c:/program files (x86)/microchip/xc32/v1.22/bin/../lib/gcc/pic32mx/4.5.2/../../../../pic32mx/lib/mips16\libc.a(strspn.o)
 .bss           0x00000000        0x0 c:/program files (x86)/microchip/xc32/v1.22/bin/../lib/gcc/pic32mx/4.5.2/../../../../pic32mx/lib/mips16\libc.a(strspn.o)
 .reginfo       0x00000000       0x18 c:/program files (x86)/microchip/xc32/v1.22/bin/../lib/gcc/pic32mx/4.5.2/../../../../pic32mx/lib/mips16\libc.a(strspn.o)
 .text          0x00000000        0x0 c:/program files (x86)/microchip/xc32/v1.22/bin/../lib/gcc/pic32mx/4.5.2/../../../../pic32mx/lib/mips16\libc.a(doprnt_cdnopsuxX.eo)
 .data          0x00000000        0x0 c:/program files (x86)/microchip/xc32/v1.22/bin/../lib/gcc/pic32mx/4.5.2/../../../../pic32mx/lib/mips16\libc.a(doprnt_cdnopsuxX.eo)
 .bss           0x00000000        0x0 c:/program files (x86)/microchip/xc32/v1.22/bin/../lib/gcc/pic32mx/4.5.2/../../../../pic32mx/lib/mips16\libc.a(doprnt_cdnopsuxX.eo)
 .reginfo       0x00000000       0x18 c:/program files (x86)/microchip/xc32/v1.22/bin/../lib/gcc/pic32mx/4.5.2/../../../../pic32mx/lib/mips16\libc.a(doprnt_cdnopsuxX.eo)
 .text          0x00000000        0x0 c:/program files (x86)/microchip/xc32/v1.22/bin/../lib/gcc/pic32mx/4.5.2/../../../../pic32mx/lib/mips16\libc.a(filbuf.o)
 .data          0x00000000        0x0 c:/program files (x86)/microchip/xc32/v1.22/bin/../lib/gcc/pic32mx/4.5.2/../../../../pic32mx/lib/mips16\libc.a(filbuf.o)
 .bss           0x00000000        0x0 c:/program files (x86)/microchip/xc32/v1.22/bin/../lib/gcc/pic32mx/4.5.2/../../../../pic32mx/lib/mips16\libc.a(filbuf.o)
 .reginfo       0x00000000       0x18 c:/program files (x86)/microchip/xc32/v1.22/bin/../lib/gcc/pic32mx/4.5.2/../../../../pic32mx/lib/mips16\libc.a(filbuf.o)
 .text._filbuf  0x00000000       0xc8 c:/program files (x86)/microchip/xc32/v1.22/bin/../lib/gcc/pic32mx/4.5.2/../../../../pic32mx/lib/mips16\libc.a(filbuf.o)
 .text          0x00000000        0x0 c:/program files (x86)/microchip/xc32/v1.22/bin/../lib/gcc/pic32mx/4.5.2/../../../../pic32mx/lib/mips16\libpic32.a(sbrk.o)
 .data          0x00000000        0x0 c:/program files (x86)/microchip/xc32/v1.22/bin/../lib/gcc/pic32mx/4.5.2/../../../../pic32mx/lib/mips16\libpic32.a(sbrk.o)
 .reginfo       0x00000000       0x18 c:/program files (x86)/microchip/xc32/v1.22/bin/../lib/gcc/pic32mx/4.5.2/../../../../pic32mx/lib/mips16\libpic32.a(sbrk.o)
 .text.getpagesize
                0x00000000        0x4 c:/program files (x86)/microchip/xc32/v1.22/bin/../lib/gcc/pic32mx/4.5.2/../../../../pic32mx/lib/mips16\libpic32.a(sbrk.o)
 .text          0x00000000        0x0 c:/program files (x86)/microchip/xc32/v1.22/bin/../lib/gcc/pic32mx/4.5.2/../../../../pic32mx/lib/mips16\libpic32.a(read.o)
 .data          0x00000000        0x0 c:/program files (x86)/microchip/xc32/v1.22/bin/../lib/gcc/pic32mx/4.5.2/../../../../pic32mx/lib/mips16\libpic32.a(read.o)
 .bss           0x00000000        0x0 c:/program files (x86)/microchip/xc32/v1.22/bin/../lib/gcc/pic32mx/4.5.2/../../../../pic32mx/lib/mips16\libpic32.a(read.o)
 .reginfo       0x00000000       0x18 c:/program files (x86)/microchip/xc32/v1.22/bin/../lib/gcc/pic32mx/4.5.2/../../../../pic32mx/lib/mips16\libpic32.a(read.o)
 .text.read     0x00000000       0xbc c:/program files (x86)/microchip/xc32/v1.22/bin/../lib/gcc/pic32mx/4.5.2/../../../../pic32mx/lib/mips16\libpic32.a(read.o)
 .text          0x00000000        0x0 c:/program files (x86)/microchip/xc32/v1.22/bin/../lib/gcc/pic32mx/4.5.2/../../../../pic32mx/lib/mips16\libpic32.a(write.o)
 .data          0x00000000        0x0 c:/program files (x86)/microchip/xc32/v1.22/bin/../lib/gcc/pic32mx/4.5.2/../../../../pic32mx/lib/mips16\libpic32.a(write.o)
 .bss           0x00000000        0x0 c:/program files (x86)/microchip/xc32/v1.22/bin/../lib/gcc/pic32mx/4.5.2/../../../../pic32mx/lib/mips16\libpic32.a(write.o)
 .reginfo       0x00000000       0x18 c:/program files (x86)/microchip/xc32/v1.22/bin/../lib/gcc/pic32mx/4.5.2/../../../../pic32mx/lib/mips16\libpic32.a(write.o)
 .text          0x00000000        0x0 c:/program files (x86)/microchip/xc32/v1.22/bin/../lib/gcc/pic32mx/4.5.2/../../../../pic32mx/lib/mips16\libpic32.a(lseek.o)
 .data          0x00000000        0x0 c:/program files (x86)/microchip/xc32/v1.22/bin/../lib/gcc/pic32mx/4.5.2/../../../../pic32mx/lib/mips16\libpic32.a(lseek.o)
 .bss           0x00000000        0x0 c:/program files (x86)/microchip/xc32/v1.22/bin/../lib/gcc/pic32mx/4.5.2/../../../../pic32mx/lib/mips16\libpic32.a(lseek.o)
 .reginfo       0x00000000       0x18 c:/program files (x86)/microchip/xc32/v1.22/bin/../lib/gcc/pic32mx/4.5.2/../../../../pic32mx/lib/mips16\libpic32.a(lseek.o)
 .text          0x00000000        0x0 c:/program files (x86)/microchip/xc32/v1.22/bin/../lib/gcc/pic32mx/4.5.2/../../../../pic32mx/lib/mips16\libpic32.a(xc32_uart.o)
 .data          0x00000000        0x0 c:/program files (x86)/microchip/xc32/v1.22/bin/../lib/gcc/pic32mx/4.5.2/../../../../pic32mx/lib/mips16\libpic32.a(xc32_uart.o)
 .bss           0x00000000        0x0 c:/program files (x86)/microchip/xc32/v1.22/bin/../lib/gcc/pic32mx/4.5.2/../../../../pic32mx/lib/mips16\libpic32.a(xc32_uart.o)
 .reginfo       0x00000000       0x18 c:/program files (x86)/microchip/xc32/v1.22/bin/../lib/gcc/pic32mx/4.5.2/../../../../pic32mx/lib/mips16\libpic32.a(xc32_uart.o)
 .text          0x00000000        0x0 c:/program files (x86)/microchip/xc32/v1.22/bin/../lib/gcc/pic32mx/4.5.2/../../../../pic32mx/lib/mips16\libpic32.a(_mon_putc.o)
 .data          0x00000000        0x0 c:/program files (x86)/microchip/xc32/v1.22/bin/../lib/gcc/pic32mx/4.5.2/../../../../pic32mx/lib/mips16\libpic32.a(_mon_putc.o)
 .bss           0x00000000        0x0 c:/program files (x86)/microchip/xc32/v1.22/bin/../lib/gcc/pic32mx/4.5.2/../../../../pic32mx/lib/mips16\libpic32.a(_mon_putc.o)
 .reginfo       0x00000000       0x18 c:/program files (x86)/microchip/xc32/v1.22/bin/../lib/gcc/pic32mx/4.5.2/../../../../pic32mx/lib/mips16\libpic32.a(_mon_putc.o)
 .text          0x00000000        0x0 c:/program files (x86)/microchip/xc32/v1.22/bin/../lib/gcc/pic32mx/4.5.2/../../../../pic32mx/lib/mips16\libe.a(_unorddf2.o)
 .data          0x00000000        0x0 c:/program files (x86)/microchip/xc32/v1.22/bin/../lib/gcc/pic32mx/4.5.2/../../../../pic32mx/lib/mips16\libe.a(_unorddf2.o)
 .bss           0x00000000        0x0 c:/program files (x86)/microchip/xc32/v1.22/bin/../lib/gcc/pic32mx/4.5.2/../../../../pic32mx/lib/mips16\libe.a(_unorddf2.o)
 .reginfo       0x00000000       0x18 c:/program files (x86)/microchip/xc32/v1.22/bin/../lib/gcc/pic32mx/4.5.2/../../../../pic32mx/lib/mips16\libe.a(_unorddf2.o)
 .text.ieee754dp_isnan
                0x00000000       0x20 c:/program files (x86)/microchip/xc32/v1.22/bin/../lib/gcc/pic32mx/4.5.2/../../../../pic32mx/lib/mips16\libe.a(_unorddf2.o)
 .text.__unorddf2
                0x00000000       0x28 c:/program files (x86)/microchip/xc32/v1.22/bin/../lib/gcc/pic32mx/4.5.2/../../../../pic32mx/lib/mips16\libe.a(_unorddf2.o)
 .text          0x00000000        0x0 c:/program files (x86)/microchip/xc32/v1.22/bin/../lib/gcc/pic32mx/4.5.2/../../../../pic32mx/lib/mips16\libe.a(_strtod.o)
 .data          0x00000000        0x0 c:/program files (x86)/microchip/xc32/v1.22/bin/../lib/gcc/pic32mx/4.5.2/../../../../pic32mx/lib/mips16\libe.a(_strtod.o)
 .bss           0x00000000        0x0 c:/program files (x86)/microchip/xc32/v1.22/bin/../lib/gcc/pic32mx/4.5.2/../../../../pic32mx/lib/mips16\libe.a(_strtod.o)
 .reginfo       0x00000000       0x18 c:/program files (x86)/microchip/xc32/v1.22/bin/../lib/gcc/pic32mx/4.5.2/../../../../pic32mx/lib/mips16\libe.a(_strtod.o)
 .text          0x00000000        0x0 c:/program files (x86)/microchip/xc32/v1.22/bin/../lib/gcc/pic32mx/4.5.2/../../../../pic32mx/lib/mips16\libe.a(_ldexp.o)
 .data          0x00000000        0x0 c:/program files (x86)/microchip/xc32/v1.22/bin/../lib/gcc/pic32mx/4.5.2/../../../../pic32mx/lib/mips16\libe.a(_ldexp.o)
 .bss           0x00000000        0x0 c:/program files (x86)/microchip/xc32/v1.22/bin/../lib/gcc/pic32mx/4.5.2/../../../../pic32mx/lib/mips16\libe.a(_ldexp.o)
 .reginfo       0x00000000       0x18 c:/program files (x86)/microchip/xc32/v1.22/bin/../lib/gcc/pic32mx/4.5.2/../../../../pic32mx/lib/mips16\libe.a(_ldexp.o)
 .data          0x00000000        0x0 c:/program files (x86)/microchip/xc32/v1.22/bin/../lib/gcc/pic32mx/4.5.2/mips16\libgcc.a(_lshrdi3.o)
 .bss           0x00000000        0x0 c:/program files (x86)/microchip/xc32/v1.22/bin/../lib/gcc/pic32mx/4.5.2/mips16\libgcc.a(_lshrdi3.o)
 .reginfo       0x00000000       0x18 c:/program files (x86)/microchip/xc32/v1.22/bin/../lib/gcc/pic32mx/4.5.2/mips16\libgcc.a(_lshrdi3.o)
 .data          0x00000000        0x0 c:/program files (x86)/microchip/xc32/v1.22/bin/../lib/gcc/pic32mx/4.5.2/mips16\libgcc.a(_floatundisf.o)
 .bss           0x00000000        0x0 c:/program files (x86)/microchip/xc32/v1.22/bin/../lib/gcc/pic32mx/4.5.2/mips16\libgcc.a(_floatundisf.o)
 .reginfo       0x00000000       0x18 c:/program files (x86)/microchip/xc32/v1.22/bin/../lib/gcc/pic32mx/4.5.2/mips16\libgcc.a(_floatundisf.o)
 .data          0x00000000        0x0 c:/program files (x86)/microchip/xc32/v1.22/bin/../lib/gcc/pic32mx/4.5.2/mips16\libgcc.a(floatunsisf.o)
 .bss           0x00000000        0x0 c:/program files (x86)/microchip/xc32/v1.22/bin/../lib/gcc/pic32mx/4.5.2/mips16\libgcc.a(floatunsisf.o)
 .reginfo       0x00000000       0x18 c:/program files (x86)/microchip/xc32/v1.22/bin/../lib/gcc/pic32mx/4.5.2/mips16\libgcc.a(floatunsisf.o)

Memory Configuration

Name             Origin             Length             Attributes
kseg0_program_mem 0x9d004490         0x0007cb70         xr
kseg0_boot_mem   0x9d003000         0x00000000
exception_mem    0x9d003000         0x00001000
kseg1_boot_mem   0x9d004000         0x00000490
debug_exec_mem   0xbfc02000         0x00000ff0
config3          0xbfc02ff0         0x00000004
config2          0xbfc02ff4         0x00000004
config1          0xbfc02ff8         0x00000004
config0          0xbfc02ffc         0x00000004
kseg1_data_mem   0xa0000000         0x00020000         w !x
sfrs             0xbf800000         0x00100000
configsfrs       0xbfc02ff0         0x00000010
*default*        0x00000000         0xffffffff

Linker script and memory map

LOAD c:/program files (x86)/microchip/xc32/v1.22/bin/../lib/gcc/pic32mx/4.5.2/../../../../pic32mx/lib/mips16/crt0.o
LOAD build/default/production/_ext/454704213/analog.o
LOAD build/default/production/_ext/454704213/iosetting.o
LOAD build/default/production/_ext/454704213/TimeDelay.o
LOAD build/default/production/_ext/454704213/usb_config.o
LOAD build/default/production/_ext/454704213/usb_descriptors.o
LOAD build/default/production/_ext/454704213/osc.o
LOAD build/default/production/_ext/454704213/sram.o
LOAD build/default/production/_ext/1340694758/ARP.o
LOAD build/default/production/_ext/1340694758/DHCP.o
LOAD build/default/production/_ext/1340694758/DHCPs.o
LOAD build/default/production/_ext/1340694758/ETHPIC32ExtPhy.o
LOAD build/default/production/_ext/1340694758/ETHPIC32ExtPhyDP83848.o
LOAD build/default/production/_ext/1340694758/ETHPIC32IntMac.o
LOAD build/default/production/_ext/1340694758/Helpers.o
LOAD build/default/production/_ext/1340694758/ICMP.o
LOAD build/default/production/_ext/1340694758/IP.o
LOAD build/default/production/_ext/1340694758/NBNS.o
LOAD build/default/production/_ext/1340694758/StackTsk.o
LOAD build/default/production/_ext/1340694758/Tick.o
LOAD build/default/production/_ext/1340694758/UDP.o
LOAD build/default/production/_ext/1340694758/ZeroconfHelper.o
LOAD build/default/production/_ext/1340694758/ZeroconfLinkLocal.o
LOAD build/default/production/_ext/1340694758/ZeroconfMulticastDNS.o
LOAD build/default/production/_ext/1798056102/usb_device.o
LOAD build/default/production/_ext/1798056102/usb_function_hid.o
LOAD build/default/production/_ext/1798056102/usb_host.o
LOAD build/default/production/_ext/1798056102/usb_host_cdc.o
LOAD build/default/production/_ext/1798056102/usb_host_cdc_interface.o
LOAD build/default/production/_ext/1798056102/usb_host_hid.o
LOAD build/default/production/_ext/1798056102/usb_host_hid_parser.o
LOAD build/default/production/_ext/1798056102/usb_host_midi.o
LOAD build/default/production/picrouter.o
LOAD build/default/production/mrb_picrouter.o
LOAD ..\mruby-1.0.0\build\PICrouter\lib\libmruby.a
                0x00000001                __MPLAB_BUILD = 0x1
                0x00000400                PROVIDE (_min_stack_size, 0x400)
LOAD c:/program files (x86)/microchip/xc32/v1.22/bin/../lib/gcc/pic32mx/4.5.2/../../../../pic32mx/lib/./proc/32MX795F512H\processor.o
START GROUP
LOAD c:/program files (x86)/microchip/xc32/v1.22/bin/../lib/gcc/pic32mx/4.5.2/../../../../pic32mx/lib/mips16\libmchp_peripheral.a
END GROUP
START GROUP
LOAD c:/program files (x86)/microchip/xc32/v1.22/bin/../lib/gcc/pic32mx/4.5.2/../../../../pic32mx/lib/mips16\libmchp_peripheral_32MX795F512H.a
END GROUP
                0x00000001                PROVIDE (_vector_spacing, 0x1)
                0x9d003000                _ebase_address = 0x9d003000
                0x9d004000                _RESET_ADDR = 0x9d004000
                0x9d004380                _BEV_EXCPT_ADDR = 0x9d004380
                0x9d004480                _DBG_EXCPT_ADDR = 0x9d004480
                0xbfc02000                _DBG_CODE_ADDR = 0xbfc02000
                0x00000ff0                _DBG_CODE_SIZE = 0xff0
                0x9d003180                _GEN_EXCPT_ADDR = (_ebase_address + 0x180)

.config_BFC02FF0
 *(.config_BFC02FF0)

.config_BFC02FF4
 *(.config_BFC02FF4)

.config_BFC02FF8
 *(.config_BFC02FF8)

.config_BFC02FFC
 *(.config_BFC02FFC)
                0xbfc02000                PROVIDE (_DBG_CODE_ADDR, 0xbfc02000)
                0x00000ff0                PROVIDE (_DBG_CODE_SIZE, 0xff0)

.reset          0x9d004000      0x1f4
 *(.reset)
 .reset         0x9d004000       0x10 c:/program files (x86)/microchip/xc32/v1.22/bin/../lib/gcc/pic32mx/4.5.2/../../../../pic32mx/lib/mips16/crt0.o
                0x9d004000                _reset
 *(.reset.startup)
 .reset.startup
                0x9d004010      0x1e4 c:/program files (x86)/microchip/xc32/v1.22/bin/../lib/gcc/pic32mx/4.5.2/../../../../pic32mx/lib/mips16/crt0.o

.bev_excpt      0x9d004380       0x10
 *(.bev_handler)
 .bev_handler   0x9d004380       0x10 c:/program files (x86)/microchip/xc32/v1.22/bin/../lib/gcc/pic32mx/4.5.2/../../../../pic32mx/lib/mips16/crt0.o

.dbg_excpt      0x9d004480        0x0
                0x9d004480                . = (. + DEFINED (_DEBUGGER)?0x8:0x0)

.dbg_code       0xbfc02000        0x0
                0xbfc02000                . = (. + DEFINED (_DEBUGGER)?_DBG_CODE_SIZE:0x0)

.app_excpt      0x9d003180       0x10
 *(.gen_handler)
 .gen_handler   0x9d003180       0x10 c:/program files (x86)/microchip/xc32/v1.22/bin/../lib/gcc/pic32mx/4.5.2/../../../../pic32mx/lib/mips16/crt0.o

.vector_0       0x9d003200        0x0
 *(.vector_0)
                0x00000001                ASSERT (((_vector_spacing == 0x0) || (SIZEOF (.vector_0) <= (_vector_spacing << 0x5))), function at exception vector 0 too large)

.vector_1       0x9d003220        0x0
 *(.vector_1)
                0x00000001                ASSERT (((_vector_spacing == 0x0) || (SIZEOF (.vector_1) <= (_vector_spacing << 0x5))), function at exception vector 1 too large)

.vector_2       0x9d003240        0x0
 *(.vector_2)
                0x00000001                ASSERT (((_vector_spacing == 0x0) || (SIZEOF (.vector_2) <= (_vector_spacing << 0x5))), function at exception vector 2 too large)

.vector_3       0x9d003260        0x0
 *(.vector_3)
                0x00000001                ASSERT (((_vector_spacing == 0x0) || (SIZEOF (.vector_3) <= (_vector_spacing << 0x5))), function at exception vector 3 too large)

.vector_4       0x9d003280        0x8
 *(.vector_4)
 .vector_4      0x9d003280        0x8 build/default/production/_ext/1340694758/Tick.o
                0x9d003280                __vector_dispatch_4
                0x00000001                ASSERT (((_vector_spacing == 0x0) || (SIZEOF (.vector_4) <= (_vector_spacing << 0x5))), function at exception vector 4 too large)

.vector_5       0x9d0032a0        0x0
 *(.vector_5)
                0x00000001                ASSERT (((_vector_spacing == 0x0) || (SIZEOF (.vector_5) <= (_vector_spacing << 0x5))), function at exception vector 5 too large)

.vector_6       0x9d0032c0        0x0
 *(.vector_6)
                0x00000001                ASSERT (((_vector_spacing == 0x0) || (SIZEOF (.vector_6) <= (_vector_spacing << 0x5))), function at exception vector 6 too large)

.vector_7       0x9d0032e0        0x0
 *(.vector_7)
                0x00000001                ASSERT (((_vector_spacing == 0x0) || (SIZEOF (.vector_7) <= (_vector_spacing << 0x5))), function at exception vector 7 too large)

.vector_8       0x9d003300        0x0
 *(.vector_8)
                0x00000001                ASSERT (((_vector_spacing == 0x0) || (SIZEOF (.vector_8) <= (_vector_spacing << 0x5))), function at exception vector 8 too large)

.vector_9       0x9d003320        0x0
 *(.vector_9)
                0x00000001                ASSERT (((_vector_spacing == 0x0) || (SIZEOF (.vector_9) <= (_vector_spacing << 0x5))), function at exception vector 9 too large)

.vector_10      0x9d003340        0x0
 *(.vector_10)
                0x00000001                ASSERT (((_vector_spacing == 0x0) || (SIZEOF (.vector_10) <= (_vector_spacing << 0x5))), function at exception vector 10 too large)

.vector_11      0x9d003360        0x0
 *(.vector_11)
                0x00000001                ASSERT (((_vector_spacing == 0x0) || (SIZEOF (.vector_11) <= (_vector_spacing << 0x5))), function at exception vector 11 too large)

.vector_12      0x9d003380        0x0
 *(.vector_12)
                0x00000001                ASSERT (((_vector_spacing == 0x0) || (SIZEOF (.vector_12) <= (_vector_spacing << 0x5))), function at exception vector 12 too large)

.vector_13      0x9d0033a0        0x0
 *(.vector_13)
                0x00000001                ASSERT (((_vector_spacing == 0x0) || (SIZEOF (.vector_13) <= (_vector_spacing << 0x5))), function at exception vector 13 too large)

.vector_14      0x9d0033c0        0x0
 *(.vector_14)
                0x00000001                ASSERT (((_vector_spacing == 0x0) || (SIZEOF (.vector_14) <= (_vector_spacing << 0x5))), function at exception vector 14 too large)

.vector_15      0x9d0033e0        0x0
 *(.vector_15)
                0x00000001                ASSERT (((_vector_spacing == 0x0) || (SIZEOF (.vector_15) <= (_vector_spacing << 0x5))), function at exception vector 15 too large)

.vector_16      0x9d003400        0x0
 *(.vector_16)
                0x00000001                ASSERT (((_vector_spacing == 0x0) || (SIZEOF (.vector_16) <= (_vector_spacing << 0x5))), function at exception vector 16 too large)

.vector_17      0x9d003420        0x0
 *(.vector_17)
                0x00000001                ASSERT (((_vector_spacing == 0x0) || (SIZEOF (.vector_17) <= (_vector_spacing << 0x5))), function at exception vector 17 too large)

.vector_18      0x9d003440        0x0
 *(.vector_18)
                0x00000001                ASSERT (((_vector_spacing == 0x0) || (SIZEOF (.vector_18) <= (_vector_spacing << 0x5))), function at exception vector 18 too large)

.vector_19      0x9d003460        0x0
 *(.vector_19)
                0x00000001                ASSERT (((_vector_spacing == 0x0) || (SIZEOF (.vector_19) <= (_vector_spacing << 0x5))), function at exception vector 19 too large)

.vector_20      0x9d003480        0x8
 *(.vector_20)
 .vector_20     0x9d003480        0x8 build/default/production/picrouter.o
                0x9d003480                __vector_dispatch_20
                0x00000001                ASSERT (((_vector_spacing == 0x0) || (SIZEOF (.vector_20) <= (_vector_spacing << 0x5))), function at exception vector 20 too large)

.vector_21      0x9d0034a0        0x0
 *(.vector_21)
                0x00000001                ASSERT (((_vector_spacing == 0x0) || (SIZEOF (.vector_21) <= (_vector_spacing << 0x5))), function at exception vector 21 too large)

.vector_22      0x9d0034c0        0x0
 *(.vector_22)
                0x00000001                ASSERT (((_vector_spacing == 0x0) || (SIZEOF (.vector_22) <= (_vector_spacing << 0x5))), function at exception vector 22 too large)

.vector_23      0x9d0034e0        0x0
 *(.vector_23)
                0x00000001                ASSERT (((_vector_spacing == 0x0) || (SIZEOF (.vector_23) <= (_vector_spacing << 0x5))), function at exception vector 23 too large)

.vector_24      0x9d003500        0x0
 *(.vector_24)
                0x00000001                ASSERT (((_vector_spacing == 0x0) || (SIZEOF (.vector_24) <= (_vector_spacing << 0x5))), function at exception vector 24 too large)

.vector_25      0x9d003520        0x0
 *(.vector_25)
                0x00000001                ASSERT (((_vector_spacing == 0x0) || (SIZEOF (.vector_25) <= (_vector_spacing << 0x5))), function at exception vector 25 too large)

.vector_26      0x9d003540        0x0
 *(.vector_26)
                0x00000001                ASSERT (((_vector_spacing == 0x0) || (SIZEOF (.vector_26) <= (_vector_spacing << 0x5))), function at exception vector 26 too large)

.vector_27      0x9d003560        0x0
 *(.vector_27)
                0x00000001                ASSERT (((_vector_spacing == 0x0) || (SIZEOF (.vector_27) <= (_vector_spacing << 0x5))), function at exception vector 27 too large)

.vector_28      0x9d003580        0x0
 *(.vector_28)
                0x00000001                ASSERT (((_vector_spacing == 0x0) || (SIZEOF (.vector_28) <= (_vector_spacing << 0x5))), function at exception vector 28 too large)

.vector_29      0x9d0035a0        0x0
 *(.vector_29)
                0x00000001                ASSERT (((_vector_spacing == 0x0) || (SIZEOF (.vector_29) <= (_vector_spacing << 0x5))), function at exception vector 29 too large)

.vector_30      0x9d0035c0        0x0
 *(.vector_30)
                0x00000001                ASSERT (((_vector_spacing == 0x0) || (SIZEOF (.vector_30) <= (_vector_spacing << 0x5))), function at exception vector 30 too large)

.vector_31      0x9d0035e0        0x0
 *(.vector_31)
                0x00000001                ASSERT (((_vector_spacing == 0x0) || (SIZEOF (.vector_31) <= (_vector_spacing << 0x5))), function at exception vector 31 too large)

.vector_32      0x9d003600        0x0
 *(.vector_32)
                0x00000001                ASSERT (((_vector_spacing == 0x0) || (SIZEOF (.vector_32) <= (_vector_spacing << 0x5))), function at exception vector 32 too large)

.vector_33      0x9d003620        0x0
 *(.vector_33)
                0x00000001                ASSERT (((_vector_spacing == 0x0) || (SIZEOF (.vector_33) <= (_vector_spacing << 0x5))), function at exception vector 33 too large)

.vector_34      0x9d003640        0x0
 *(.vector_34)
                0x00000001                ASSERT (((_vector_spacing == 0x0) || (SIZEOF (.vector_34) <= (_vector_spacing << 0x5))), function at exception vector 34 too large)

.vector_35      0x9d003660        0x0
 *(.vector_35)
                0x00000001                ASSERT (((_vector_spacing == 0x0) || (SIZEOF (.vector_35) <= (_vector_spacing << 0x5))), function at exception vector 35 too large)

.vector_36      0x9d003680        0x0
 *(.vector_36)
                0x00000001                ASSERT (((_vector_spacing == 0x0) || (SIZEOF (.vector_36) <= (_vector_spacing << 0x5))), function at exception vector 36 too large)

.vector_37      0x9d0036a0        0x0
 *(.vector_37)
                0x00000001                ASSERT (((_vector_spacing == 0x0) || (SIZEOF (.vector_37) <= (_vector_spacing << 0x5))), function at exception vector 37 too large)

.vector_38      0x9d0036c0        0x0
 *(.vector_38)
                0x00000001                ASSERT (((_vector_spacing == 0x0) || (SIZEOF (.vector_38) <= (_vector_spacing << 0x5))), function at exception vector 38 too large)

.vector_39      0x9d0036e0        0x0
 *(.vector_39)
                0x00000001                ASSERT (((_vector_spacing == 0x0) || (SIZEOF (.vector_39) <= (_vector_spacing << 0x5))), function at exception vector 39 too large)

.vector_40      0x9d003700        0x0
 *(.vector_40)
                0x00000001                ASSERT (((_vector_spacing == 0x0) || (SIZEOF (.vector_40) <= (_vector_spacing << 0x5))), function at exception vector 40 too large)

.vector_41      0x9d003720        0x0
 *(.vector_41)
                0x00000001                ASSERT (((_vector_spacing == 0x0) || (SIZEOF (.vector_41) <= (_vector_spacing << 0x5))), function at exception vector 41 too large)

.vector_42      0x9d003740        0x0
 *(.vector_42)
                0x00000001                ASSERT (((_vector_spacing == 0x0) || (SIZEOF (.vector_42) <= (_vector_spacing << 0x5))), function at exception vector 42 too large)

.vector_43      0x9d003760        0x0
 *(.vector_43)
                0x00000001                ASSERT (((_vector_spacing == 0x0) || (SIZEOF (.vector_43) <= (_vector_spacing << 0x5))), function at exception vector 43 too large)

.vector_44      0x9d003780        0x0
 *(.vector_44)
                0x00000001                ASSERT (((_vector_spacing == 0x0) || (SIZEOF (.vector_44) <= (_vector_spacing << 0x5))), function at exception vector 44 too large)

.vector_45      0x9d0037a0        0x8
 *(.vector_45)
 .vector_45     0x9d0037a0        0x8 build/default/production/_ext/1798056102/usb_host.o
                0x9d0037a0                __vector_dispatch_45
                0x00000001                ASSERT (((_vector_spacing == 0x0) || (SIZEOF (.vector_45) <= (_vector_spacing << 0x5))), function at exception vector 45 too large)

.vector_46      0x9d0037c0        0x0
 *(.vector_46)
                0x00000001                ASSERT (((_vector_spacing == 0x0) || (SIZEOF (.vector_46) <= (_vector_spacing << 0x5))), function at exception vector 46 too large)

.vector_47      0x9d0037e0        0x0
 *(.vector_47)
                0x00000001                ASSERT (((_vector_spacing == 0x0) || (SIZEOF (.vector_47) <= (_vector_spacing << 0x5))), function at exception vector 47 too large)

.vector_48      0x9d003800        0x0
 *(.vector_48)
                0x00000001                ASSERT (((_vector_spacing == 0x0) || (SIZEOF (.vector_48) <= (_vector_spacing << 0x5))), function at exception vector 48 too large)

.vector_49      0x9d003820        0x0
 *(.vector_49)
                0x00000001                ASSERT (((_vector_spacing == 0x0) || (SIZEOF (.vector_49) <= (_vector_spacing << 0x5))), function at exception vector 49 too large)

.vector_50      0x9d003840        0x0
 *(.vector_50)
                0x00000001                ASSERT (((_vector_spacing == 0x0) || (SIZEOF (.vector_50) <= (_vector_spacing << 0x5))), function at exception vector 50 too large)

.vector_51      0x9d003860        0x0
 *(.vector_51)
                0x00000001                ASSERT (((_vector_spacing == 0x0) || (SIZEOF (.vector_51) <= (_vector_spacing << 0x5))), function at exception vector 51 too large)

.vector_52      0x9d003880        0x0
 *(.vector_52)
                0x00000001                ASSERT (((_vector_spacing == 0x0) || (SIZEOF (.vector_52) <= (_vector_spacing << 0x5))), function at exception vector 52 too large)

.vector_53      0x9d0038a0        0x0
 *(.vector_53)
                0x00000001                ASSERT (((_vector_spacing == 0x0) || (SIZEOF (.vector_53) <= (_vector_spacing << 0x5))), function at exception vector 53 too large)

.vector_54      0x9d0038c0        0x0
 *(.vector_54)
                0x00000001                ASSERT (((_vector_spacing == 0x0) || (SIZEOF (.vector_54) <= (_vector_spacing << 0x5))), function at exception vector 54 too large)

.vector_55      0x9d0038e0        0x0
 *(.vector_55)
                0x00000001                ASSERT (((_vector_spacing == 0x0) || (SIZEOF (.vector_55) <= (_vector_spacing << 0x5))), function at exception vector 55 too large)

.vector_56      0x9d003900        0x0
 *(.vector_56)
                0x00000001                ASSERT (((_vector_spacing == 0x0) || (SIZEOF (.vector_56) <= (_vector_spacing << 0x5))), function at exception vector 56 too large)

.vector_57      0x9d003920        0x0
 *(.vector_57)
                0x00000001                ASSERT (((_vector_spacing == 0x0) || (SIZEOF (.vector_57) <= (_vector_spacing << 0x5))), function at exception vector 57 too large)

.vector_58      0x9d003940        0x0
 *(.vector_58)
                0x00000001                ASSERT (((_vector_spacing == 0x0) || (SIZEOF (.vector_58) <= (_vector_spacing << 0x5))), function at exception vector 58 too large)

.vector_59      0x9d003960        0x0
 *(.vector_59)
                0x00000001                ASSERT (((_vector_spacing == 0x0) || (SIZEOF (.vector_59) <= (_vector_spacing << 0x5))), function at exception vector 59 too large)

.vector_60      0x9d003980        0x0
 *(.vector_60)
                0x00000001                ASSERT (((_vector_spacing == 0x0) || (SIZEOF (.vector_60) <= (_vector_spacing << 0x5))), function at exception vector 60 too large)

.vector_61      0x9d0039a0        0x0
 *(.vector_61)
                0x00000001                ASSERT (((_vector_spacing == 0x0) || (SIZEOF (.vector_61) <= (_vector_spacing << 0x5))), function at exception vector 61 too large)

.vector_62      0x9d0039c0        0x0
 *(.vector_62)
                0x00000001                ASSERT (((_vector_spacing == 0x0) || (SIZEOF (.vector_62) <= (_vector_spacing << 0x5))), function at exception vector 62 too large)

.vector_63      0x9d0039e0        0x0
 *(.vector_63)
                0x00000001                ASSERT (((_vector_spacing == 0x0) || (SIZEOF (.vector_63) <= (_vector_spacing << 0x5))), function at exception vector 63 too large)

.startup
 *(.startup)

.text           0x9d004490        0x0
 *(.stub .gnu.linkonce.t.*)
 *(.text.*personality*)
 *(.mips16.fn.*)
 *(.mips16.call.*)
 *(.gnu.warning)
                0x9d004490                . = ALIGN (0x4)

.init           0x9d004490        0x0
 *crti.o(.init)
 *crtbegin.o(.init)
 *(EXCLUDE_FILE(*crtn.o *crtend?.o *crtend.o) .init)
 *crtend.o(.init)
 *crtn.o(.init)
                0x9d004490                . = ALIGN (0x4)

.fini           0x9d004490        0x0
 *(.fini)
                0x9d004490                . = ALIGN (0x4)

.preinit_array  0x9d004490        0x0
                0x9d004490                PROVIDE (__preinit_array_start, .)
 *(.preinit_array)
                0x9d004490                PROVIDE (__preinit_array_end, .)
                0x9d004490                . = ALIGN (0x4)

.init_array     0x9d004490        0x0
                0x9d004490                PROVIDE (__init_array_start, .)
 *(SORT(.init_array.*))
 *(.init_array)
                0x9d004490                PROVIDE (__init_array_end, .)
                0x9d004490                . = ALIGN (0x4)

.fini_array     0x9d004490        0x0
                0x9d004490                PROVIDE (__fini_array_start, .)
 *(SORT(.fini_array.*))
 *(.fini_array)
                0x9d004490                PROVIDE (__fini_array_end, .)
                0x9d004490                . = ALIGN (0x4)

.ctors          0x9d004490        0x0
 *crtbegin.o(.ctors)
 *crtbegin?.o(.ctors)
 *(EXCLUDE_FILE(*crtend?.o *crtend.o) .ctors)
 *(SORT(.ctors.*))
 *(.ctors)
                0x9d004490                . = ALIGN (0x4)

.dtors          0x9d004490        0x0
 *crtbegin.o(.dtors)
 *crtbegin?.o(.dtors)
 *(EXCLUDE_FILE(*crtend?.o *crtend.o) .dtors)
 *(SORT(.dtors.*))
 *(.dtors)
                0x9d004490                . = ALIGN (0x4)

.rodata         0x9d004490        0x0
 *(.gnu.linkonce.r.*)
 *(.rodata1)
                0x9d004490                . = ALIGN (0x4)

.sdata2         0x9d003000        0x0
 *(.sdata2 .sdata2.* .gnu.linkonce.s2.*)
                0x9d003000                . = ALIGN (0x4)

.sbss2          0x9d003000        0x0
 *(.sbss2 .sbss2.* .gnu.linkonce.sb2.*)
                0x9d003000                . = ALIGN (0x4)

.eh_frame_hdr
 *(.eh_frame_hdr)
                0x9d003000                . = ALIGN (0x4)

.eh_frame
 *(.eh_frame)
                0x9d003000                . = ALIGN (0x4)

.gcc_except_table
 *(.gcc_except_table .gcc_except_table.*)
                0x9d003000                . = ALIGN (0x4)

.dbg_data       0xa0000000        0x0
                0xa0000000                . = (. + DEFINED (_DEBUGGER)?0x200:0x0)

.jcr            0xa0000000        0x0
 *(.jcr)
                0xa0000000                . = ALIGN (0x4)

.eh_frame       0xa0000000       0x40
 *(.eh_frame)
 .eh_frame      0xa0000000       0x28 c:/program files (x86)/microchip/xc32/v1.22/bin/../lib/gcc/pic32mx/4.5.2/mips16\libgcc.a(_udivdi3.o)
 .eh_frame      0xa0000028       0x18 c:/program files (x86)/microchip/xc32/v1.22/bin/../lib/gcc/pic32mx/4.5.2/mips16\libgcc.a(_umoddi3.o)
                0xa0000040                . = ALIGN (0x4)

.gcc_except_table
 *(.gcc_except_table .gcc_except_table.*)
                0xa0000040                . = ALIGN (0x4)

.persist        0xa0000040        0x4
                0xa0000040                _persist_begin = .
 *(.persist .persist.*)
 *(.pbss .pbss.*)
 .pbss.NextPort
                0xa0000040        0x2 build/default/production/_ext/1340694758/UDP.o
                0xa0000044                . = ALIGN (0x4)
 *fill*         0xa0000042        0x2 
                0xa0000044                _persist_end = .

.data           0xa0000044        0x0
 *(.gnu.linkonce.d.*)
 *(.data1)
                0xa0000044                . = ALIGN (0x4)
                0xa0000044                . = .
                0xa0008040                _gp = (ALIGN (0x10) + 0x7ff0)

.got            0xa0000044        0x0
 *(.got.plt)
 *(.got)
                0xa0000044                . = ALIGN (0x4)

.sdata          0xa0000044       0x34
                0xa0000044                _sdata_begin = .
 *(.sdata .sdata.* .gnu.linkonce.s.*)
 .sdata.localPort.localPort
                0xa0000044        0x2 build/default/production/_ext/454704213/osc.o
 .sdata.remotePort.remotePort
                0xa0000046        0x2 build/default/production/_ext/454704213/osc.o
 .sdata.remoteIP.remoteIP
                0xa0000048        0x4 build/default/production/_ext/454704213/osc.o
 .sdata.bDHCPServerEnabled.bDHCPServerEnabled
                0xa000004c        0x4 build/default/production/_ext/1340694758/DHCPs.o
                0xa000004c                bDHCPServerEnabled
 .sdata.smDHCPServer.smDHCPServer
                0xa0000050        0x4 build/default/production/_ext/1340694758/DHCPs.o
 .sdata.MySocket.MySocket
                0xa0000054        0x1 build/default/production/_ext/1340694758/DHCPs.o
 *fill*         0xa0000055        0x3 
 .sdata.dwLFSRRandSeed.dwLFSRRandSeed
                0xa0000058        0x4 build/default/production/_ext/1340694758/Helpers.o
 .sdata.SocketWithRxData.SocketWithRxData
                0xa000005c        0x1 build/default/production/_ext/1340694758/UDP.o
 .sdata.LastPutSocket.LastPutSocket
                0xa000005d        0x1 build/default/production/_ext/1340694758/UDP.o
 *fill*         0xa000005e        0x2 
 .sdata.callbacks.callbacks
                0xa0000060        0x8 build/default/production/_ext/1340694758/ZeroconfLinkLocal.o
 .sdata.CONST_STR_local.CONST_STR_local
                0xa0000068        0x4 build/default/production/_ext/1340694758/ZeroconfMulticastDNS.o
                0xa0000068                CONST_STR_local
 .sdata.mDNS_socket.mDNS_socket
                0xa000006c        0x1 build/default/production/_ext/1340694758/ZeroconfMulticastDNS.o
                0xa000006c                mDNS_socket
 *fill*         0xa000006d        0x3 
 .sdata.call_iseq.call_iseq
                0xa0000070        0x4 ..\mruby-1.0.0\build\PICrouter\lib\libmruby.a(proc.o)
 .sdata         0xa0000074        0x4 c:/program files (x86)/microchip/xc32/v1.22/bin/../lib/gcc/pic32mx/4.5.2/../../../../pic32mx/lib/mips16\libpic32.a(xc32_uart.o)
                0xa0000074                __XC_UART
                0xa0000078                . = ALIGN (0x4)
                0xa0000078                _sdata_end = .

.lit8
 *(.lit8)

.lit4
 *(.lit4)
                0xa0000078                . = ALIGN (0x4)
                0xa0000078                _data_end = .
                0xa0000078                _bss_begin = .

.sbss           0xa0000078      0x28c
                0xa0000078                _sbss_begin = .
 *(.dynsbss)
 *(.sbss .sbss.* .gnu.linkonce.sb.*)
 .sbss.currentSection.currentSection
                0xa0000078        0x4 build/default/production/_ext/454704213/analog.o
 .sbss.currentPosition.currentPosition
                0xa000007c        0x4 build/default/production/_ext/454704213/analog.o
 .sbss.currentPosition1.currentPosition1
                0xa0000080        0x4 build/default/production/_ext/454704213/analog.o
 .sbss.prevPosition.prevPosition
                0xa0000084        0x4 build/default/production/_ext/454704213/analog.o
 .sbss.currentDirection.currentDirection
                0xa0000088        0x4 build/default/production/_ext/454704213/analog.o
 .sbss.prevDirection.prevDirection
                0xa000008c        0x4 build/default/production/_ext/454704213/analog.o
 .sbss.prevSection.prevSection
                0xa0000090        0x4 build/default/production/_ext/454704213/analog.o
 .sbss.centerPosition.centerPosition
                0xa0000094        0x4 build/default/production/_ext/454704213/analog.o
 .sbss.currentDirection1.currentDirection1
                0xa0000098        0x4 build/default/production/_ext/454704213/analog.o
 .sbss.ioPwmPort.ioPwmPort
                0xa000009c        0x4 build/default/production/_ext/454704213/iosetting.o
                0xa000009c                ioPwmPort
 .sbss.ioDPort.ioDPort
                0xa00000a0        0x4 build/default/production/_ext/454704213/iosetting.o
                0xa00000a0                ioDPort
 .sbss.ioSpiPort.ioSpiPort
                0xa00000a4        0x8 build/default/production/_ext/454704213/iosetting.o
                0xa00000a4                ioSpiPort
 .sbss.rcvArgumentsLength.rcvArgumentsLength
                0xa00000ac        0x2 build/default/production/_ext/454704213/osc.o
 .sbss.rcvPrefixLength.rcvPrefixLength
                0xa00000ae        0x2 build/default/production/_ext/454704213/osc.o
 .sbss.rcvAddressLength.rcvAddressLength
                0xa00000b0        0x2 build/default/production/_ext/454704213/osc.o
 .sbss.bundleAppendIndex.bundleAppendIndex
                0xa00000b2        0x2 build/default/production/_ext/454704213/osc.o
 .sbss.oscTotalSize.oscTotalSize
                0xa00000b4        0x4 build/default/production/_ext/454704213/osc.o
 .sbss.state_index.state_index
                0xa00000b8        0x1 build/default/production/_ext/454704213/osc.o
 .sbss.indexA.indexA
                0xa00000b9        0x1 build/default/production/_ext/454704213/osc.o
 .sbss.indexB.indexB
                0xa00000ba        0x1 build/default/production/_ext/454704213/osc.o
 .sbss.ringProcessIndex.ringProcessIndex
                0xa00000bb        0x1 build/default/production/_ext/454704213/osc.o
 .sbss.ringBufIndex.ringBufIndex
                0xa00000bc        0x1 build/default/production/_ext/454704213/osc.o
 *fill*         0xa00000bd        0x1 
 .sbss.rcvTypesStartIndex.rcvTypesStartIndex
                0xa00000be        0x2 build/default/production/_ext/454704213/osc.o
 .sbss.initReceiveFlag.initReceiveFlag
                0xa00000c0        0x4 build/default/production/_ext/454704213/osc.o
 .sbss.DiscoverSocket.DiscoverSocket
                0xa00000c4        0x1 build/default/production/_ext/454704213/osc.o
 .sbss.TxSocket.TxSocket
                0xa00000c5        0x1 build/default/production/_ext/454704213/osc.o
 .sbss.RxSocket.RxSocket
                0xa00000c6        0x1 build/default/production/_ext/454704213/osc.o
 *fill*         0xa00000c7        0x1 
 .sbss.initDiscoverFlag.initDiscoverFlag
                0xa00000c8        0x4 build/default/production/_ext/454704213/osc.o
 .sbss.initSendFlag.initSendFlag
                0xa00000cc        0x4 build/default/production/_ext/454704213/osc.o
 .sbss.stdPrefix.stdPrefix
                0xa00000d0        0x4 build/default/production/_ext/454704213/osc.o
 .sbss.chCompletedFlag.chCompletedFlag
                0xa00000d4        0x4 build/default/production/_ext/454704213/osc.o
 .sbss.smARP.22093.smARP
                0xa00000d8        0x4 build/default/production/_ext/1340694758/ARP.o
 .sbss.DHCPClientInitializedOnce.DHCPClientInitializedOnce
                0xa00000dc        0x4 build/default/production/_ext/1340694758/DHCP.o
                0xa00000dc                DHCPClientInitializedOnce
 .sbss.DHCPNextLease.DHCPNextLease
                0xa00000e0        0x4 build/default/production/_ext/1340694758/DHCPs.o
 .sbss.flag_init.22107.flag_init
                0xa00000e4        0x4 build/default/production/_ext/1340694758/DHCPs.o
 .sbss.dhcp_timer.22176.dhcp_timer
                0xa00000e8        0x4 build/default/production/_ext/1340694758/DHCPs.o
 .sbss._stackMgrRxOkPkts._stackMgrRxOkPkts
                0xa00000ec        0x4 build/default/production/_ext/1340694758/ETHPIC32IntMac.o
                0xa00000ec                _stackMgrRxOkPkts
 .sbss._stackMgrRxBadPkts._stackMgrRxBadPkts
                0xa00000f0        0x4 build/default/production/_ext/1340694758/ETHPIC32IntMac.o
                0xa00000f0                _stackMgrRxBadPkts
 .sbss._stackMgrInGetHdr._stackMgrInGetHdr
                0xa00000f4        0x4 build/default/production/_ext/1340694758/ETHPIC32IntMac.o
                0xa00000f4                _stackMgrInGetHdr
 .sbss._stackMgrRxDiscarded._stackMgrRxDiscarded
                0xa00000f8        0x4 build/default/production/_ext/1340694758/ETHPIC32IntMac.o
                0xa00000f8                _stackMgrRxDiscarded
 .sbss._stackMgrTxNotReady._stackMgrTxNotReady
                0xa00000fc        0x4 build/default/production/_ext/1340694758/ETHPIC32IntMac.o
                0xa00000fc                _stackMgrTxNotReady
 .sbss._pRxCurrBuff._pRxCurrBuff
                0xa0000100        0x4 build/default/production/_ext/1340694758/ETHPIC32IntMac.o
 .sbss._CurrRdPtr._CurrRdPtr
                0xa0000104        0x4 build/default/production/_ext/1340694758/ETHPIC32IntMac.o
 .sbss._CurrWrPtr._CurrWrPtr
                0xa0000108        0x4 build/default/production/_ext/1340694758/ETHPIC32IntMac.o
 .sbss._linkPresent._linkPresent
                0xa000010c        0x4 build/default/production/_ext/1340694758/ETHPIC32IntMac.o
 .sbss._linkUpdTick._linkUpdTick
                0xa0000110        0x4 build/default/production/_ext/1340694758/ETHPIC32IntMac.o
 .sbss._linkNegotiation._linkNegotiation
                0xa0000114        0x4 build/default/production/_ext/1340694758/ETHPIC32IntMac.o
 .sbss._linkPrev._linkPrev
                0xa0000118        0x4 build/default/production/_ext/1340694758/ETHPIC32IntMac.o
 .sbss._RxCurrSize._RxCurrSize
                0xa000011c        0x2 build/default/production/_ext/1340694758/ETHPIC32IntMac.o
 *fill*         0xa000011e        0x2 
 .sbss._pTxCurrDcpt._pTxCurrDcpt
                0xa0000120        0x4 build/default/production/_ext/1340694758/ETHPIC32IntMac.o
 .sbss._TxCurrSize._TxCurrSize
                0xa0000124        0x2 build/default/production/_ext/1340694758/ETHPIC32IntMac.o
 *fill*         0xa0000126        0x2 
 .sbss._TxLastDcptIx._TxLastDcptIx
                0xa0000128        0x4 build/default/production/_ext/1340694758/ETHPIC32IntMac.o
 .sbss.IPHeaderLen.IPHeaderLen
                0xa000012c        0x1 build/default/production/_ext/1340694758/IP.o
 *fill*         0xa000012d        0x1 
 .sbss._Identifier._Identifier
                0xa000012e        0x2 build/default/production/_ext/1340694758/IP.o
 .sbss.bLastLinkState.22068.bLastLinkState
                0xa0000130        0x4 build/default/production/_ext/1340694758/StackTsk.o
 .sbss.smStack.smStack
                0xa0000134        0x4 build/default/production/_ext/1340694758/StackTsk.o
 .sbss.once.22060.once
                0xa0000138        0x4 build/default/production/_ext/1340694758/StackTsk.o
 .sbss.dwInternalTicks.dwInternalTicks
                0xa000013c        0x4 build/default/production/_ext/1340694758/Tick.o
 .sbss.vTickReading.vTickReading
                0xa0000140        0x8 build/default/production/_ext/1340694758/Tick.o
 .sbss.Flags.Flags
                0xa0000148        0x4 build/default/production/_ext/1340694758/UDP.o
 .sbss.wGetOffset.wGetOffset
                0xa000014c        0x2 build/default/production/_ext/1340694758/UDP.o
 .sbss.wPutOffset.wPutOffset
                0xa000014e        0x2 build/default/production/_ext/1340694758/UDP.o
 .sbss.zcll_state.zcll_state
                0xa0000150        0x4 build/default/production/_ext/1340694758/ZeroconfLinkLocal.o
                0xa0000150                zcll_state
 .sbss.zcll_dhcp_substate.zcll_dhcp_substate
                0xa0000154        0x4 build/default/production/_ext/1340694758/ZeroconfLinkLocal.o
                0xa0000154                zcll_dhcp_substate
 .sbss.temp_IP_addr.temp_IP_addr
                0xa0000158        0x4 build/default/production/_ext/1340694758/ZeroconfLinkLocal.o
 .sbss.conflict_count.conflict_count
                0xa000015c        0x1 build/default/production/_ext/1340694758/ZeroconfLinkLocal.o
 *fill*         0xa000015d        0x3 
 .sbss.bDefaultIPTried.bDefaultIPTried
                0xa0000160        0x4 build/default/production/_ext/1340694758/ZeroconfLinkLocal.o
 .sbss.probe_count.probe_count
                0xa0000164        0x1 build/default/production/_ext/1340694758/ZeroconfLinkLocal.o
 *fill*         0xa0000165        0x3 
 .sbss.zcll_flags.zcll_flags
                0xa0000168        0x4 build/default/production/_ext/1340694758/ZeroconfLinkLocal.o
 .sbss.temp_MAC_addr.temp_MAC_addr
                0xa000016c        0x8 build/default/production/_ext/1340694758/ZeroconfLinkLocal.o
 .sbss.announce_count.announce_count
                0xa0000174        0x1 build/default/production/_ext/1340694758/ZeroconfLinkLocal.o
 *fill*         0xa0000175        0x3 
 .sbss.random_delay.22161.random_delay
                0xa0000178        0x4 build/default/production/_ext/1340694758/ZeroconfLinkLocal.o
 .sbss.defended.22160.defended
                0xa000017c        0x1 build/default/production/_ext/1340694758/ZeroconfLinkLocal.o
 .sbss.time_recorded.22159.time_recorded
                0xa000017d        0x1 build/default/production/_ext/1340694758/ZeroconfLinkLocal.o
 *fill*         0xa000017e        0x2 
 .sbss.event_time.22158.event_time
                0xa0000180        0x4 build/default/production/_ext/1340694758/ZeroconfLinkLocal.o
 .sbss.arp_reg_id.arp_reg_id
                0xa0000184        0x1 build/default/production/_ext/1340694758/ZeroconfLinkLocal.o
 *fill*         0xa0000185        0x3 
 .sbss.mDNS_responder_state.mDNS_responder_state
                0xa0000188        0x4 build/default/production/_ext/1340694758/ZeroconfMulticastDNS.o
                0xa0000188                mDNS_responder_state
 .sbss.g_mDNS_offset.g_mDNS_offset
                0xa000018c        0x2 build/default/production/_ext/1340694758/ZeroconfMulticastDNS.o
 *fill*         0xa000018e        0x2 
 .sbss.pCurrentConfigurationDescriptor.pCurrentConfigurationDescriptor
                0xa0000190        0x4 build/default/production/_ext/1798056102/usb_host.o
                0xa0000190                pCurrentConfigurationDescriptor
 .sbss.pDeviceDescriptor.pDeviceDescriptor
                0xa0000194        0x4 build/default/production/_ext/1798056102/usb_host.o
                0xa0000194                pDeviceDescriptor
 .sbss.numTimerInterrupts.numTimerInterrupts
                0xa0000198        0x2 build/default/production/_ext/1798056102/usb_host.o
 .sbss.usbHostState.usbHostState
                0xa000019a        0x2 build/default/production/_ext/1798056102/usb_host.o
 .sbss.pCurrentEndpoint.pCurrentEndpoint
                0xa000019c        0x4 build/default/production/_ext/1798056102/usb_host.o
 .sbss.usbBusInfo.usbBusInfo
                0xa00001a0        0x4 build/default/production/_ext/1798056102/usb_host.o
 .sbss.pEP0Data.pEP0Data
                0xa00001a4        0x4 build/default/production/_ext/1798056102/usb_host.o
 .sbss.numCommandTries.numCommandTries
                0xa00001a8        0x1 build/default/production/_ext/1798056102/usb_host.o
 .sbss.numEnumerationTries.numEnumerationTries
                0xa00001a9        0x1 build/default/production/_ext/1798056102/usb_host.o
 *fill*         0xa00001aa        0x2 
 .sbss.usbRootHubInfo.usbRootHubInfo
                0xa00001ac        0x4 build/default/production/_ext/1798056102/usb_host.o
 .sbss.countConfigurations.countConfigurations
                0xa00001b0        0x1 build/default/production/_ext/1798056102/usb_host.o
 *fill*         0xa00001b1        0x3 
 .sbss.pCurrentConfigurationNode.22569.pCurrentConfigurationNode
                0xa00001b4        0x4 build/default/production/_ext/1798056102/usb_host.o
 .sbss.CDCdeviceAddress.CDCdeviceAddress
                0xa00001b8        0x1 build/default/production/_ext/1798056102/usb_host_cdc.o
                0xa00001b8                CDCdeviceAddress
 *fill*         0xa00001b9        0x3 
 .sbss.devices.devices
                0xa00001bc        0x8 build/default/production/_ext/1798056102/usb_host_midi.o
 .sbss.MIDITxHandle.MIDITxHandle
                0xa00001c4        0x4 build/default/production/picrouter.o
                0xa00001c4                MIDITxHandle
 .sbss.MIDIRxHandle.MIDIRxHandle
                0xa00001c8        0x4 build/default/production/picrouter.o
                0xa00001c8                MIDIRxHandle
 .sbss.HIDTxHandle.HIDTxHandle
                0xa00001cc        0x4 build/default/production/picrouter.o
                0xa00001cc                HIDTxHandle
 .sbss.HIDRxHandle.HIDRxHandle
                0xa00001d0        0x4 build/default/production/picrouter.o
                0xa00001d0                HIDRxHandle
 .sbss.cdcSendFlag.cdcSendFlag
                0xa00001d4        0x4 build/default/production/picrouter.o
                0xa00001d4                cdcSendFlag
 .sbss.cdcReceiveInterval.cdcReceiveInterval
                0xa00001d8        0x2 build/default/production/picrouter.o
                0xa00001d8                cdcReceiveInterval
 .sbss.midiType.midiType
                0xa00001da        0x1 build/default/production/picrouter.o
                0xa00001da                midiType
 .sbss.midiCh.midiCh
                0xa00001db        0x1 build/default/production/picrouter.o
                0xa00001db                midiCh
 .sbss.midiNum.midiNum
                0xa00001dc        0x1 build/default/production/picrouter.o
                0xa00001dc                midiNum
 .sbss.midiVal.midiVal
                0xa00001dd        0x1 build/default/production/picrouter.o
                0xa00001dd                midiVal
 *fill*         0xa00001de        0x2 
 .sbss.onTimer2.onTimer2
                0xa00001e0        0x4 build/default/production/picrouter.o
                0xa00001e0                onTimer2
 .sbss.dwLastIP.dwLastIP
                0xa00001e4        0x4 build/default/production/picrouter.o
                0xa00001e4                dwLastIP
 .sbss.sendOSCTaskIndex.sendOSCTaskIndex
                0xa00001e8        0x1 build/default/production/picrouter.o
 .sbss.swState1.swState1
                0xa00001e9        0x1 build/default/production/picrouter.o
 .sbss.swState0.swState0
                0xa00001ea        0x1 build/default/production/picrouter.o
 *fill*         0xa00001eb        0x1 
 .sbss.device_mode.device_mode
                0xa00001ec        0x4 build/default/production/picrouter.o
 .sbss          0xa00001f0       0x20 c:/program files (x86)/microchip/xc32/v1.22/bin/../lib/gcc/pic32mx/4.5.2/../../../../pic32mx/lib/mips16\libmchp_peripheral_32MX795F512H.a(eth_descriptors_add_lib.o)
                0xa00001f0                _EthTxFreeList
                0xa00001f8                _EthTxBusyList
                0xa0000200                _EthRxFreeList
                0xa0000208                _EthRxBusyList
 .sbss          0xa0000210        0x4 c:/program files (x86)/microchip/xc32/v1.22/bin/../lib/gcc/pic32mx/4.5.2/../../../../pic32mx/lib/mips16\libpic32.a(errno.o)
                0xa0000210                errno
 .sbss          0xa0000214        0x1 c:/program files (x86)/microchip/xc32/v1.22/bin/../lib/gcc/pic32mx/4.5.2/../../../../pic32mx/lib/mips16\libc.a(_iob.o)
                0xa0000214                _outdone
 *fill*         0xa0000215        0x3 
 .sbss          0xa0000218       0x10 c:/program files (x86)/microchip/xc32/v1.22/bin/../lib/gcc/pic32mx/4.5.2/../../../../pic32mx/lib/mips16\libc.a(malloc.o)
                0xa0000218                __allocp
                0xa000021c                __alloct
                0xa0000220                __allocx
 .sbss          0xa0000228        0x8 c:/program files (x86)/microchip/xc32/v1.22/bin/../lib/gcc/pic32mx/4.5.2/../../../../pic32mx/lib/mips16\libpic32.a(sbrk.o)
                0xa0000228                _minbrk
                0xa000022c                _maxbrk
 *(.scommon)
 .scommon       0xa0000230        0x4 build/default/production/_ext/1340694758/ETHPIC32ExtPhy.o
                0xa0000230                _PhyAdd
 .scommon       0xa0000234        0x5 build/default/production/_ext/1340694758/UDP.o
                0xa0000234                UDPRxCount
                0xa0000236                UDPTxCount
                0xa0000238                activeUDPSocket
 *fill*         0xa0000239        0x3 
 .scommon       0xa000023c       0x69 build/default/production/_ext/1798056102/usb_device.o
                0xa000023c                BothEP0OutUOWNsSet
                0xa0000240                USBDeferStatusStagePacket
                0xa0000244                USBStatusStageEnabledFlag1
                0xa0000248                USBActiveConfiguration
                0xa000024c                USBStatusStageEnabledFlag2
                0xa0000250                shortPacketStatus
                0xa0000254                USTATcopy
                0xa0000258                SetupPkt
                0xa0000260                USBBusIsSuspended
                0xa0000264                ep_data_out
                0xa000026c                pBDTEntryEP0OutNext
                0xa0000270                controlTransferState
                0xa0000274                pBDTEntryEP0OutCurrent
                0xa0000278                pDst
                0xa000027c                endpoint_number
                0xa0000280                USBDeferINDataStagePackets
                0xa0000284                USBDeferOUTDataStagePackets
                0xa0000288                USBDeviceState
                0xa000028c                CtrlTrfData
                0xa0000294                USBStatusStageTimeoutCounter
                0xa0000298                RemoteWakeup
                0xa000029c                USBAlternateInterface
                0xa00002a0                ep_data_in
 .scommon       0xa00002a5        0x2 build/default/production/_ext/1798056102/usb_function_hid.o
                0xa00002a5                idle_rate
                0xa00002a6                active_protocol
 *fill*         0xa00002a7        0x1 
 .scommon       0xa00002a8        0x2 build/default/production/_ext/1798056102/usb_host.o
                0xa00002a8                usbOverrideHostState
 *fill*         0xa00002aa        0x2 
 .scommon       0xa00002ac       0x14 build/default/production/_ext/1798056102/usb_host_cdc.o
                0xa00002ac                CDC_DEV_LINE_CODING_Buffer
                0xa00002b4                CDC_LINE_CODING_Buffer
                0xa00002bc                CDC_CONTROL_SIGNAL_Buffer
 .scommon       0xa00002c0       0x40 build/default/production/picrouter.o
                0xa00002c0                width
                0xa00002c4                currentState
                0xa00002c5                msCounter
                0xa00002c6                ErrorDriver
                0xa00002c8                OSCTranslatedToUSB
                0xa00002cc                TxHostMidiDataBuffer
                0xa00002d0                deviceHandle
                0xa00002d4                endpointBuffers
                0xa00002d8                midiData
                0xa00002dc                RxHostMidiDataBuffer
                0xa00002e0                NumOfBytesRcvd
                0xa00002e4                freq
                0xa00002e8                cdcOutDataLength
                0xa00002e9                prevState
                0xa00002ec                ProcState
                0xa00002f0                mrb
                0xa00002f4                duty
                0xa00002fc                APPL_CDC_State
 .scommon       0xa0000300        0x4 c:/program files (x86)/microchip/xc32/v1.22/bin/../lib/gcc/pic32mx/4.5.2/../../../../pic32mx/lib/mips16\libpic32.a(setjmp.o)
                0xa0000300                _nofpu
                0xa0000304                _sbss_end = .
                0xa0000304                . = ALIGN (0x4)

.bss            0xa0000400      0x690
 *(.dynbss)
 *(COMMON)
 COMMON         0xa0000400       0x33 build/default/production/_ext/454704213/analog.o
                0xa0000400                AppConfig
 *fill*         0xa0000433        0x1 
 COMMON         0xa0000434       0x78 build/default/production/_ext/1340694758/DHCPs.o
                0xa0000434                DhcpIpPool
 COMMON         0xa00004ac        0xa build/default/production/_ext/1340694758/StackTsk.o
                0xa00004ac                remoteNode
 *fill*         0xa00004b6        0x2 
 COMMON         0xa00004b8       0xe0 build/default/production/_ext/1340694758/UDP.o
                0xa00004b8                UDPSocketInfo
 *fill*         0xa0000598       0x68 
 COMMON         0xa0000600      0x2bb build/default/production/_ext/1798056102/usb_device.o
                0xa0000600                pBDTEntryOut
                0xa0000614                pBDTEntryIn
                0xa0000800                BDT
                0xa00008a0                inPipes
                0xa00008b0                outPipes
 *fill*         0xa00008bb        0x5 
 COMMON         0xa00008c0       0x40 build/default/production/_ext/1798056102/usb_host_cdc.o
                0xa00008c0                deviceInfoCDC
 COMMON         0xa0000900      0x190 build/default/production/picrouter.o
                0xa0000900                USB_CDC_IN_Data_Array
                0xa0000940                ReceivedMidiDataBuffer
                0xa0000980                onSquare
                0xa0000990                ReceivedHidDataBuffer
                0xa00009d0                ToSendHidDataBuffer
                0xa0000a10                ToSendMidiDataBuffer
                0xa0000a50                USB_CDC_OUT_Data_Array
                0xa0000a90                . = ALIGN ((. != 0x0)?0x4:0x1)
                0xa0000a90                . = ALIGN (0x4)
                0xa0000a90                _end = .
                0xa0000a90                _bss_end = .
                0x00020000                _bmxdudba_address = 0x20000
                0x00020000                _bmxdupba_address = 0x20000

/DISCARD/
 *(.pdr)
 *(.rel.dyn)
 *(.note.GNU-stack)
 *(.note.GNU-stack)
 *(.gnu_debuglink)
 *(.gnu.lto_*)
 *(.discard)

.gptab.sdata
 *(.gptab.data)
 *(.gptab.sdata)

.gptab.sbss
 *(.gptab.bss)
 *(.gptab.sbss)

.mdebug.abi32   0xa0000a90        0x0
 *(.mdebug.abi32)
 .mdebug.abi32  0xa0000a90        0x0 build/default/production/_ext/454704213/analog.o
 .mdebug.abi32  0xa0000a90        0x0 build/default/production/_ext/454704213/iosetting.o
 .mdebug.abi32  0xa0000a90        0x0 build/default/production/_ext/454704213/TimeDelay.o
 .mdebug.abi32  0xa0000a90        0x0 build/default/production/_ext/454704213/usb_config.o
 .mdebug.abi32  0xa0000a90        0x0 build/default/production/_ext/454704213/usb_descriptors.o
 .mdebug.abi32  0xa0000a90        0x0 build/default/production/_ext/454704213/osc.o
 .mdebug.abi32  0xa0000a90        0x0 build/default/production/_ext/454704213/sram.o
 .mdebug.abi32  0xa0000a90        0x0 build/default/production/_ext/1340694758/ARP.o
 .mdebug.abi32  0xa0000a90        0x0 build/default/production/_ext/1340694758/DHCP.o
 .mdebug.abi32  0xa0000a90        0x0 build/default/production/_ext/1340694758/DHCPs.o
 .mdebug.abi32  0xa0000a90        0x0 build/default/production/_ext/1340694758/ETHPIC32ExtPhy.o
 .mdebug.abi32  0xa0000a90        0x0 build/default/production/_ext/1340694758/ETHPIC32ExtPhyDP83848.o
 .mdebug.abi32  0xa0000a90        0x0 build/default/production/_ext/1340694758/ETHPIC32IntMac.o
 .mdebug.abi32  0xa0000a90        0x0 build/default/production/_ext/1340694758/Helpers.o
 .mdebug.abi32  0xa0000a90        0x0 build/default/production/_ext/1340694758/ICMP.o
 .mdebug.abi32  0xa0000a90        0x0 build/default/production/_ext/1340694758/IP.o
 .mdebug.abi32  0xa0000a90        0x0 build/default/production/_ext/1340694758/NBNS.o
 .mdebug.abi32  0xa0000a90        0x0 build/default/production/_ext/1340694758/StackTsk.o
 .mdebug.abi32  0xa0000a90        0x0 build/default/production/_ext/1340694758/Tick.o
 .mdebug.abi32  0xa0000a90        0x0 build/default/production/_ext/1340694758/UDP.o
 .mdebug.abi32  0xa0000a90        0x0 build/default/production/_ext/1340694758/ZeroconfHelper.o
 .mdebug.abi32  0xa0000a90        0x0 build/default/production/_ext/1340694758/ZeroconfLinkLocal.o
 .mdebug.abi32  0xa0000a90        0x0 build/default/production/_ext/1340694758/ZeroconfMulticastDNS.o
 .mdebug.abi32  0xa0000a90        0x0 build/default/production/_ext/1798056102/usb_device.o
 .mdebug.abi32  0xa0000a90        0x0 build/default/production/_ext/1798056102/usb_function_hid.o
 .mdebug.abi32  0xa0000a90        0x0 build/default/production/_ext/1798056102/usb_host.o
 .mdebug.abi32  0xa0000a90        0x0 build/default/production/_ext/1798056102/usb_host_cdc.o
 .mdebug.abi32  0xa0000a90        0x0 build/default/production/_ext/1798056102/usb_host_cdc_interface.o
 .mdebug.abi32  0xa0000a90        0x0 build/default/production/_ext/1798056102/usb_host_hid.o
 .mdebug.abi32  0xa0000a90        0x0 build/default/production/_ext/1798056102/usb_host_hid_parser.o
 .mdebug.abi32  0xa0000a90        0x0 build/default/production/_ext/1798056102/usb_host_midi.o
 .mdebug.abi32  0xa0000a90        0x0 build/default/production/picrouter.o
 .mdebug.abi32  0xa0000a90        0x0 build/default/production/mrb_picrouter.o
 .mdebug.abi32  0xa0000a90        0x0 ..\mruby-1.0.0\build\PICrouter\lib\libmruby.a(class.o)
 .mdebug.abi32  0xa0000a90        0x0 ..\mruby-1.0.0\build\PICrouter\lib\libmruby.a(error.o)
 .mdebug.abi32  0xa0000a90        0x0 ..\mruby-1.0.0\build\PICrouter\lib\libmruby.a(gc.o)
 .mdebug.abi32  0xa0000a90        0x0 ..\mruby-1.0.0\build\PICrouter\lib\libmruby.a(hash.o)
 .mdebug.abi32  0xa0000a90        0x0 ..\mruby-1.0.0\build\PICrouter\lib\libmruby.a(kernel.o)
 .mdebug.abi32  0xa0000a90        0x0 ..\mruby-1.0.0\build\PICrouter\lib\libmruby.a(load.o)
 .mdebug.abi32  0xa0000a90        0x0 ..\mruby-1.0.0\build\PICrouter\lib\libmruby.a(object.o)
 .mdebug.abi32  0xa0000a90        0x0 ..\mruby-1.0.0\build\PICrouter\lib\libmruby.a(print.o)
 .mdebug.abi32  0xa0000a90        0x0 ..\mruby-1.0.0\build\PICrouter\lib\libmruby.a(proc.o)
 .mdebug.abi32  0xa0000a90        0x0 ..\mruby-1.0.0\build\PICrouter\lib\libmruby.a(state.o)
 .mdebug.abi32  0xa0000a90        0x0 ..\mruby-1.0.0\build\PICrouter\lib\libmruby.a(string.o)
 .mdebug.abi32  0xa0000a90        0x0 ..\mruby-1.0.0\build\PICrouter\lib\libmruby.a(symbol.o)
 .mdebug.abi32  0xa0000a90        0x0 ..\mruby-1.0.0\build\PICrouter\lib\libmruby.a(variable.o)
 .mdebug.abi32  0xa0000a90        0x0 ..\mruby-1.0.0\build\PICrouter\lib\libmruby.a(vm.o)
 .mdebug.abi32  0xa0000a90        0x0 ..\mruby-1.0.0\build\PICrouter\lib\libmruby.a(array.o)
 .mdebug.abi32  0xa0000a90        0x0 ..\mruby-1.0.0\build\PICrouter\lib\libmruby.a(backtrace.o)
 .mdebug.abi32  0xa0000a90        0x0 ..\mruby-1.0.0\build\PICrouter\lib\libmruby.a(crc.o)
 .mdebug.abi32  0xa0000a90        0x0 ..\mruby-1.0.0\build\PICrouter\lib\libmruby.a(debug.o)
 .mdebug.abi32  0xa0000a90        0x0 ..\mruby-1.0.0\build\PICrouter\lib\libmruby.a(etc.o)
 .mdebug.abi32  0xa0000a90        0x0 ..\mruby-1.0.0\build\PICrouter\lib\libmruby.a(init.o)
 .mdebug.abi32  0xa0000a90        0x0 ..\mruby-1.0.0\build\PICrouter\lib\libmruby.a(numeric.o)
 .mdebug.abi32  0xa0000a90        0x0 ..\mruby-1.0.0\build\PICrouter\lib\libmruby.a(range.o)
 .mdebug.abi32  0xa0000a90        0x0 ..\mruby-1.0.0\build\PICrouter\lib\libmruby.a(mrblib.o)
 .mdebug.abi32  0xa0000a90        0x0 ..\mruby-1.0.0\build\PICrouter\lib\libmruby.a(compar.o)
 .mdebug.abi32  0xa0000a90        0x0 ..\mruby-1.0.0\build\PICrouter\lib\libmruby.a(enum.o)
 .mdebug.abi32  0xa0000a90        0x0 c:/program files (x86)/microchip/xc32/v1.22/bin/../lib/gcc/pic32mx/4.5.2/../../../../pic32mx/lib/mips16\libmchp_peripheral.a(read_core_timer_lib.o)
 .mdebug.abi32  0xa0000a90        0x0 c:/program files (x86)/microchip/xc32/v1.22/bin/../lib/gcc/pic32mx/4.5.2/../../../../pic32mx/lib/mips16\libmchp_peripheral_32MX795F512H.a(eth_ack_packet_lib.o)
 .mdebug.abi32  0xa0000a90        0x0 c:/program files (x86)/microchip/xc32/v1.22/bin/../lib/gcc/pic32mx/4.5.2/../../../../pic32mx/lib/mips16\libmchp_peripheral_32MX795F512H.a(eth_descriptors_add_lib.o)
 .mdebug.abi32  0xa0000a90        0x0 c:/program files (x86)/microchip/xc32/v1.22/bin/../lib/gcc/pic32mx/4.5.2/../../../../pic32mx/lib/mips16\libmchp_peripheral_32MX795F512H.a(eth_init_lib.o)
 .mdebug.abi32  0xa0000a90        0x0 c:/program files (x86)/microchip/xc32/v1.22/bin/../lib/gcc/pic32mx/4.5.2/../../../../pic32mx/lib/mips16\libmchp_peripheral_32MX795F512H.a(eth_mac_open_lib.o)
 .mdebug.abi32  0xa0000a90        0x0 c:/program files (x86)/microchip/xc32/v1.22/bin/../lib/gcc/pic32mx/4.5.2/../../../../pic32mx/lib/mips16\libmchp_peripheral_32MX795F512H.a(eth_mac_set_address_max_lib.o)
 .mdebug.abi32  0xa0000a90        0x0 c:/program files (x86)/microchip/xc32/v1.22/bin/../lib/gcc/pic32mx/4.5.2/../../../../pic32mx/lib/mips16\libmchp_peripheral_32MX795F512H.a(eth_rx_buffers_append_lib.o)
 .mdebug.abi32  0xa0000a90        0x0 c:/program files (x86)/microchip/xc32/v1.22/bin/../lib/gcc/pic32mx/4.5.2/../../../../pic32mx/lib/mips16\libmchp_peripheral_32MX795F512H.a(eth_rx_filters_lib.o)
 .mdebug.abi32  0xa0000a90        0x0 c:/program files (x86)/microchip/xc32/v1.22/bin/../lib/gcc/pic32mx/4.5.2/../../../../pic32mx/lib/mips16\libmchp_peripheral_32MX795F512H.a(eth_rx_get_packet_lib.o)
 .mdebug.abi32  0xa0000a90        0x0 c:/program files (x86)/microchip/xc32/v1.22/bin/../lib/gcc/pic32mx/4.5.2/../../../../pic32mx/lib/mips16\libmchp_peripheral_32MX795F512H.a(eth_rx_set_buffer_size_lib.o)
 .mdebug.abi32  0xa0000a90        0x0 c:/program files (x86)/microchip/xc32/v1.22/bin/../lib/gcc/pic32mx/4.5.2/../../../../pic32mx/lib/mips16\libmchp_peripheral_32MX795F512H.a(eth_tx_packet_lib.o)
 .mdebug.abi32  0xa0000a90        0x0 c:/program files (x86)/microchip/xc32/v1.22/bin/../lib/gcc/pic32mx/4.5.2/../../../../pic32mx/lib/mips16\libmchp_peripheral_32MX795F512H.a(_eth_append_busy_list_lib.o)
 .mdebug.abi32  0xa0000a90        0x0 c:/program files (x86)/microchip/xc32/v1.22/bin/../lib/gcc/pic32mx/4.5.2/../../../../pic32mx/lib/mips16\libmchp_peripheral_32MX795F512H.a(eth_miim_access.o)
 .mdebug.abi32  0xa0000a90        0x0 c:/program files (x86)/microchip/xc32/v1.22/bin/../lib/gcc/pic32mx/4.5.2/../../../../pic32mx/lib/mips16\libmchp_peripheral_32MX795F512H.a(soft_reset_lib.o)
 .mdebug.abi32  0xa0000a90        0x0 c:/program files (x86)/microchip/xc32/v1.22/bin/../lib/gcc/pic32mx/4.5.2/../../../../pic32mx/lib/mips16\libmchp_peripheral_32MX795F512H.a(pcache.o)
 .mdebug.abi32  0xa0000a90        0x0 c:/program files (x86)/microchip/xc32/v1.22/bin/../lib/gcc/pic32mx/4.5.2/../../../../pic32mx/lib/mips16\libmchp_peripheral_32MX795F512H.a(int_disable_interrupts_lib.o)
 .mdebug.abi32  0xa0000a90        0x0 c:/program files (x86)/microchip/xc32/v1.22/bin/../lib/gcc/pic32mx/4.5.2/../../../../pic32mx/lib/mips16\libmchp_peripheral_32MX795F512H.a(int_restore_interrupts_lib.o)
 .mdebug.abi32  0xa0000a90        0x0 c:/program files (x86)/microchip/xc32/v1.22/bin/../lib/gcc/pic32mx/4.5.2/../../../../pic32mx/lib/mips16\libmchp_peripheral_32MX795F512H.a(int_enable_mv_int_lib.o)
 .mdebug.abi32  0xa0000a90        0x0 c:/program files (x86)/microchip/xc32/v1.22/bin/../lib/gcc/pic32mx/4.5.2/../../../../pic32mx/lib/mips16\libmchp_peripheral_32MX795F512H.a(int_tbl_lib.o)
 .mdebug.abi32  0xa0000a90        0x0 c:/program files (x86)/microchip/xc32/v1.22/bin/../lib/gcc/pic32mx/4.5.2/../../../../pic32mx/lib/mips16\libmchp_peripheral_32MX795F512H.a(spi_chn_close_lib.o)
 .mdebug.abi32  0xa0000a90        0x0 c:/program files (x86)/microchip/xc32/v1.22/bin/../lib/gcc/pic32mx/4.5.2/../../../../pic32mx/lib/mips16\libmchp_peripheral_32MX795F512H.a(spi_chn_open_lib.o)
 .mdebug.abi32  0xa0000a90        0x0 c:/program files (x86)/microchip/xc32/v1.22/bin/../lib/gcc/pic32mx/4.5.2/../../../../pic32mx/lib/mips16\libmchp_peripheral_32MX795F512H.a(spi_io_tbl_libp.o)
 .mdebug.abi32  0xa0000a90        0x0 c:/program files (x86)/microchip/xc32/v1.22/bin/../lib/gcc/pic32mx/4.5.2/../../../../pic32mx/lib/mips16\libmchp_peripheral_32MX795F512H.a(spi_map_tbl_libp.o)
 .mdebug.abi32  0xa0000a90        0x0 c:/program files (x86)/microchip/xc32/v1.22/bin/../lib/gcc/pic32mx/4.5.2/../../../../pic32mx/lib/mips16\libmchp_peripheral_32MX795F512H.a(spi_getc_spi2_lib_legacy.o)
 .mdebug.abi32  0xa0000a90        0x0 c:/program files (x86)/microchip/xc32/v1.22/bin/../lib/gcc/pic32mx/4.5.2/../../../../pic32mx/lib/mips16\libmchp_peripheral_32MX795F512H.a(nvm_erase_page_lib.o)
 .mdebug.abi32  0xa0000a90        0x0 c:/program files (x86)/microchip/xc32/v1.22/bin/../lib/gcc/pic32mx/4.5.2/../../../../pic32mx/lib/mips16\libmchp_peripheral_32MX795F512H.a(nvm_operation_lib.o)
 .mdebug.abi32  0xa0000a90        0x0 c:/program files (x86)/microchip/xc32/v1.22/bin/../lib/gcc/pic32mx/4.5.2/../../../../pic32mx/lib/mips16\libmchp_peripheral_32MX795F512H.a(nvm_write_word_lib.o)
 .mdebug.abi32  0xa0000a90        0x0 c:/program files (x86)/microchip/xc32/v1.22/bin/../lib/gcc/pic32mx/4.5.2/../../../../pic32mx/lib/mips16\libmchp_peripheral_32MX795F512H.a(port_reset_pins_lib.o)
 .mdebug.abi32  0xa0000a90        0x0 c:/program files (x86)/microchip/xc32/v1.22/bin/../lib/gcc/pic32mx/4.5.2/../../../../pic32mx/lib/mips16\libmchp_peripheral_32MX795F512H.a(port_set_pins_digital_in_lib.o)
 .mdebug.abi32  0xa0000a90        0x0 c:/program files (x86)/microchip/xc32/v1.22/bin/../lib/gcc/pic32mx/4.5.2/../../../../pic32mx/lib/mips16\libmchp_peripheral_32MX795F512H.a(port_set_pins_digital_out_lib.o)
 .mdebug.abi32  0xa0000a90        0x0 c:/program files (x86)/microchip/xc32/v1.22/bin/../lib/gcc/pic32mx/4.5.2/../../../../pic32mx/lib/mips16\libmchp_peripheral_32MX795F512H.a(_ports_tbl_libp.o)
 .mdebug.abi32  0xa0000a90        0x0 c:/program files (x86)/microchip/xc32/v1.22/bin/../lib/gcc/pic32mx/4.5.2/../../../../pic32mx/lib/mips16\libmchp_peripheral_32MX795F512H.a(I2CConfigure.o)
 .mdebug.abi32  0xa0000a90        0x0 c:/program files (x86)/microchip/xc32/v1.22/bin/../lib/gcc/pic32mx/4.5.2/../../../../pic32mx/lib/mips16\libmchp_peripheral_32MX795F512H.a(I2CEnable.o)
 .mdebug.abi32  0xa0000a90        0x0 c:/program files (x86)/microchip/xc32/v1.22/bin/../lib/gcc/pic32mx/4.5.2/../../../../pic32mx/lib/mips16\libmchp_peripheral_32MX795F512H.a(I2CSetFrequency.o)
 .mdebug.abi32  0xa0000a90        0x0 c:/program files (x86)/microchip/xc32/v1.22/bin/../lib/gcc/pic32mx/4.5.2/../../../../pic32mx/lib/mips16\libmchp_peripheral_32MX795F512H.a(I2CSetSlaveAddress.o)
 .mdebug.abi32  0xa0000a90        0x0 c:/program files (x86)/microchip/xc32/v1.22/bin/../lib/gcc/pic32mx/4.5.2/../../../../pic32mx/lib/mips16\libmchp_peripheral_32MX795F512H.a(int_enable_interrupts_lib.o)
 .mdebug.abi32  0xa0000a90        0x0 c:/program files (x86)/microchip/xc32/v1.22/bin/../lib/gcc/pic32mx/4.5.2/../../../../pic32mx/lib/mips16\libmchp_peripheral_32MX795F512H.a(I2CPrivate.o)
 .mdebug.abi32  0xa0000a90        0x0 c:/program files (x86)/microchip/xc32/v1.22/bin/../lib/gcc/pic32mx/4.5.2/mips16\libgcc.a(_floatdisf.o)
 .mdebug.abi32  0xa0000a90        0x0 c:/program files (x86)/microchip/xc32/v1.22/bin/../lib/gcc/pic32mx/4.5.2/mips16\libgcc.a(_udivdi3.o)
 .mdebug.abi32  0xa0000a90        0x0 c:/program files (x86)/microchip/xc32/v1.22/bin/../lib/gcc/pic32mx/4.5.2/mips16\libgcc.a(_umoddi3.o)
 .mdebug.abi32  0xa0000a90        0x0 c:/program files (x86)/microchip/xc32/v1.22/bin/../lib/gcc/pic32mx/4.5.2/mips16\libgcc.a(_clz.o)
 .mdebug.abi32  0xa0000a90        0x0 c:/program files (x86)/microchip/xc32/v1.22/bin/../lib/gcc/pic32mx/4.5.2/../../../../pic32mx/lib/mips16\libpic32.a(default-bootstrap-exception-handler.o)
 .mdebug.abi32  0xa0000a90        0x0 c:/program files (x86)/microchip/xc32/v1.22/bin/../lib/gcc/pic32mx/4.5.2/../../../../pic32mx/lib/mips16\libpic32.a(default-on-reset.o)
 .mdebug.abi32  0xa0000a90        0x0 c:/program files (x86)/microchip/xc32/v1.22/bin/../lib/gcc/pic32mx/4.5.2/../../../../pic32mx/lib/mips16\libpic32.a(default-on-bootstrap.o)
 .mdebug.abi32  0xa0000a90        0x0 c:/program files (x86)/microchip/xc32/v1.22/bin/../lib/gcc/pic32mx/4.5.2/../../../../pic32mx/lib/mips16\libpic32.a(errno.o)
 .mdebug.abi32  0xa0000a90        0x0 c:/program files (x86)/microchip/xc32/v1.22/bin/../lib/gcc/pic32mx/4.5.2/../../../../pic32mx/lib/mips16\libm.a(w_powf.o)
 .mdebug.abi32  0xa0000a90        0x0 c:/program files (x86)/microchip/xc32/v1.22/bin/../lib/gcc/pic32mx/4.5.2/../../../../pic32mx/lib/mips16\libm.a(w_log10f.o)
 .mdebug.abi32  0xa0000a90        0x0 c:/program files (x86)/microchip/xc32/v1.22/bin/../lib/gcc/pic32mx/4.5.2/../../../../pic32mx/lib/mips16\libm.a(s_lib_ver.o)
 .mdebug.abi32  0xa0000a90        0x0 c:/program files (x86)/microchip/xc32/v1.22/bin/../lib/gcc/pic32mx/4.5.2/../../../../pic32mx/lib/mips16\libe.a(_unordsf2.o)
 .mdebug.abi32  0xa0000a90        0x0 c:/program files (x86)/microchip/xc32/v1.22/bin/../lib/gcc/pic32mx/4.5.2/../../../../pic32mx/lib/mips16\libpic32.a(isinf.o)
 .mdebug.abi32  0xa0000a90        0x0 c:/program files (x86)/microchip/xc32/v1.22/bin/../lib/gcc/pic32mx/4.5.2/../../../../pic32mx/lib/mips16\libc.a(_iob.o)
 .mdebug.abi32  0xa0000a90        0x0 c:/program files (x86)/microchip/xc32/v1.22/bin/../lib/gcc/pic32mx/4.5.2/../../../../pic32mx/lib/mips16\libc.a(_fputc_simple.o)
 .mdebug.abi32  0xa0000a90        0x0 c:/program files (x86)/microchip/xc32/v1.22/bin/../lib/gcc/pic32mx/4.5.2/../../../../pic32mx/lib/mips16\libc.a(fread.o)
 .mdebug.abi32  0xa0000a90        0x0 c:/program files (x86)/microchip/xc32/v1.22/bin/../lib/gcc/pic32mx/4.5.2/../../../../pic32mx/lib/mips16\libc.a(fseek.o)
 .mdebug.abi32  0xa0000a90        0x0 c:/program files (x86)/microchip/xc32/v1.22/bin/../lib/gcc/pic32mx/4.5.2/../../../../pic32mx/lib/mips16\libc.a(fwrite.o)
 .mdebug.abi32  0xa0000a90        0x0 c:/program files (x86)/microchip/xc32/v1.22/bin/../lib/gcc/pic32mx/4.5.2/../../../../pic32mx/lib/mips16\libc.a(atoi.o)
 .mdebug.abi32  0xa0000a90        0x0 c:/program files (x86)/microchip/xc32/v1.22/bin/../lib/gcc/pic32mx/4.5.2/../../../../pic32mx/lib/mips16\libc.a(calloc.o)
 .mdebug.abi32  0xa0000a90        0x0 c:/program files (x86)/microchip/xc32/v1.22/bin/../lib/gcc/pic32mx/4.5.2/../../../../pic32mx/lib/mips16\libc.a(ctype.o)
 .mdebug.abi32  0xa0000a90        0x0 c:/program files (x86)/microchip/xc32/v1.22/bin/../lib/gcc/pic32mx/4.5.2/../../../../pic32mx/lib/mips16\libc.a(ctypef.o)
 .mdebug.abi32  0xa0000a90        0x0 c:/program files (x86)/microchip/xc32/v1.22/bin/../lib/gcc/pic32mx/4.5.2/../../../../pic32mx/lib/mips16\libc.a(malloc.o)
 .mdebug.abi32  0xa0000a90        0x0 c:/program files (x86)/microchip/xc32/v1.22/bin/../lib/gcc/pic32mx/4.5.2/../../../../pic32mx/lib/mips16\libc.a(memchr.o)
 .mdebug.abi32  0xa0000a90        0x0 c:/program files (x86)/microchip/xc32/v1.22/bin/../lib/gcc/pic32mx/4.5.2/../../../../pic32mx/lib/mips16\libc.a(memcmp.o)
 .mdebug.abi32  0xa0000a90        0x0 c:/program files (x86)/microchip/xc32/v1.22/bin/../lib/gcc/pic32mx/4.5.2/../../../../pic32mx/lib/mips16\libc.a(memcpy.o)
 .mdebug.abi32  0xa0000a90        0x0 c:/program files (x86)/microchip/xc32/v1.22/bin/../lib/gcc/pic32mx/4.5.2/../../../../pic32mx/lib/mips16\libc.a(memmove.o)
 .mdebug.abi32  0xa0000a90        0x0 c:/program files (x86)/microchip/xc32/v1.22/bin/../lib/gcc/pic32mx/4.5.2/../../../../pic32mx/lib/mips16\libc.a(memset.o)
 .mdebug.abi32  0xa0000a90        0x0 c:/program files (x86)/microchip/xc32/v1.22/bin/../lib/gcc/pic32mx/4.5.2/../../../../pic32mx/lib/mips16\libc.a(signal.o)
 .mdebug.abi32  0xa0000a90        0x0 c:/program files (x86)/microchip/xc32/v1.22/bin/../lib/gcc/pic32mx/4.5.2/../../../../pic32mx/lib/mips16\libc.a(strchr.o)
 .mdebug.abi32  0xa0000a90        0x0 c:/program files (x86)/microchip/xc32/v1.22/bin/../lib/gcc/pic32mx/4.5.2/../../../../pic32mx/lib/mips16\libc.a(strcmp.o)
 .mdebug.abi32  0xa0000a90        0x0 c:/program files (x86)/microchip/xc32/v1.22/bin/../lib/gcc/pic32mx/4.5.2/../../../../pic32mx/lib/mips16\libc.a(strlen.o)
 .mdebug.abi32  0xa0000a90        0x0 c:/program files (x86)/microchip/xc32/v1.22/bin/../lib/gcc/pic32mx/4.5.2/../../../../pic32mx/lib/mips16\libc.a(strncpy.o)
 .mdebug.abi32  0xa0000a90        0x0 c:/program files (x86)/microchip/xc32/v1.22/bin/../lib/gcc/pic32mx/4.5.2/../../../../pic32mx/lib/mips16\libc.a(strtod.o)
 .mdebug.abi32  0xa0000a90        0x0 c:/program files (x86)/microchip/xc32/v1.22/bin/../lib/gcc/pic32mx/4.5.2/../../../../pic32mx/lib/mips16\libc.a(strstr.o)
 .mdebug.abi32  0xa0000a90        0x0 c:/program files (x86)/microchip/xc32/v1.22/bin/../lib/gcc/pic32mx/4.5.2/../../../../pic32mx/lib/mips16\libc.a(strtok.o)
 .mdebug.abi32  0xa0000a90        0x0 c:/program files (x86)/microchip/xc32/v1.22/bin/../lib/gcc/pic32mx/4.5.2/../../../../pic32mx/lib/mips16\libc.a(strtol.o)
 .mdebug.abi32  0xa0000a90        0x0 c:/program files (x86)/microchip/xc32/v1.22/bin/../lib/gcc/pic32mx/4.5.2/../../../../pic32mx/lib/mips16\libc.a(exit.o)
 .mdebug.abi32  0xa0000a90        0x0 c:/program files (x86)/microchip/xc32/v1.22/bin/../lib/gcc/pic32mx/4.5.2/../../../../pic32mx/lib/mips16\libc.a(doprnt.o)
 .mdebug.abi32  0xa0000a90        0x0 c:/program files (x86)/microchip/xc32/v1.22/bin/../lib/gcc/pic32mx/4.5.2/../../../../pic32mx/lib/mips16\libc.a(printf_cdnopuxX.eo)
 .mdebug.abi32  0xa0000a90        0x0 c:/program files (x86)/microchip/xc32/v1.22/bin/../lib/gcc/pic32mx/4.5.2/../../../../pic32mx/lib/mips16\libc.a(sprintf_cdnopsuxX.eo)
 .mdebug.abi32  0xa0000a90        0x0 c:/program files (x86)/microchip/xc32/v1.22/bin/../lib/gcc/pic32mx/4.5.2/../../../../pic32mx/lib/mips16\libc.a(vsnprintf.o)
 .mdebug.abi32  0xa0000a90        0x0 c:/program files (x86)/microchip/xc32/v1.22/bin/../lib/gcc/pic32mx/4.5.2/../../../../pic32mx/lib/mips16\libc.a(_flsbuf_simple.o)
 .mdebug.abi32  0xa0000a90        0x0 c:/program files (x86)/microchip/xc32/v1.22/bin/../lib/gcc/pic32mx/4.5.2/../../../../pic32mx/lib/mips16\libc.a(stdclean_simple.o)
 .mdebug.abi32  0xa0000a90        0x0 c:/program files (x86)/microchip/xc32/v1.22/bin/../lib/gcc/pic32mx/4.5.2/../../../../pic32mx/lib/mips16\libc.a(fflush.o)
 .mdebug.abi32  0xa0000a90        0x0 c:/program files (x86)/microchip/xc32/v1.22/bin/../lib/gcc/pic32mx/4.5.2/../../../../pic32mx/lib/mips16\libc.a(fgetc.o)
 .mdebug.abi32  0xa0000a90        0x0 c:/program files (x86)/microchip/xc32/v1.22/bin/../lib/gcc/pic32mx/4.5.2/../../../../pic32mx/lib/mips16\libc.a(powersf.o)
 .mdebug.abi32  0xa0000a90        0x0 c:/program files (x86)/microchip/xc32/v1.22/bin/../lib/gcc/pic32mx/4.5.2/../../../../pic32mx/lib/mips16\libc.a(strcspn.o)
 .mdebug.abi32  0xa0000a90        0x0 c:/program files (x86)/microchip/xc32/v1.22/bin/../lib/gcc/pic32mx/4.5.2/../../../../pic32mx/lib/mips16\libc.a(strncmp.o)
 .mdebug.abi32  0xa0000a90        0x0 c:/program files (x86)/microchip/xc32/v1.22/bin/../lib/gcc/pic32mx/4.5.2/../../../../pic32mx/lib/mips16\libc.a(strspn.o)
 .mdebug.abi32  0xa0000a90        0x0 c:/program files (x86)/microchip/xc32/v1.22/bin/../lib/gcc/pic32mx/4.5.2/../../../../pic32mx/lib/mips16\libc.a(doprnt_cdnopsuxX.eo)
 .mdebug.abi32  0xa0000a90        0x0 c:/program files (x86)/microchip/xc32/v1.22/bin/../lib/gcc/pic32mx/4.5.2/../../../../pic32mx/lib/mips16\libc.a(filbuf.o)
 .mdebug.abi32  0xa0000a90        0x0 c:/program files (x86)/microchip/xc32/v1.22/bin/../lib/gcc/pic32mx/4.5.2/../../../../pic32mx/lib/mips16\libpic32.a(sbrk.o)
 .mdebug.abi32  0xa0000a90        0x0 c:/program files (x86)/microchip/xc32/v1.22/bin/../lib/gcc/pic32mx/4.5.2/../../../../pic32mx/lib/mips16\libpic32.a(read.o)
 .mdebug.abi32  0xa0000a90        0x0 c:/program files (x86)/microchip/xc32/v1.22/bin/../lib/gcc/pic32mx/4.5.2/../../../../pic32mx/lib/mips16\libpic32.a(write.o)
 .mdebug.abi32  0xa0000a90        0x0 c:/program files (x86)/microchip/xc32/v1.22/bin/../lib/gcc/pic32mx/4.5.2/../../../../pic32mx/lib/mips16\libpic32.a(lseek.o)
 .mdebug.abi32  0xa0000a90        0x0 c:/program files (x86)/microchip/xc32/v1.22/bin/../lib/gcc/pic32mx/4.5.2/../../../../pic32mx/lib/mips16\libpic32.a(xc32_uart.o)
 .mdebug.abi32  0xa0000a90        0x0 c:/program files (x86)/microchip/xc32/v1.22/bin/../lib/gcc/pic32mx/4.5.2/../../../../pic32mx/lib/mips16\libpic32.a(_mon_putc.o)
 .mdebug.abi32  0xa0000a90        0x0 c:/program files (x86)/microchip/xc32/v1.22/bin/../lib/gcc/pic32mx/4.5.2/../../../../pic32mx/lib/mips16\libe.a(_unorddf2.o)
 .mdebug.abi32  0xa0000a90        0x0 c:/program files (x86)/microchip/xc32/v1.22/bin/../lib/gcc/pic32mx/4.5.2/../../../../pic32mx/lib/mips16\libe.a(_strtod.o)
 .mdebug.abi32  0xa0000a90        0x0 c:/program files (x86)/microchip/xc32/v1.22/bin/../lib/gcc/pic32mx/4.5.2/../../../../pic32mx/lib/mips16\libe.a(_ldexp.o)
 .mdebug.abi32  0xa0000a90        0x0 c:/program files (x86)/microchip/xc32/v1.22/bin/../lib/gcc/pic32mx/4.5.2/mips16\libgcc.a(_lshrdi3.o)
 .mdebug.abi32  0xa0000a90        0x0 c:/program files (x86)/microchip/xc32/v1.22/bin/../lib/gcc/pic32mx/4.5.2/mips16\libgcc.a(_floatundisf.o)
 .mdebug.abi32  0xa0000a90        0x0 c:/program files (x86)/microchip/xc32/v1.22/bin/../lib/gcc/pic32mx/4.5.2/mips16\libgcc.a(floatunsisf.o)

.mdebug.abiN32
 *(.mdebug.abiN32)

.mdebug.abi64
 *(.mdebug.abi64)

.mdebug.abiO64
 *(.mdebug.abiO64)

.mdebug.eabi32
 *(.mdebug.eabi32)

.mdebug.eabi64
 *(.mdebug.eabi64)

.gcc_compiled_long32
 *(.gcc_compiled_long32)

.gcc_compiled_long64
 *(.gcc_compiled_long64)

.stab
 *(.stab)

.stabstr
 *(.stabstr)

.stab.excl
 *(.stab.excl)

.stab.exclstr
 *(.stab.exclstr)

.stab.index
 *(.stab.index)

.stab.indexstr
 *(.stab.indexstr)

.comment        0x00000000      0x265
 *(.comment)
 .comment       0x00000000       0x3c build/default/production/_ext/454704213/analog.o
                                 0x3d (size before relaxing)
 .comment       0x00000000       0x3d build/default/production/_ext/454704213/iosetting.o
 .comment       0x00000000       0x3d build/default/production/_ext/454704213/TimeDelay.o
 .comment       0x00000000       0x3d build/default/production/_ext/454704213/usb_config.o
 .comment       0x00000000       0x3d build/default/production/_ext/454704213/usb_descriptors.o
 .comment       0x00000000       0x3d build/default/production/_ext/454704213/osc.o
 .comment       0x00000000       0x3d build/default/production/_ext/454704213/sram.o
 .comment       0x00000000       0x3d build/default/production/_ext/1340694758/ARP.o
 .comment       0x00000000       0x3d build/default/production/_ext/1340694758/DHCP.o
 .comment       0x00000000       0x3d build/default/production/_ext/1340694758/DHCPs.o
 .comment       0x00000000       0x3d build/default/production/_ext/1340694758/ETHPIC32ExtPhy.o
 .comment       0x00000000       0x3d build/default/production/_ext/1340694758/ETHPIC32ExtPhyDP83848.o
 .comment       0x00000000       0x3d build/default/production/_ext/1340694758/ETHPIC32IntMac.o
 .comment       0x00000000       0x3d build/default/production/_ext/1340694758/Helpers.o
 .comment       0x00000000       0x3d build/default/production/_ext/1340694758/ICMP.o
 .comment       0x00000000       0x3d build/default/production/_ext/1340694758/IP.o
 .comment       0x00000000       0x3d build/default/production/_ext/1340694758/NBNS.o
 .comment       0x00000000       0x3d build/default/production/_ext/1340694758/StackTsk.o
 .comment       0x00000000       0x3d build/default/production/_ext/1340694758/Tick.o
 .comment       0x00000000       0x3d build/default/production/_ext/1340694758/UDP.o
 .comment       0x00000000       0x3d build/default/production/_ext/1340694758/ZeroconfHelper.o
 .comment       0x00000000       0x3d build/default/production/_ext/1340694758/ZeroconfLinkLocal.o
 .comment       0x00000000       0x3d build/default/production/_ext/1340694758/ZeroconfMulticastDNS.o
 .comment       0x00000000       0x3d build/default/production/_ext/1798056102/usb_device.o
 .comment       0x00000000       0x3d build/default/production/_ext/1798056102/usb_function_hid.o
 .comment       0x00000000       0x3d build/default/production/_ext/1798056102/usb_host.o
 .comment       0x00000000       0x3d build/default/production/_ext/1798056102/usb_host_cdc.o
 .comment       0x00000000       0x3d build/default/production/_ext/1798056102/usb_host_cdc_interface.o
 .comment       0x00000000       0x3d build/default/production/_ext/1798056102/usb_host_hid.o
 .comment       0x00000000       0x3d build/default/production/_ext/1798056102/usb_host_hid_parser.o
 .comment       0x00000000       0x3d build/default/production/_ext/1798056102/usb_host_midi.o
 .comment       0x00000000       0x3d build/default/production/picrouter.o
 .comment       0x00000000       0x3d build/default/production/mrb_picrouter.o
 .comment       0x00000000       0x3d ..\mruby-1.0.0\build\PICrouter\lib\libmruby.a(class.o)
 .comment       0x00000000       0x3d ..\mruby-1.0.0\build\PICrouter\lib\libmruby.a(error.o)
 .comment       0x00000000       0x3d ..\mruby-1.0.0\build\PICrouter\lib\libmruby.a(gc.o)
 .comment       0x00000000       0x3d ..\mruby-1.0.0\build\PICrouter\lib\libmruby.a(hash.o)
 .comment       0x00000000       0x3d ..\mruby-1.0.0\build\PICrouter\lib\libmruby.a(kernel.o)
 .comment       0x00000000       0x3d ..\mruby-1.0.0\build\PICrouter\lib\libmruby.a(load.o)
 .comment       0x00000000       0x3d ..\mruby-1.0.0\build\PICrouter\lib\libmruby.a(object.o)
 .comment       0x00000000       0x3d ..\mruby-1.0.0\build\PICrouter\lib\libmruby.a(print.o)
 .comment       0x00000000       0x3d ..\mruby-1.0.0\build\PICrouter\lib\libmruby.a(proc.o)
 .comment       0x00000000       0x3d ..\mruby-1.0.0\build\PICrouter\lib\libmruby.a(state.o)
 .comment       0x00000000       0x3d ..\mruby-1.0.0\build\PICrouter\lib\libmruby.a(string.o)
 .comment       0x00000000       0x3d ..\mruby-1.0.0\build\PICrouter\lib\libmruby.a(symbol.o)
 .comment       0x00000000       0x3d ..\mruby-1.0.0\build\PICrouter\lib\libmruby.a(variable.o)
 .comment       0x00000000       0x3d ..\mruby-1.0.0\build\PICrouter\lib\libmruby.a(vm.o)
 .comment       0x00000000       0x3d ..\mruby-1.0.0\build\PICrouter\lib\libmruby.a(array.o)
 .comment       0x00000000       0x3d ..\mruby-1.0.0\build\PICrouter\lib\libmruby.a(backtrace.o)
 .comment       0x00000000       0x3d ..\mruby-1.0.0\build\PICrouter\lib\libmruby.a(crc.o)
 .comment       0x00000000       0x3d ..\mruby-1.0.0\build\PICrouter\lib\libmruby.a(debug.o)
 .comment       0x00000000       0x3d ..\mruby-1.0.0\build\PICrouter\lib\libmruby.a(etc.o)
 .comment       0x00000000       0x3d ..\mruby-1.0.0\build\PICrouter\lib\libmruby.a(init.o)
 .comment       0x00000000       0x3d ..\mruby-1.0.0\build\PICrouter\lib\libmruby.a(numeric.o)
 .comment       0x00000000       0x3d ..\mruby-1.0.0\build\PICrouter\lib\libmruby.a(range.o)
 .comment       0x00000000       0x3d ..\mruby-1.0.0\build\PICrouter\lib\libmruby.a(mrblib.o)
 .comment       0x00000000       0x3d ..\mruby-1.0.0\build\PICrouter\lib\libmruby.a(compar.o)
 .comment       0x00000000       0x3d ..\mruby-1.0.0\build\PICrouter\lib\libmruby.a(enum.o)
 .comment       0x0000003c       0x3c c:/program files (x86)/microchip/xc32/v1.22/bin/../lib/gcc/pic32mx/4.5.2/../../../../pic32mx/lib/mips16\libmchp_peripheral.a(read_core_timer_lib.o)
                                 0x3d (size before relaxing)
 .comment       0x00000000       0x3d c:/program files (x86)/microchip/xc32/v1.22/bin/../lib/gcc/pic32mx/4.5.2/../../../../pic32mx/lib/mips16\libmchp_peripheral_32MX795F512H.a(eth_ack_packet_lib.o)
 .comment       0x00000000       0x3d c:/program files (x86)/microchip/xc32/v1.22/bin/../lib/gcc/pic32mx/4.5.2/../../../../pic32mx/lib/mips16\libmchp_peripheral_32MX795F512H.a(eth_descriptors_add_lib.o)
 .comment       0x00000000       0x3d c:/program files (x86)/microchip/xc32/v1.22/bin/../lib/gcc/pic32mx/4.5.2/../../../../pic32mx/lib/mips16\libmchp_peripheral_32MX795F512H.a(eth_init_lib.o)
 .comment       0x00000000       0x3d c:/program files (x86)/microchip/xc32/v1.22/bin/../lib/gcc/pic32mx/4.5.2/../../../../pic32mx/lib/mips16\libmchp_peripheral_32MX795F512H.a(eth_mac_open_lib.o)
 .comment       0x00000000       0x3d c:/program files (x86)/microchip/xc32/v1.22/bin/../lib/gcc/pic32mx/4.5.2/../../../../pic32mx/lib/mips16\libmchp_peripheral_32MX795F512H.a(eth_mac_set_address_max_lib.o)
 .comment       0x00000000       0x3d c:/program files (x86)/microchip/xc32/v1.22/bin/../lib/gcc/pic32mx/4.5.2/../../../../pic32mx/lib/mips16\libmchp_peripheral_32MX795F512H.a(eth_rx_buffers_append_lib.o)
 .comment       0x00000000       0x3d c:/program files (x86)/microchip/xc32/v1.22/bin/../lib/gcc/pic32mx/4.5.2/../../../../pic32mx/lib/mips16\libmchp_peripheral_32MX795F512H.a(eth_rx_filters_lib.o)
 .comment       0x00000000       0x3d c:/program files (x86)/microchip/xc32/v1.22/bin/../lib/gcc/pic32mx/4.5.2/../../../../pic32mx/lib/mips16\libmchp_peripheral_32MX795F512H.a(eth_rx_get_packet_lib.o)
 .comment       0x00000000       0x3d c:/program files (x86)/microchip/xc32/v1.22/bin/../lib/gcc/pic32mx/4.5.2/../../../../pic32mx/lib/mips16\libmchp_peripheral_32MX795F512H.a(eth_rx_set_buffer_size_lib.o)
 .comment       0x00000000       0x3d c:/program files (x86)/microchip/xc32/v1.22/bin/../lib/gcc/pic32mx/4.5.2/../../../../pic32mx/lib/mips16\libmchp_peripheral_32MX795F512H.a(eth_tx_packet_lib.o)
 .comment       0x00000000       0x3d c:/program files (x86)/microchip/xc32/v1.22/bin/../lib/gcc/pic32mx/4.5.2/../../../../pic32mx/lib/mips16\libmchp_peripheral_32MX795F512H.a(_eth_append_busy_list_lib.o)
 .comment       0x00000000       0x3d c:/program files (x86)/microchip/xc32/v1.22/bin/../lib/gcc/pic32mx/4.5.2/../../../../pic32mx/lib/mips16\libmchp_peripheral_32MX795F512H.a(eth_miim_access.o)
 .comment       0x00000000       0x3d c:/program files (x86)/microchip/xc32/v1.22/bin/../lib/gcc/pic32mx/4.5.2/../../../../pic32mx/lib/mips16\libmchp_peripheral_32MX795F512H.a(soft_reset_lib.o)
 .comment       0x00000000       0x3d c:/program files (x86)/microchip/xc32/v1.22/bin/../lib/gcc/pic32mx/4.5.2/../../../../pic32mx/lib/mips16\libmchp_peripheral_32MX795F512H.a(pcache.o)
 .comment       0x00000000       0x3d c:/program files (x86)/microchip/xc32/v1.22/bin/../lib/gcc/pic32mx/4.5.2/../../../../pic32mx/lib/mips16\libmchp_peripheral_32MX795F512H.a(int_disable_interrupts_lib.o)
 .comment       0x00000000       0x3d c:/program files (x86)/microchip/xc32/v1.22/bin/../lib/gcc/pic32mx/4.5.2/../../../../pic32mx/lib/mips16\libmchp_peripheral_32MX795F512H.a(int_restore_interrupts_lib.o)
 .comment       0x00000000       0x3d c:/program files (x86)/microchip/xc32/v1.22/bin/../lib/gcc/pic32mx/4.5.2/../../../../pic32mx/lib/mips16\libmchp_peripheral_32MX795F512H.a(int_enable_mv_int_lib.o)
 .comment       0x00000000       0x3d c:/program files (x86)/microchip/xc32/v1.22/bin/../lib/gcc/pic32mx/4.5.2/../../../../pic32mx/lib/mips16\libmchp_peripheral_32MX795F512H.a(int_tbl_lib.o)
 .comment       0x00000000       0x3d c:/program files (x86)/microchip/xc32/v1.22/bin/../lib/gcc/pic32mx/4.5.2/../../../../pic32mx/lib/mips16\libmchp_peripheral_32MX795F512H.a(spi_chn_close_lib.o)
 .comment       0x00000000       0x3d c:/program files (x86)/microchip/xc32/v1.22/bin/../lib/gcc/pic32mx/4.5.2/../../../../pic32mx/lib/mips16\libmchp_peripheral_32MX795F512H.a(spi_chn_open_lib.o)
 .comment       0x00000000       0x3d c:/program files (x86)/microchip/xc32/v1.22/bin/../lib/gcc/pic32mx/4.5.2/../../../../pic32mx/lib/mips16\libmchp_peripheral_32MX795F512H.a(spi_io_tbl_libp.o)
 .comment       0x00000000       0x3d c:/program files (x86)/microchip/xc32/v1.22/bin/../lib/gcc/pic32mx/4.5.2/../../../../pic32mx/lib/mips16\libmchp_peripheral_32MX795F512H.a(spi_map_tbl_libp.o)
 .comment       0x00000000       0x3d c:/program files (x86)/microchip/xc32/v1.22/bin/../lib/gcc/pic32mx/4.5.2/../../../../pic32mx/lib/mips16\libmchp_peripheral_32MX795F512H.a(spi_getc_spi2_lib_legacy.o)
 .comment       0x00000000       0x3d c:/program files (x86)/microchip/xc32/v1.22/bin/../lib/gcc/pic32mx/4.5.2/../../../../pic32mx/lib/mips16\libmchp_peripheral_32MX795F512H.a(nvm_erase_page_lib.o)
 .comment       0x00000000       0x3d c:/program files (x86)/microchip/xc32/v1.22/bin/../lib/gcc/pic32mx/4.5.2/../../../../pic32mx/lib/mips16\libmchp_peripheral_32MX795F512H.a(nvm_operation_lib.o)
 .comment       0x00000000       0x3d c:/program files (x86)/microchip/xc32/v1.22/bin/../lib/gcc/pic32mx/4.5.2/../../../../pic32mx/lib/mips16\libmchp_peripheral_32MX795F512H.a(nvm_write_word_lib.o)
 .comment       0x00000000       0x3d c:/program files (x86)/microchip/xc32/v1.22/bin/../lib/gcc/pic32mx/4.5.2/../../../../pic32mx/lib/mips16\libmchp_peripheral_32MX795F512H.a(port_reset_pins_lib.o)
 .comment       0x00000000       0x3d c:/program files (x86)/microchip/xc32/v1.22/bin/../lib/gcc/pic32mx/4.5.2/../../../../pic32mx/lib/mips16\libmchp_peripheral_32MX795F512H.a(port_set_pins_digital_in_lib.o)
 .comment       0x00000000       0x3d c:/program files (x86)/microchip/xc32/v1.22/bin/../lib/gcc/pic32mx/4.5.2/../../../../pic32mx/lib/mips16\libmchp_peripheral_32MX795F512H.a(port_set_pins_digital_out_lib.o)
 .comment       0x00000000       0x3d c:/program files (x86)/microchip/xc32/v1.22/bin/../lib/gcc/pic32mx/4.5.2/../../../../pic32mx/lib/mips16\libmchp_peripheral_32MX795F512H.a(_ports_tbl_libp.o)
 .comment       0x00000000       0x3d c:/program files (x86)/microchip/xc32/v1.22/bin/../lib/gcc/pic32mx/4.5.2/../../../../pic32mx/lib/mips16\libmchp_peripheral_32MX795F512H.a(I2CConfigure.o)
 .comment       0x00000000       0x3d c:/program files (x86)/microchip/xc32/v1.22/bin/../lib/gcc/pic32mx/4.5.2/../../../../pic32mx/lib/mips16\libmchp_peripheral_32MX795F512H.a(I2CEnable.o)
 .comment       0x00000000       0x3d c:/program files (x86)/microchip/xc32/v1.22/bin/../lib/gcc/pic32mx/4.5.2/../../../../pic32mx/lib/mips16\libmchp_peripheral_32MX795F512H.a(I2CSetFrequency.o)
 .comment       0x00000000       0x3d c:/program files (x86)/microchip/xc32/v1.22/bin/../lib/gcc/pic32mx/4.5.2/../../../../pic32mx/lib/mips16\libmchp_peripheral_32MX795F512H.a(I2CSetSlaveAddress.o)
 .comment       0x00000000       0x3d c:/program files (x86)/microchip/xc32/v1.22/bin/../lib/gcc/pic32mx/4.5.2/../../../../pic32mx/lib/mips16\libmchp_peripheral_32MX795F512H.a(int_enable_interrupts_lib.o)
 .comment       0x00000000       0x3d c:/program files (x86)/microchip/xc32/v1.22/bin/../lib/gcc/pic32mx/4.5.2/../../../../pic32mx/lib/mips16\libmchp_peripheral_32MX795F512H.a(I2CPrivate.o)
 .comment       0x00000000       0x3d c:/program files (x86)/microchip/xc32/v1.22/bin/../lib/gcc/pic32mx/4.5.2/mips16\libgcc.a(_floatdisf.o)
 .comment       0x00000000       0x3d c:/program files (x86)/microchip/xc32/v1.22/bin/../lib/gcc/pic32mx/4.5.2/mips16\libgcc.a(_udivdi3.o)
 .comment       0x00000000       0x3d c:/program files (x86)/microchip/xc32/v1.22/bin/../lib/gcc/pic32mx/4.5.2/mips16\libgcc.a(_umoddi3.o)
 .comment       0x00000000       0x3d c:/program files (x86)/microchip/xc32/v1.22/bin/../lib/gcc/pic32mx/4.5.2/mips16\libgcc.a(_clz.o)
 .comment       0x00000078       0x18 c:/program files (x86)/microchip/xc32/v1.22/bin/../lib/gcc/pic32mx/4.5.2/../../../../pic32mx/lib/mips16\libpic32.a(setjmp.o)
                                 0x19 (size before relaxing)
 .comment       0x00000000       0x3d c:/program files (x86)/microchip/xc32/v1.22/bin/../lib/gcc/pic32mx/4.5.2/../../../../pic32mx/lib/mips16\libpic32.a(default-bootstrap-exception-handler.o)
 .comment       0x00000000       0x3d c:/program files (x86)/microchip/xc32/v1.22/bin/../lib/gcc/pic32mx/4.5.2/../../../../pic32mx/lib/mips16\libpic32.a(default-on-reset.o)
 .comment       0x00000000       0x3d c:/program files (x86)/microchip/xc32/v1.22/bin/../lib/gcc/pic32mx/4.5.2/../../../../pic32mx/lib/mips16\libpic32.a(default-on-bootstrap.o)
 .comment       0x00000000       0x3d c:/program files (x86)/microchip/xc32/v1.22/bin/../lib/gcc/pic32mx/4.5.2/../../../../pic32mx/lib/mips16\libpic32.a(errno.o)
 .comment       0x00000000       0x3d c:/program files (x86)/microchip/xc32/v1.22/bin/../lib/gcc/pic32mx/4.5.2/../../../../pic32mx/lib/mips16\libm.a(w_powf.o)
 .comment       0x00000000       0x3d c:/program files (x86)/microchip/xc32/v1.22/bin/../lib/gcc/pic32mx/4.5.2/../../../../pic32mx/lib/mips16\libm.a(w_log10f.o)
 .comment       0x00000000       0x3d c:/program files (x86)/microchip/xc32/v1.22/bin/../lib/gcc/pic32mx/4.5.2/../../../../pic32mx/lib/mips16\libm.a(s_lib_ver.o)
 .comment       0x00000090       0x4e c:/program files (x86)/microchip/xc32/v1.22/bin/../lib/gcc/pic32mx/4.5.2/../../../../pic32mx/lib/mips16\libe.a(_unordsf2.o)
                                 0x8b (size before relaxing)
 .comment       0x00000000       0x3d c:/program files (x86)/microchip/xc32/v1.22/bin/../lib/gcc/pic32mx/4.5.2/../../../../pic32mx/lib/mips16\libpic32.a(isinf.o)
 .comment       0x00000000       0x3d c:/program files (x86)/microchip/xc32/v1.22/bin/../lib/gcc/pic32mx/4.5.2/../../../../pic32mx/lib/mips16\libc.a(_iob.o)
 .comment       0x00000000       0x3d c:/program files (x86)/microchip/xc32/v1.22/bin/../lib/gcc/pic32mx/4.5.2/../../../../pic32mx/lib/mips16\libc.a(_fputc_simple.o)
 .comment       0x00000000       0x3d c:/program files (x86)/microchip/xc32/v1.22/bin/../lib/gcc/pic32mx/4.5.2/../../../../pic32mx/lib/mips16\libc.a(fread.o)
 .comment       0x00000000       0x3d c:/program files (x86)/microchip/xc32/v1.22/bin/../lib/gcc/pic32mx/4.5.2/../../../../pic32mx/lib/mips16\libc.a(fseek.o)
 .comment       0x00000000       0x3d c:/program files (x86)/microchip/xc32/v1.22/bin/../lib/gcc/pic32mx/4.5.2/../../../../pic32mx/lib/mips16\libc.a(fwrite.o)
 .comment       0x00000000       0x3d c:/program files (x86)/microchip/xc32/v1.22/bin/../lib/gcc/pic32mx/4.5.2/../../../../pic32mx/lib/mips16\libc.a(atoi.o)
 .comment       0x00000000       0x3d c:/program files (x86)/microchip/xc32/v1.22/bin/../lib/gcc/pic32mx/4.5.2/../../../../pic32mx/lib/mips16\libc.a(calloc.o)
 .comment       0x000000de       0x4e c:/program files (x86)/microchip/xc32/v1.22/bin/../lib/gcc/pic32mx/4.5.2/../../../../pic32mx/lib/mips16\libc.a(ctype.o)
                                 0x8b (size before relaxing)
 .comment       0x0000012c       0x4f c:/program files (x86)/microchip/xc32/v1.22/bin/../lib/gcc/pic32mx/4.5.2/../../../../pic32mx/lib/mips16\libc.a(ctypef.o)
                                 0x8c (size before relaxing)
 .comment       0x00000000       0x3d c:/program files (x86)/microchip/xc32/v1.22/bin/../lib/gcc/pic32mx/4.5.2/../../../../pic32mx/lib/mips16\libc.a(malloc.o)
 .comment       0x00000000       0x3d c:/program files (x86)/microchip/xc32/v1.22/bin/../lib/gcc/pic32mx/4.5.2/../../../../pic32mx/lib/mips16\libc.a(memchr.o)
 .comment       0x00000000       0x3d c:/program files (x86)/microchip/xc32/v1.22/bin/../lib/gcc/pic32mx/4.5.2/../../../../pic32mx/lib/mips16\libc.a(memcmp.o)
 .comment       0x00000000       0x3d c:/program files (x86)/microchip/xc32/v1.22/bin/../lib/gcc/pic32mx/4.5.2/../../../../pic32mx/lib/mips16\libc.a(memcpy.o)
 .comment       0x00000000       0x3d c:/program files (x86)/microchip/xc32/v1.22/bin/../lib/gcc/pic32mx/4.5.2/../../../../pic32mx/lib/mips16\libc.a(memmove.o)
 .comment       0x00000000       0x3d c:/program files (x86)/microchip/xc32/v1.22/bin/../lib/gcc/pic32mx/4.5.2/../../../../pic32mx/lib/mips16\libc.a(memset.o)
 .comment       0x00000000       0x3d c:/program files (x86)/microchip/xc32/v1.22/bin/../lib/gcc/pic32mx/4.5.2/../../../../pic32mx/lib/mips16\libc.a(signal.o)
 .comment       0x00000000       0x3d c:/program files (x86)/microchip/xc32/v1.22/bin/../lib/gcc/pic32mx/4.5.2/../../../../pic32mx/lib/mips16\libc.a(strchr.o)
 .comment       0x00000000       0x3d c:/program files (x86)/microchip/xc32/v1.22/bin/../lib/gcc/pic32mx/4.5.2/../../../../pic32mx/lib/mips16\libc.a(strcmp.o)
 .comment       0x00000000       0x3d c:/program files (x86)/microchip/xc32/v1.22/bin/../lib/gcc/pic32mx/4.5.2/../../../../pic32mx/lib/mips16\libc.a(strlen.o)
 .comment       0x00000000       0x3d c:/program files (x86)/microchip/xc32/v1.22/bin/../lib/gcc/pic32mx/4.5.2/../../../../pic32mx/lib/mips16\libc.a(strncpy.o)
 .comment       0x00000000       0x3d c:/program files (x86)/microchip/xc32/v1.22/bin/../lib/gcc/pic32mx/4.5.2/../../../../pic32mx/lib/mips16\libc.a(strtod.o)
 .comment       0x00000000       0x3d c:/program files (x86)/microchip/xc32/v1.22/bin/../lib/gcc/pic32mx/4.5.2/../../../../pic32mx/lib/mips16\libc.a(strstr.o)
 .comment       0x00000000       0x3d c:/program files (x86)/microchip/xc32/v1.22/bin/../lib/gcc/pic32mx/4.5.2/../../../../pic32mx/lib/mips16\libc.a(strtok.o)
 .comment       0x00000000       0x3d c:/program files (x86)/microchip/xc32/v1.22/bin/../lib/gcc/pic32mx/4.5.2/../../../../pic32mx/lib/mips16\libc.a(strtol.o)
 .comment       0x00000000       0x3d c:/program files (x86)/microchip/xc32/v1.22/bin/../lib/gcc/pic32mx/4.5.2/../../../../pic32mx/lib/mips16\libc.a(exit.o)
 .comment       0x00000000       0x3d c:/program files (x86)/microchip/xc32/v1.22/bin/../lib/gcc/pic32mx/4.5.2/../../../../pic32mx/lib/mips16\libc.a(doprnt.o)
 .comment       0x00000000       0x3d c:/program files (x86)/microchip/xc32/v1.22/bin/../lib/gcc/pic32mx/4.5.2/../../../../pic32mx/lib/mips16\libc.a(printf_cdnopuxX.eo)
 .comment       0x00000000       0x3d c:/program files (x86)/microchip/xc32/v1.22/bin/../lib/gcc/pic32mx/4.5.2/../../../../pic32mx/lib/mips16\libc.a(sprintf_cdnopsuxX.eo)
 .comment       0x00000000       0x3d c:/program files (x86)/microchip/xc32/v1.22/bin/../lib/gcc/pic32mx/4.5.2/../../../../pic32mx/lib/mips16\libc.a(vsnprintf.o)
 .comment       0x00000000       0x3d c:/program files (x86)/microchip/xc32/v1.22/bin/../lib/gcc/pic32mx/4.5.2/../../../../pic32mx/lib/mips16\libc.a(_flsbuf_simple.o)
 .comment       0x00000000       0x3d c:/program files (x86)/microchip/xc32/v1.22/bin/../lib/gcc/pic32mx/4.5.2/../../../../pic32mx/lib/mips16\libc.a(stdclean_simple.o)
 .comment       0x00000000       0x3d c:/program files (x86)/microchip/xc32/v1.22/bin/../lib/gcc/pic32mx/4.5.2/../../../../pic32mx/lib/mips16\libc.a(fflush.o)
 .comment       0x00000000       0x3d c:/program files (x86)/microchip/xc32/v1.22/bin/../lib/gcc/pic32mx/4.5.2/../../../../pic32mx/lib/mips16\libc.a(fgetc.o)
 .comment       0x00000000       0x3d c:/program files (x86)/microchip/xc32/v1.22/bin/../lib/gcc/pic32mx/4.5.2/../../../../pic32mx/lib/mips16\libc.a(powersf.o)
 .comment       0x00000000       0x3d c:/program files (x86)/microchip/xc32/v1.22/bin/../lib/gcc/pic32mx/4.5.2/../../../../pic32mx/lib/mips16\libc.a(strcspn.o)
 .comment       0x00000000       0x3d c:/program files (x86)/microchip/xc32/v1.22/bin/../lib/gcc/pic32mx/4.5.2/../../../../pic32mx/lib/mips16\libc.a(strncmp.o)
 .comment       0x00000000       0x3d c:/program files (x86)/microchip/xc32/v1.22/bin/../lib/gcc/pic32mx/4.5.2/../../../../pic32mx/lib/mips16\libc.a(strspn.o)
 .comment       0x00000000       0x3d c:/program files (x86)/microchip/xc32/v1.22/bin/../lib/gcc/pic32mx/4.5.2/../../../../pic32mx/lib/mips16\libc.a(doprnt_cdnopsuxX.eo)
 .comment       0x00000000       0x3d c:/program files (x86)/microchip/xc32/v1.22/bin/../lib/gcc/pic32mx/4.5.2/../../../../pic32mx/lib/mips16\libc.a(filbuf.o)
 .comment       0x0000017b       0x4b c:/program files (x86)/microchip/xc32/v1.22/bin/../lib/gcc/pic32mx/4.5.2/../../../../pic32mx/lib/mips16\libpic32.a(sbrk.o)
                                 0x88 (size before relaxing)
 .comment       0x00000000       0x3d c:/program files (x86)/microchip/xc32/v1.22/bin/../lib/gcc/pic32mx/4.5.2/../../../../pic32mx/lib/mips16\libpic32.a(read.o)
 .comment       0x00000000       0x3d c:/program files (x86)/microchip/xc32/v1.22/bin/../lib/gcc/pic32mx/4.5.2/../../../../pic32mx/lib/mips16\libpic32.a(write.o)
 .comment       0x00000000       0x3d c:/program files (x86)/microchip/xc32/v1.22/bin/../lib/gcc/pic32mx/4.5.2/../../../../pic32mx/lib/mips16\libpic32.a(lseek.o)
 .comment       0x00000000       0x3d c:/program files (x86)/microchip/xc32/v1.22/bin/../lib/gcc/pic32mx/4.5.2/../../../../pic32mx/lib/mips16\libpic32.a(xc32_uart.o)
 .comment       0x00000000       0x3d c:/program files (x86)/microchip/xc32/v1.22/bin/../lib/gcc/pic32mx/4.5.2/../../../../pic32mx/lib/mips16\libpic32.a(_mon_putc.o)
 .comment       0x00000000       0x8b c:/program files (x86)/microchip/xc32/v1.22/bin/../lib/gcc/pic32mx/4.5.2/../../../../pic32mx/lib/mips16\libe.a(_unorddf2.o)
 .comment       0x000001c6       0x4f c:/program files (x86)/microchip/xc32/v1.22/bin/../lib/gcc/pic32mx/4.5.2/../../../../pic32mx/lib/mips16\libe.a(_strtod.o)
                                 0xda (size before relaxing)
 .comment       0x00000215       0x50 c:/program files (x86)/microchip/xc32/v1.22/bin/../lib/gcc/pic32mx/4.5.2/../../../../pic32mx/lib/mips16\libe.a(_ldexp.o)
                                 0xdb (size before relaxing)
 .comment       0x00000000       0x3d c:/program files (x86)/microchip/xc32/v1.22/bin/../lib/gcc/pic32mx/4.5.2/mips16\libgcc.a(_lshrdi3.o)
 .comment       0x00000000       0x3d c:/program files (x86)/microchip/xc32/v1.22/bin/../lib/gcc/pic32mx/4.5.2/mips16\libgcc.a(_floatundisf.o)
 .comment       0x00000000       0x3d c:/program files (x86)/microchip/xc32/v1.22/bin/../lib/gcc/pic32mx/4.5.2/mips16\libgcc.a(floatunsisf.o)

.debug
 *(.debug)

.line
 *(.line)

.debug_srcinfo
 *(.debug_srcinfo)

.debug_sfnames
 *(.debug_sfnames)

.debug_aranges  0x00000000     0x39f8
 *(.debug_aranges)
 .debug_aranges
                0x00000000       0x90 build/default/production/_ext/454704213/analog.o
 .debug_aranges
                0x00000090      0x130 build/default/production/_ext/454704213/iosetting.o
 .debug_aranges
                0x000001c0       0x28 build/default/production/_ext/454704213/TimeDelay.o
 .debug_aranges
                0x000001e8      0x1f0 build/default/production/_ext/454704213/osc.o
 .debug_aranges
                0x000003d8       0x48 build/default/production/_ext/454704213/sram.o
 .debug_aranges
                0x00000420       0x68 build/default/production/_ext/1340694758/ARP.o
 .debug_aranges
                0x00000488       0x70 build/default/production/_ext/1340694758/DHCP.o
 .debug_aranges
                0x000004f8       0x88 build/default/production/_ext/1340694758/DHCPs.o
 .debug_aranges
                0x00000580       0x78 build/default/production/_ext/1340694758/ETHPIC32ExtPhy.o
 .debug_aranges
                0x000005f8       0x38 build/default/production/_ext/1340694758/ETHPIC32ExtPhyDP83848.o
 .debug_aranges
                0x00000630       0xe8 build/default/production/_ext/1340694758/ETHPIC32IntMac.o
 .debug_aranges
                0x00000718       0x98 build/default/production/_ext/1340694758/Helpers.o
 .debug_aranges
                0x000007b0       0x20 build/default/production/_ext/1340694758/ICMP.o
 .debug_aranges
                0x000007d0       0x38 build/default/production/_ext/1340694758/IP.o
 .debug_aranges
                0x00000808       0x30 build/default/production/_ext/1340694758/StackTsk.o
 .debug_aranges
                0x00000838       0x50 build/default/production/_ext/1340694758/Tick.o
 .debug_aranges
                0x00000888       0xa8 build/default/production/_ext/1340694758/UDP.o
 .debug_aranges
                0x00000930       0x20 build/default/production/_ext/1340694758/ZeroconfHelper.o
 .debug_aranges
                0x00000950       0x50 build/default/production/_ext/1340694758/ZeroconfLinkLocal.o
 .debug_aranges
                0x000009a0       0xe0 build/default/production/_ext/1340694758/ZeroconfMulticastDNS.o
 .debug_aranges
                0x00000a80       0xd8 build/default/production/_ext/1798056102/usb_device.o
 .debug_aranges
                0x00000b58       0x20 build/default/production/_ext/1798056102/usb_function_hid.o
 .debug_aranges
                0x00000b78      0x140 build/default/production/_ext/1798056102/usb_host.o
 .debug_aranges
                0x00000cb8       0x68 build/default/production/_ext/1798056102/usb_host_cdc.o
 .debug_aranges
                0x00000d20       0x40 build/default/production/_ext/1798056102/usb_host_cdc_interface.o
 .debug_aranges
                0x00000d60       0x98 build/default/production/_ext/1798056102/usb_host_hid.o
 .debug_aranges
                0x00000df8       0x50 build/default/production/_ext/1798056102/usb_host_hid_parser.o
 .debug_aranges
                0x00000e48       0x38 build/default/production/_ext/1798056102/usb_host_midi.o
 .debug_aranges
                0x00000e80      0x1d0 build/default/production/picrouter.o
 .debug_aranges
                0x00001050      0x388 ..\mruby-1.0.0\build\PICrouter\lib\libmruby.a(class.o)
 .debug_aranges
                0x000013d8      0x100 ..\mruby-1.0.0\build\PICrouter\lib\libmruby.a(error.o)
 .debug_aranges
                0x000014d8      0x1d0 ..\mruby-1.0.0\build\PICrouter\lib\libmruby.a(gc.o)
 .debug_aranges
                0x000016a8      0x208 ..\mruby-1.0.0\build\PICrouter\lib\libmruby.a(hash.o)
 .debug_aranges
                0x000018b0      0x200 ..\mruby-1.0.0\build\PICrouter\lib\libmruby.a(kernel.o)
 .debug_aranges
                0x00001ab0       0xf0 ..\mruby-1.0.0\build\PICrouter\lib\libmruby.a(load.o)
 .debug_aranges
                0x00001ba0      0x148 ..\mruby-1.0.0\build\PICrouter\lib\libmruby.a(object.o)
 .debug_aranges
                0x00001ce8       0x48 ..\mruby-1.0.0\build\PICrouter\lib\libmruby.a(print.o)
 .debug_aranges
                0x00001d30       0x98 ..\mruby-1.0.0\build\PICrouter\lib\libmruby.a(proc.o)
 .debug_aranges
                0x00001dc8       0x90 ..\mruby-1.0.0\build\PICrouter\lib\libmruby.a(state.o)
 .debug_aranges
                0x00001e58      0x2f0 ..\mruby-1.0.0\build\PICrouter\lib\libmruby.a(string.o)
 .debug_aranges
                0x00002148      0x148 ..\mruby-1.0.0\build\PICrouter\lib\libmruby.a(symbol.o)
 .debug_aranges
                0x00002290      0x250 ..\mruby-1.0.0\build\PICrouter\lib\libmruby.a(variable.o)
 .debug_aranges
                0x000024e0      0x108 ..\mruby-1.0.0\build\PICrouter\lib\libmruby.a(vm.o)
 .debug_aranges
                0x000025e8      0x228 ..\mruby-1.0.0\build\PICrouter\lib\libmruby.a(array.o)
 .debug_aranges
                0x00002810       0x48 ..\mruby-1.0.0\build\PICrouter\lib\libmruby.a(backtrace.o)
 .debug_aranges
                0x00002858       0x20 ..\mruby-1.0.0\build\PICrouter\lib\libmruby.a(crc.o)
 .debug_aranges
                0x00002878       0x50 ..\mruby-1.0.0\build\PICrouter\lib\libmruby.a(debug.o)
 .debug_aranges
                0x000028c8       0x80 ..\mruby-1.0.0\build\PICrouter\lib\libmruby.a(etc.o)
 .debug_aranges
                0x00002948       0x28 ..\mruby-1.0.0\build\PICrouter\lib\libmruby.a(init.o)
 .debug_aranges
                0x00002970      0x1d0 ..\mruby-1.0.0\build\PICrouter\lib\libmruby.a(numeric.o)
 .debug_aranges
                0x00002b40       0xd0 ..\mruby-1.0.0\build\PICrouter\lib\libmruby.a(range.o)
 .debug_aranges
                0x00002c10       0x20 ..\mruby-1.0.0\build\PICrouter\lib\libmruby.a(mrblib.o)
 .debug_aranges
                0x00002c30       0x20 ..\mruby-1.0.0\build\PICrouter\lib\libmruby.a(compar.o)
 .debug_aranges
                0x00002c50       0x20 ..\mruby-1.0.0\build\PICrouter\lib\libmruby.a(enum.o)
 .debug_aranges
                0x00002c70       0x20 c:/program files (x86)/microchip/xc32/v1.22/bin/../lib/gcc/pic32mx/4.5.2/../../../../pic32mx/lib/mips16\libmchp_peripheral.a(read_core_timer_lib.o)
 .debug_aranges
                0x00002c90       0x48 c:/program files (x86)/microchip/xc32/v1.22/bin/../lib/gcc/pic32mx/4.5.2/../../../../pic32mx/lib/mips16\libmchp_peripheral_32MX795F512H.a(eth_ack_packet_lib.o)
 .debug_aranges
                0x00002cd8       0x28 c:/program files (x86)/microchip/xc32/v1.22/bin/../lib/gcc/pic32mx/4.5.2/../../../../pic32mx/lib/mips16\libmchp_peripheral_32MX795F512H.a(eth_descriptors_add_lib.o)
 .debug_aranges
                0x00002d00       0x20 c:/program files (x86)/microchip/xc32/v1.22/bin/../lib/gcc/pic32mx/4.5.2/../../../../pic32mx/lib/mips16\libmchp_peripheral_32MX795F512H.a(eth_init_lib.o)
 .debug_aranges
                0x00002d20       0x20 c:/program files (x86)/microchip/xc32/v1.22/bin/../lib/gcc/pic32mx/4.5.2/../../../../pic32mx/lib/mips16\libmchp_peripheral_32MX795F512H.a(eth_mac_open_lib.o)
 .debug_aranges
                0x00002d40       0x30 c:/program files (x86)/microchip/xc32/v1.22/bin/../lib/gcc/pic32mx/4.5.2/../../../../pic32mx/lib/mips16\libmchp_peripheral_32MX795F512H.a(eth_mac_set_address_max_lib.o)
 .debug_aranges
                0x00002d70       0x20 c:/program files (x86)/microchip/xc32/v1.22/bin/../lib/gcc/pic32mx/4.5.2/../../../../pic32mx/lib/mips16\libmchp_peripheral_32MX795F512H.a(eth_rx_buffers_append_lib.o)
 .debug_aranges
                0x00002d90       0x48 c:/program files (x86)/microchip/xc32/v1.22/bin/../lib/gcc/pic32mx/4.5.2/../../../../pic32mx/lib/mips16\libmchp_peripheral_32MX795F512H.a(eth_rx_filters_lib.o)
 .debug_aranges
                0x00002dd8       0x28 c:/program files (x86)/microchip/xc32/v1.22/bin/../lib/gcc/pic32mx/4.5.2/../../../../pic32mx/lib/mips16\libmchp_peripheral_32MX795F512H.a(eth_rx_get_packet_lib.o)
 .debug_aranges
                0x00002e00       0x20 c:/program files (x86)/microchip/xc32/v1.22/bin/../lib/gcc/pic32mx/4.5.2/../../../../pic32mx/lib/mips16\libmchp_peripheral_32MX795F512H.a(eth_rx_set_buffer_size_lib.o)
 .debug_aranges
                0x00002e20       0x48 c:/program files (x86)/microchip/xc32/v1.22/bin/../lib/gcc/pic32mx/4.5.2/../../../../pic32mx/lib/mips16\libmchp_peripheral_32MX795F512H.a(eth_tx_packet_lib.o)
 .debug_aranges
                0x00002e68       0x20 c:/program files (x86)/microchip/xc32/v1.22/bin/../lib/gcc/pic32mx/4.5.2/../../../../pic32mx/lib/mips16\libmchp_peripheral_32MX795F512H.a(_eth_append_busy_list_lib.o)
 .debug_aranges
                0x00002e88       0x48 c:/program files (x86)/microchip/xc32/v1.22/bin/../lib/gcc/pic32mx/4.5.2/../../../../pic32mx/lib/mips16\libmchp_peripheral_32MX795F512H.a(eth_miim_access.o)
 .debug_aranges
                0x00002ed0       0x20 c:/program files (x86)/microchip/xc32/v1.22/bin/../lib/gcc/pic32mx/4.5.2/../../../../pic32mx/lib/mips16\libmchp_peripheral_32MX795F512H.a(soft_reset_lib.o)
 .debug_aranges
                0x00002ef0       0x28 c:/program files (x86)/microchip/xc32/v1.22/bin/../lib/gcc/pic32mx/4.5.2/../../../../pic32mx/lib/mips16\libmchp_peripheral_32MX795F512H.a(pcache.o)
 .debug_aranges
                0x00002f18       0x20 c:/program files (x86)/microchip/xc32/v1.22/bin/../lib/gcc/pic32mx/4.5.2/../../../../pic32mx/lib/mips16\libmchp_peripheral_32MX795F512H.a(int_disable_interrupts_lib.o)
 .debug_aranges
                0x00002f38       0x20 c:/program files (x86)/microchip/xc32/v1.22/bin/../lib/gcc/pic32mx/4.5.2/../../../../pic32mx/lib/mips16\libmchp_peripheral_32MX795F512H.a(int_restore_interrupts_lib.o)
 .debug_aranges
                0x00002f58       0x20 c:/program files (x86)/microchip/xc32/v1.22/bin/../lib/gcc/pic32mx/4.5.2/../../../../pic32mx/lib/mips16\libmchp_peripheral_32MX795F512H.a(int_enable_mv_int_lib.o)
 .debug_aranges
                0x00002f78       0x60 c:/program files (x86)/microchip/xc32/v1.22/bin/../lib/gcc/pic32mx/4.5.2/../../../../pic32mx/lib/mips16\libmchp_peripheral_32MX795F512H.a(int_tbl_lib.o)
 .debug_aranges
                0x00002fd8       0x20 c:/program files (x86)/microchip/xc32/v1.22/bin/../lib/gcc/pic32mx/4.5.2/../../../../pic32mx/lib/mips16\libmchp_peripheral_32MX795F512H.a(spi_chn_close_lib.o)
 .debug_aranges
                0x00002ff8       0x20 c:/program files (x86)/microchip/xc32/v1.22/bin/../lib/gcc/pic32mx/4.5.2/../../../../pic32mx/lib/mips16\libmchp_peripheral_32MX795F512H.a(spi_chn_open_lib.o)
 .debug_aranges
                0x00003018       0x20 c:/program files (x86)/microchip/xc32/v1.22/bin/../lib/gcc/pic32mx/4.5.2/../../../../pic32mx/lib/mips16\libmchp_peripheral_32MX795F512H.a(spi_getc_spi2_lib_legacy.o)
 .debug_aranges
                0x00003038       0x20 c:/program files (x86)/microchip/xc32/v1.22/bin/../lib/gcc/pic32mx/4.5.2/../../../../pic32mx/lib/mips16\libmchp_peripheral_32MX795F512H.a(nvm_erase_page_lib.o)
 .debug_aranges
                0x00003058       0x20 c:/program files (x86)/microchip/xc32/v1.22/bin/../lib/gcc/pic32mx/4.5.2/../../../../pic32mx/lib/mips16\libmchp_peripheral_32MX795F512H.a(nvm_operation_lib.o)
 .debug_aranges
                0x00003078       0x20 c:/program files (x86)/microchip/xc32/v1.22/bin/../lib/gcc/pic32mx/4.5.2/../../../../pic32mx/lib/mips16\libmchp_peripheral_32MX795F512H.a(nvm_write_word_lib.o)
 .debug_aranges
                0x00003098       0x20 c:/program files (x86)/microchip/xc32/v1.22/bin/../lib/gcc/pic32mx/4.5.2/../../../../pic32mx/lib/mips16\libmchp_peripheral_32MX795F512H.a(port_reset_pins_lib.o)
 .debug_aranges
                0x000030b8       0x20 c:/program files (x86)/microchip/xc32/v1.22/bin/../lib/gcc/pic32mx/4.5.2/../../../../pic32mx/lib/mips16\libmchp_peripheral_32MX795F512H.a(port_set_pins_digital_in_lib.o)
 .debug_aranges
                0x000030d8       0x20 c:/program files (x86)/microchip/xc32/v1.22/bin/../lib/gcc/pic32mx/4.5.2/../../../../pic32mx/lib/mips16\libmchp_peripheral_32MX795F512H.a(port_set_pins_digital_out_lib.o)
 .debug_aranges
                0x000030f8       0x20 c:/program files (x86)/microchip/xc32/v1.22/bin/../lib/gcc/pic32mx/4.5.2/../../../../pic32mx/lib/mips16\libmchp_peripheral_32MX795F512H.a(I2CConfigure.o)
 .debug_aranges
                0x00003118       0x20 c:/program files (x86)/microchip/xc32/v1.22/bin/../lib/gcc/pic32mx/4.5.2/../../../../pic32mx/lib/mips16\libmchp_peripheral_32MX795F512H.a(I2CEnable.o)
 .debug_aranges
                0x00003138       0x20 c:/program files (x86)/microchip/xc32/v1.22/bin/../lib/gcc/pic32mx/4.5.2/../../../../pic32mx/lib/mips16\libmchp_peripheral_32MX795F512H.a(I2CSetFrequency.o)
 .debug_aranges
                0x00003158       0x20 c:/program files (x86)/microchip/xc32/v1.22/bin/../lib/gcc/pic32mx/4.5.2/../../../../pic32mx/lib/mips16\libmchp_peripheral_32MX795F512H.a(I2CSetSlaveAddress.o)
 .debug_aranges
                0x00003178       0x20 c:/program files (x86)/microchip/xc32/v1.22/bin/../lib/gcc/pic32mx/4.5.2/../../../../pic32mx/lib/mips16\libmchp_peripheral_32MX795F512H.a(int_enable_interrupts_lib.o)
 .debug_aranges
                0x00003198       0x20 c:/program files (x86)/microchip/xc32/v1.22/bin/../lib/gcc/pic32mx/4.5.2/mips16\libgcc.a(_floatdisf.o)
 .debug_aranges
                0x000031b8       0x20 c:/program files (x86)/microchip/xc32/v1.22/bin/../lib/gcc/pic32mx/4.5.2/mips16\libgcc.a(_udivdi3.o)
 .debug_aranges
                0x000031d8       0x20 c:/program files (x86)/microchip/xc32/v1.22/bin/../lib/gcc/pic32mx/4.5.2/mips16\libgcc.a(_umoddi3.o)
 .debug_aranges
                0x000031f8       0x20 c:/program files (x86)/microchip/xc32/v1.22/bin/../lib/gcc/pic32mx/4.5.2/../../../../pic32mx/lib/mips16\libpic32.a(default-bootstrap-exception-handler.o)
 .debug_aranges
                0x00003218       0x20 c:/program files (x86)/microchip/xc32/v1.22/bin/../lib/gcc/pic32mx/4.5.2/../../../../pic32mx/lib/mips16\libpic32.a(default-on-reset.o)
 .debug_aranges
                0x00003238       0x20 c:/program files (x86)/microchip/xc32/v1.22/bin/../lib/gcc/pic32mx/4.5.2/../../../../pic32mx/lib/mips16\libpic32.a(default-on-bootstrap.o)
 .debug_aranges
                0x00003258       0x20 c:/program files (x86)/microchip/xc32/v1.22/bin/../lib/gcc/pic32mx/4.5.2/../../../../pic32mx/lib/mips16\libm.a(w_powf.o)
 .debug_aranges
                0x00003278       0x20 c:/program files (x86)/microchip/xc32/v1.22/bin/../lib/gcc/pic32mx/4.5.2/../../../../pic32mx/lib/mips16\libm.a(w_log10f.o)
 .debug_aranges
                0x00003298       0x28 c:/program files (x86)/microchip/xc32/v1.22/bin/../lib/gcc/pic32mx/4.5.2/../../../../pic32mx/lib/mips16\libe.a(_unordsf2.o)
 .debug_aranges
                0x000032c0       0x48 c:/program files (x86)/microchip/xc32/v1.22/bin/../lib/gcc/pic32mx/4.5.2/../../../../pic32mx/lib/mips16\libpic32.a(isinf.o)
 .debug_aranges
                0x00003308       0x20 c:/program files (x86)/microchip/xc32/v1.22/bin/../lib/gcc/pic32mx/4.5.2/../../../../pic32mx/lib/mips16\libc.a(_fputc_simple.o)
 .debug_aranges
                0x00003328       0x20 c:/program files (x86)/microchip/xc32/v1.22/bin/../lib/gcc/pic32mx/4.5.2/../../../../pic32mx/lib/mips16\libc.a(fread.o)
 .debug_aranges
                0x00003348       0x30 c:/program files (x86)/microchip/xc32/v1.22/bin/../lib/gcc/pic32mx/4.5.2/../../../../pic32mx/lib/mips16\libc.a(fseek.o)
 .debug_aranges
                0x00003378       0x20 c:/program files (x86)/microchip/xc32/v1.22/bin/../lib/gcc/pic32mx/4.5.2/../../../../pic32mx/lib/mips16\libc.a(fwrite.o)
 .debug_aranges
                0x00003398       0x20 c:/program files (x86)/microchip/xc32/v1.22/bin/../lib/gcc/pic32mx/4.5.2/../../../../pic32mx/lib/mips16\libc.a(atoi.o)
 .debug_aranges
                0x000033b8       0x20 c:/program files (x86)/microchip/xc32/v1.22/bin/../lib/gcc/pic32mx/4.5.2/../../../../pic32mx/lib/mips16\libc.a(calloc.o)
 .debug_aranges
                0x000033d8       0xa0 c:/program files (x86)/microchip/xc32/v1.22/bin/../lib/gcc/pic32mx/4.5.2/../../../../pic32mx/lib/mips16\libc.a(ctypef.o)
 .debug_aranges
                0x00003478       0x30 c:/program files (x86)/microchip/xc32/v1.22/bin/../lib/gcc/pic32mx/4.5.2/../../../../pic32mx/lib/mips16\libc.a(malloc.o)
 .debug_aranges
                0x000034a8       0x20 c:/program files (x86)/microchip/xc32/v1.22/bin/../lib/gcc/pic32mx/4.5.2/../../../../pic32mx/lib/mips16\libc.a(memchr.o)
 .debug_aranges
                0x000034c8       0x20 c:/program files (x86)/microchip/xc32/v1.22/bin/../lib/gcc/pic32mx/4.5.2/../../../../pic32mx/lib/mips16\libc.a(memcmp.o)
 .debug_aranges
                0x000034e8       0x20 c:/program files (x86)/microchip/xc32/v1.22/bin/../lib/gcc/pic32mx/4.5.2/../../../../pic32mx/lib/mips16\libc.a(memcpy.o)
 .debug_aranges
                0x00003508       0x20 c:/program files (x86)/microchip/xc32/v1.22/bin/../lib/gcc/pic32mx/4.5.2/../../../../pic32mx/lib/mips16\libc.a(memmove.o)
 .debug_aranges
                0x00003528       0x20 c:/program files (x86)/microchip/xc32/v1.22/bin/../lib/gcc/pic32mx/4.5.2/../../../../pic32mx/lib/mips16\libc.a(memset.o)
 .debug_aranges
                0x00003548       0x30 c:/program files (x86)/microchip/xc32/v1.22/bin/../lib/gcc/pic32mx/4.5.2/../../../../pic32mx/lib/mips16\libc.a(signal.o)
 .debug_aranges
                0x00003578       0x20 c:/program files (x86)/microchip/xc32/v1.22/bin/../lib/gcc/pic32mx/4.5.2/../../../../pic32mx/lib/mips16\libc.a(strchr.o)
 .debug_aranges
                0x00003598       0x20 c:/program files (x86)/microchip/xc32/v1.22/bin/../lib/gcc/pic32mx/4.5.2/../../../../pic32mx/lib/mips16\libc.a(strcmp.o)
 .debug_aranges
                0x000035b8       0x20 c:/program files (x86)/microchip/xc32/v1.22/bin/../lib/gcc/pic32mx/4.5.2/../../../../pic32mx/lib/mips16\libc.a(strlen.o)
 .debug_aranges
                0x000035d8       0x20 c:/program files (x86)/microchip/xc32/v1.22/bin/../lib/gcc/pic32mx/4.5.2/../../../../pic32mx/lib/mips16\libc.a(strncpy.o)
 .debug_aranges
                0x000035f8       0x28 c:/program files (x86)/microchip/xc32/v1.22/bin/../lib/gcc/pic32mx/4.5.2/../../../../pic32mx/lib/mips16\libc.a(strtod.o)
 .debug_aranges
                0x00003620       0x20 c:/program files (x86)/microchip/xc32/v1.22/bin/../lib/gcc/pic32mx/4.5.2/../../../../pic32mx/lib/mips16\libc.a(strstr.o)
 .debug_aranges
                0x00003640       0x20 c:/program files (x86)/microchip/xc32/v1.22/bin/../lib/gcc/pic32mx/4.5.2/../../../../pic32mx/lib/mips16\libc.a(strtok.o)
 .debug_aranges
                0x00003660       0x28 c:/program files (x86)/microchip/xc32/v1.22/bin/../lib/gcc/pic32mx/4.5.2/../../../../pic32mx/lib/mips16\libc.a(strtol.o)
 .debug_aranges
                0x00003688       0x20 c:/program files (x86)/microchip/xc32/v1.22/bin/../lib/gcc/pic32mx/4.5.2/../../../../pic32mx/lib/mips16\libc.a(exit.o)
 .debug_aranges
                0x000036a8       0x30 c:/program files (x86)/microchip/xc32/v1.22/bin/../lib/gcc/pic32mx/4.5.2/../../../../pic32mx/lib/mips16\libc.a(doprnt.o)
 .debug_aranges
                0x000036d8       0x20 c:/program files (x86)/microchip/xc32/v1.22/bin/../lib/gcc/pic32mx/4.5.2/../../../../pic32mx/lib/mips16\libc.a(printf_cdnopuxX.eo)
 .debug_aranges
                0x000036f8       0x20 c:/program files (x86)/microchip/xc32/v1.22/bin/../lib/gcc/pic32mx/4.5.2/../../../../pic32mx/lib/mips16\libc.a(sprintf_cdnopsuxX.eo)
 .debug_aranges
                0x00003718       0x20 c:/program files (x86)/microchip/xc32/v1.22/bin/../lib/gcc/pic32mx/4.5.2/../../../../pic32mx/lib/mips16\libc.a(vsnprintf.o)
 .debug_aranges
                0x00003738       0x20 c:/program files (x86)/microchip/xc32/v1.22/bin/../lib/gcc/pic32mx/4.5.2/../../../../pic32mx/lib/mips16\libc.a(_flsbuf_simple.o)
 .debug_aranges
                0x00003758       0x20 c:/program files (x86)/microchip/xc32/v1.22/bin/../lib/gcc/pic32mx/4.5.2/../../../../pic32mx/lib/mips16\libc.a(stdclean_simple.o)
 .debug_aranges
                0x00003778       0x20 c:/program files (x86)/microchip/xc32/v1.22/bin/../lib/gcc/pic32mx/4.5.2/../../../../pic32mx/lib/mips16\libc.a(fflush.o)
 .debug_aranges
                0x00003798       0x20 c:/program files (x86)/microchip/xc32/v1.22/bin/../lib/gcc/pic32mx/4.5.2/../../../../pic32mx/lib/mips16\libc.a(fgetc.o)
 .debug_aranges
                0x000037b8       0x20 c:/program files (x86)/microchip/xc32/v1.22/bin/../lib/gcc/pic32mx/4.5.2/../../../../pic32mx/lib/mips16\libc.a(strcspn.o)
 .debug_aranges
                0x000037d8       0x20 c:/program files (x86)/microchip/xc32/v1.22/bin/../lib/gcc/pic32mx/4.5.2/../../../../pic32mx/lib/mips16\libc.a(strncmp.o)
 .debug_aranges
                0x000037f8       0x20 c:/program files (x86)/microchip/xc32/v1.22/bin/../lib/gcc/pic32mx/4.5.2/../../../../pic32mx/lib/mips16\libc.a(strspn.o)
 .debug_aranges
                0x00003818       0x20 c:/program files (x86)/microchip/xc32/v1.22/bin/../lib/gcc/pic32mx/4.5.2/../../../../pic32mx/lib/mips16\libc.a(doprnt_cdnopsuxX.eo)
 .debug_aranges
                0x00003838       0x20 c:/program files (x86)/microchip/xc32/v1.22/bin/../lib/gcc/pic32mx/4.5.2/../../../../pic32mx/lib/mips16\libc.a(filbuf.o)
 .debug_aranges
                0x00003858       0x40 c:/program files (x86)/microchip/xc32/v1.22/bin/../lib/gcc/pic32mx/4.5.2/../../../../pic32mx/lib/mips16\libpic32.a(sbrk.o)
 .debug_aranges
                0x00003898       0x20 c:/program files (x86)/microchip/xc32/v1.22/bin/../lib/gcc/pic32mx/4.5.2/../../../../pic32mx/lib/mips16\libpic32.a(read.o)
 .debug_aranges
                0x000038b8       0x20 c:/program files (x86)/microchip/xc32/v1.22/bin/../lib/gcc/pic32mx/4.5.2/../../../../pic32mx/lib/mips16\libpic32.a(write.o)
 .debug_aranges
                0x000038d8       0x20 c:/program files (x86)/microchip/xc32/v1.22/bin/../lib/gcc/pic32mx/4.5.2/../../../../pic32mx/lib/mips16\libpic32.a(lseek.o)
 .debug_aranges
                0x000038f8       0x20 c:/program files (x86)/microchip/xc32/v1.22/bin/../lib/gcc/pic32mx/4.5.2/../../../../pic32mx/lib/mips16\libpic32.a(_mon_putc.o)
 .debug_aranges
                0x00003918       0x28 c:/program files (x86)/microchip/xc32/v1.22/bin/../lib/gcc/pic32mx/4.5.2/../../../../pic32mx/lib/mips16\libe.a(_unorddf2.o)
 .debug_aranges
                0x00003940       0x28 c:/program files (x86)/microchip/xc32/v1.22/bin/../lib/gcc/pic32mx/4.5.2/../../../../pic32mx/lib/mips16\libe.a(_strtod.o)
 .debug_aranges
                0x00003968       0x30 c:/program files (x86)/microchip/xc32/v1.22/bin/../lib/gcc/pic32mx/4.5.2/../../../../pic32mx/lib/mips16\libe.a(_ldexp.o)
 .debug_aranges
                0x00003998       0x20 c:/program files (x86)/microchip/xc32/v1.22/bin/../lib/gcc/pic32mx/4.5.2/mips16\libgcc.a(_lshrdi3.o)
 .debug_aranges
                0x000039b8       0x20 c:/program files (x86)/microchip/xc32/v1.22/bin/../lib/gcc/pic32mx/4.5.2/mips16\libgcc.a(_floatundisf.o)
 .debug_aranges
                0x000039d8       0x20 c:/program files (x86)/microchip/xc32/v1.22/bin/../lib/gcc/pic32mx/4.5.2/mips16\libgcc.a(floatunsisf.o)

.debug_pubnames
                0x00000000     0x69b0
 *(.debug_pubnames)
 .debug_pubnames
                0x00000000      0x131 build/default/production/_ext/454704213/analog.o
 .debug_pubnames
                0x00000131      0x2d9 build/default/production/_ext/454704213/iosetting.o
 .debug_pubnames
                0x0000040a       0x2c build/default/production/_ext/454704213/TimeDelay.o
 .debug_pubnames
                0x00000436       0x33 build/default/production/_ext/454704213/usb_config.o
 .debug_pubnames
                0x00000469       0x81 build/default/production/_ext/454704213/usb_descriptors.o
 .debug_pubnames
                0x000004ea     0x1243 build/default/production/_ext/454704213/osc.o
 .debug_pubnames
                0x0000172d       0x88 build/default/production/_ext/454704213/sram.o
 .debug_pubnames
                0x000017b5       0xb7 build/default/production/_ext/1340694758/ARP.o
 .debug_pubnames
                0x0000186c       0xcc build/default/production/_ext/1340694758/DHCP.o
 .debug_pubnames
                0x00001938       0x78 build/default/production/_ext/1340694758/DHCPs.o
 .debug_pubnames
                0x000019b0      0x110 build/default/production/_ext/1340694758/ETHPIC32ExtPhy.o
 .debug_pubnames
                0x00001ac0       0x6b build/default/production/_ext/1340694758/ETHPIC32ExtPhyDP83848.o
 .debug_pubnames
                0x00001b2b      0x22b build/default/production/_ext/1340694758/ETHPIC32IntMac.o
 .debug_pubnames
                0x00001d56      0x10a build/default/production/_ext/1340694758/Helpers.o
 .debug_pubnames
                0x00001e60       0x22 build/default/production/_ext/1340694758/ICMP.o
 .debug_pubnames
                0x00001e82       0x44 build/default/production/_ext/1340694758/IP.o
 .debug_pubnames
                0x00001ec6       0x53 build/default/production/_ext/1340694758/StackTsk.o
 .debug_pubnames
                0x00001f19       0x7e build/default/production/_ext/1340694758/Tick.o
 .debug_pubnames
                0x00001f97      0x155 build/default/production/_ext/1340694758/UDP.o
 .debug_pubnames
                0x000020ec       0x3b build/default/production/_ext/1340694758/ZeroconfHelper.o
 .debug_pubnames
                0x00002127       0xc6 build/default/production/_ext/1340694758/ZeroconfLinkLocal.o
 .debug_pubnames
                0x000021ed      0x159 build/default/production/_ext/1340694758/ZeroconfMulticastDNS.o
 .debug_pubnames
                0x00002346      0x312 build/default/production/_ext/1798056102/usb_device.o
 .debug_pubnames
                0x00002658       0x4b build/default/production/_ext/1798056102/usb_function_hid.o
 .debug_pubnames
                0x000026a3      0x401 build/default/production/_ext/1798056102/usb_host.o
 .debug_pubnames
                0x00002aa4      0x19f build/default/production/_ext/1798056102/usb_host_cdc.o
 .debug_pubnames
                0x00002c43       0xb5 build/default/production/_ext/1798056102/usb_host_cdc_interface.o
 .debug_pubnames
                0x00002cf8      0x1e7 build/default/production/_ext/1798056102/usb_host_hid.o
 .debug_pubnames
                0x00002edf       0x7c build/default/production/_ext/1798056102/usb_host_hid_parser.o
 .debug_pubnames
                0x00002f5b       0x6b build/default/production/_ext/1798056102/usb_host_midi.o
 .debug_pubnames
                0x00002fc6      0x7ac build/default/production/picrouter.o
 .debug_pubnames
                0x00003772       0x1f build/default/production/mrb_picrouter.o
 .debug_pubnames
                0x00003791      0x5c6 ..\mruby-1.0.0\build\PICrouter\lib\libmruby.a(class.o)
 .debug_pubnames
                0x00003d57      0x115 ..\mruby-1.0.0\build\PICrouter\lib\libmruby.a(error.o)
 .debug_pubnames
                0x00003e6c      0x1a1 ..\mruby-1.0.0\build\PICrouter\lib\libmruby.a(gc.o)
 .debug_pubnames
                0x0000400d      0x24e ..\mruby-1.0.0\build\PICrouter\lib\libmruby.a(hash.o)
 .debug_pubnames
                0x0000425b      0x331 ..\mruby-1.0.0\build\PICrouter\lib\libmruby.a(kernel.o)
 .debug_pubnames
                0x0000458c       0x95 ..\mruby-1.0.0\build\PICrouter\lib\libmruby.a(load.o)
 .debug_pubnames
                0x00004621      0x122 ..\mruby-1.0.0\build\PICrouter\lib\libmruby.a(object.o)
 .debug_pubnames
                0x00004743       0x5c ..\mruby-1.0.0\build\PICrouter\lib\libmruby.a(print.o)
 .debug_pubnames
                0x0000479f       0xcb ..\mruby-1.0.0\build\PICrouter\lib\libmruby.a(proc.o)
 .debug_pubnames
                0x0000486a       0xd2 ..\mruby-1.0.0\build\PICrouter\lib\libmruby.a(state.o)
 .debug_pubnames
                0x0000493c      0x31f ..\mruby-1.0.0\build\PICrouter\lib\libmruby.a(string.o)
 .debug_pubnames
                0x00004c5b      0x1d2 ..\mruby-1.0.0\build\PICrouter\lib\libmruby.a(symbol.o)
 .debug_pubnames
                0x00004e2d      0x399 ..\mruby-1.0.0\build\PICrouter\lib\libmruby.a(variable.o)
 .debug_pubnames
                0x000051c6       0xba ..\mruby-1.0.0\build\PICrouter\lib\libmruby.a(vm.o)
 .debug_pubnames
                0x00005280      0x310 ..\mruby-1.0.0\build\PICrouter\lib\libmruby.a(array.o)
 .debug_pubnames
                0x00005590       0x40 ..\mruby-1.0.0\build\PICrouter\lib\libmruby.a(backtrace.o)
 .debug_pubnames
                0x000055d0       0x28 ..\mruby-1.0.0\build\PICrouter\lib\libmruby.a(crc.o)
 .debug_pubnames
                0x000055f8       0x94 ..\mruby-1.0.0\build\PICrouter\lib\libmruby.a(debug.o)
 .debug_pubnames
                0x0000568c       0xd5 ..\mruby-1.0.0\build\PICrouter\lib\libmruby.a(etc.o)
 .debug_pubnames
                0x00005761       0x37 ..\mruby-1.0.0\build\PICrouter\lib\libmruby.a(init.o)
 .debug_pubnames
                0x00005798       0xb2 ..\mruby-1.0.0\build\PICrouter\lib\libmruby.a(numeric.o)
 .debug_pubnames
                0x0000584a       0xf1 ..\mruby-1.0.0\build\PICrouter\lib\libmruby.a(range.o)
 .debug_pubnames
                0x0000593b       0x36 ..\mruby-1.0.0\build\PICrouter\lib\libmruby.a(mrblib.o)
 .debug_pubnames
                0x00005971       0x2a ..\mruby-1.0.0\build\PICrouter\lib\libmruby.a(compar.o)
 .debug_pubnames
                0x0000599b       0x2a ..\mruby-1.0.0\build\PICrouter\lib\libmruby.a(enum.o)
 .debug_pubnames
                0x000059c5       0x24 c:/program files (x86)/microchip/xc32/v1.22/bin/../lib/gcc/pic32mx/4.5.2/../../../../pic32mx/lib/mips16\libmchp_peripheral.a(read_core_timer_lib.o)
 .debug_pubnames
                0x000059e9       0x80 c:/program files (x86)/microchip/xc32/v1.22/bin/../lib/gcc/pic32mx/4.5.2/../../../../pic32mx/lib/mips16\libmchp_peripheral_32MX795F512H.a(eth_ack_packet_lib.o)
 .debug_pubnames
                0x00005a69       0x42 c:/program files (x86)/microchip/xc32/v1.22/bin/../lib/gcc/pic32mx/4.5.2/../../../../pic32mx/lib/mips16\libmchp_peripheral_32MX795F512H.a(eth_descriptors_add_lib.o)
 .debug_pubnames
                0x00005aab       0x1e c:/program files (x86)/microchip/xc32/v1.22/bin/../lib/gcc/pic32mx/4.5.2/../../../../pic32mx/lib/mips16\libmchp_peripheral_32MX795F512H.a(eth_init_lib.o)
 .debug_pubnames
                0x00005ac9       0x21 c:/program files (x86)/microchip/xc32/v1.22/bin/../lib/gcc/pic32mx/4.5.2/../../../../pic32mx/lib/mips16\libmchp_peripheral_32MX795F512H.a(eth_mac_open_lib.o)
 .debug_pubnames
                0x00005aea       0x52 c:/program files (x86)/microchip/xc32/v1.22/bin/../lib/gcc/pic32mx/4.5.2/../../../../pic32mx/lib/mips16\libmchp_peripheral_32MX795F512H.a(eth_mac_set_address_max_lib.o)
 .debug_pubnames
                0x00005b3c       0x29 c:/program files (x86)/microchip/xc32/v1.22/bin/../lib/gcc/pic32mx/4.5.2/../../../../pic32mx/lib/mips16\libmchp_peripheral_32MX795F512H.a(eth_rx_buffers_append_lib.o)
 .debug_pubnames
                0x00005b65       0x92 c:/program files (x86)/microchip/xc32/v1.22/bin/../lib/gcc/pic32mx/4.5.2/../../../../pic32mx/lib/mips16\libmchp_peripheral_32MX795F512H.a(eth_rx_filters_lib.o)
 .debug_pubnames
                0x00005bf7       0x38 c:/program files (x86)/microchip/xc32/v1.22/bin/../lib/gcc/pic32mx/4.5.2/../../../../pic32mx/lib/mips16\libmchp_peripheral_32MX795F512H.a(eth_rx_get_packet_lib.o)
 .debug_pubnames
                0x00005c2f       0x29 c:/program files (x86)/microchip/xc32/v1.22/bin/../lib/gcc/pic32mx/4.5.2/../../../../pic32mx/lib/mips16\libmchp_peripheral_32MX795F512H.a(eth_rx_set_buffer_size_lib.o)
 .debug_pubnames
                0x00005c58       0x66 c:/program files (x86)/microchip/xc32/v1.22/bin/../lib/gcc/pic32mx/4.5.2/../../../../pic32mx/lib/mips16\libmchp_peripheral_32MX795F512H.a(eth_tx_packet_lib.o)
 .debug_pubnames
                0x00005cbe       0x29 c:/program files (x86)/microchip/xc32/v1.22/bin/../lib/gcc/pic32mx/4.5.2/../../../../pic32mx/lib/mips16\libmchp_peripheral_32MX795F512H.a(_eth_append_busy_list_lib.o)
 .debug_pubnames
                0x00005ce7       0x90 c:/program files (x86)/microchip/xc32/v1.22/bin/../lib/gcc/pic32mx/4.5.2/../../../../pic32mx/lib/mips16\libmchp_peripheral_32MX795F512H.a(eth_miim_access.o)
 .debug_pubnames
                0x00005d77       0x20 c:/program files (x86)/microchip/xc32/v1.22/bin/../lib/gcc/pic32mx/4.5.2/../../../../pic32mx/lib/mips16\libmchp_peripheral_32MX795F512H.a(soft_reset_lib.o)
 .debug_pubnames
                0x00005d97       0x3b c:/program files (x86)/microchip/xc32/v1.22/bin/../lib/gcc/pic32mx/4.5.2/../../../../pic32mx/lib/mips16\libmchp_peripheral_32MX795F512H.a(pcache.o)
 .debug_pubnames
                0x00005dd2       0x2b c:/program files (x86)/microchip/xc32/v1.22/bin/../lib/gcc/pic32mx/4.5.2/../../../../pic32mx/lib/mips16\libmchp_peripheral_32MX795F512H.a(int_disable_interrupts_lib.o)
 .debug_pubnames
                0x00005dfd       0x2b c:/program files (x86)/microchip/xc32/v1.22/bin/../lib/gcc/pic32mx/4.5.2/../../../../pic32mx/lib/mips16\libmchp_peripheral_32MX795F512H.a(int_restore_interrupts_lib.o)
 .debug_pubnames
                0x00005e28       0x36 c:/program files (x86)/microchip/xc32/v1.22/bin/../lib/gcc/pic32mx/4.5.2/../../../../pic32mx/lib/mips16\libmchp_peripheral_32MX795F512H.a(int_enable_mv_int_lib.o)
 .debug_pubnames
                0x00005e5e       0xca c:/program files (x86)/microchip/xc32/v1.22/bin/../lib/gcc/pic32mx/4.5.2/../../../../pic32mx/lib/mips16\libmchp_peripheral_32MX795F512H.a(int_tbl_lib.o)
 .debug_pubnames
                0x00005f28       0x22 c:/program files (x86)/microchip/xc32/v1.22/bin/../lib/gcc/pic32mx/4.5.2/../../../../pic32mx/lib/mips16\libmchp_peripheral_32MX795F512H.a(spi_chn_close_lib.o)
 .debug_pubnames
                0x00005f4a       0x21 c:/program files (x86)/microchip/xc32/v1.22/bin/../lib/gcc/pic32mx/4.5.2/../../../../pic32mx/lib/mips16\libmchp_peripheral_32MX795F512H.a(spi_chn_open_lib.o)
 .debug_pubnames
                0x00005f6b       0x1f c:/program files (x86)/microchip/xc32/v1.22/bin/../lib/gcc/pic32mx/4.5.2/../../../../pic32mx/lib/mips16\libmchp_peripheral_32MX795F512H.a(spi_getc_spi2_lib_legacy.o)
 .debug_pubnames
                0x00005f8a       0x23 c:/program files (x86)/microchip/xc32/v1.22/bin/../lib/gcc/pic32mx/4.5.2/../../../../pic32mx/lib/mips16\libmchp_peripheral_32MX795F512H.a(nvm_erase_page_lib.o)
 .debug_pubnames
                0x00005fad       0x24 c:/program files (x86)/microchip/xc32/v1.22/bin/../lib/gcc/pic32mx/4.5.2/../../../../pic32mx/lib/mips16\libmchp_peripheral_32MX795F512H.a(nvm_operation_lib.o)
 .debug_pubnames
                0x00005fd1       0x23 c:/program files (x86)/microchip/xc32/v1.22/bin/../lib/gcc/pic32mx/4.5.2/../../../../pic32mx/lib/mips16\libmchp_peripheral_32MX795F512H.a(nvm_write_word_lib.o)
 .debug_pubnames
                0x00005ff4       0x24 c:/program files (x86)/microchip/xc32/v1.22/bin/../lib/gcc/pic32mx/4.5.2/../../../../pic32mx/lib/mips16\libmchp_peripheral_32MX795F512H.a(port_reset_pins_lib.o)
 .debug_pubnames
                0x00006018       0x2b c:/program files (x86)/microchip/xc32/v1.22/bin/../lib/gcc/pic32mx/4.5.2/../../../../pic32mx/lib/mips16\libmchp_peripheral_32MX795F512H.a(port_set_pins_digital_in_lib.o)
 .debug_pubnames
                0x00006043       0x2c c:/program files (x86)/microchip/xc32/v1.22/bin/../lib/gcc/pic32mx/4.5.2/../../../../pic32mx/lib/mips16\libmchp_peripheral_32MX795F512H.a(port_set_pins_digital_out_lib.o)
 .debug_pubnames
                0x0000606f       0x23 c:/program files (x86)/microchip/xc32/v1.22/bin/../lib/gcc/pic32mx/4.5.2/../../../../pic32mx/lib/mips16\libmchp_peripheral_32MX795F512H.a(I2CConfigure.o)
 .debug_pubnames
                0x00006092       0x20 c:/program files (x86)/microchip/xc32/v1.22/bin/../lib/gcc/pic32mx/4.5.2/../../../../pic32mx/lib/mips16\libmchp_peripheral_32MX795F512H.a(I2CEnable.o)
 .debug_pubnames
                0x000060b2       0x26 c:/program files (x86)/microchip/xc32/v1.22/bin/../lib/gcc/pic32mx/4.5.2/../../../../pic32mx/lib/mips16\libmchp_peripheral_32MX795F512H.a(I2CSetFrequency.o)
 .debug_pubnames
                0x000060d8       0x29 c:/program files (x86)/microchip/xc32/v1.22/bin/../lib/gcc/pic32mx/4.5.2/../../../../pic32mx/lib/mips16\libmchp_peripheral_32MX795F512H.a(I2CSetSlaveAddress.o)
 .debug_pubnames
                0x00006101       0x2a c:/program files (x86)/microchip/xc32/v1.22/bin/../lib/gcc/pic32mx/4.5.2/../../../../pic32mx/lib/mips16\libmchp_peripheral_32MX795F512H.a(int_enable_interrupts_lib.o)
 .debug_pubnames
                0x0000612b       0x22 c:/program files (x86)/microchip/xc32/v1.22/bin/../lib/gcc/pic32mx/4.5.2/mips16\libgcc.a(_floatdisf.o)
 .debug_pubnames
                0x0000614d       0x20 c:/program files (x86)/microchip/xc32/v1.22/bin/../lib/gcc/pic32mx/4.5.2/mips16\libgcc.a(_udivdi3.o)
 .debug_pubnames
                0x0000616d       0x20 c:/program files (x86)/microchip/xc32/v1.22/bin/../lib/gcc/pic32mx/4.5.2/mips16\libgcc.a(_umoddi3.o)
 .debug_pubnames
                0x0000618d       0x20 c:/program files (x86)/microchip/xc32/v1.22/bin/../lib/gcc/pic32mx/4.5.2/mips16\libgcc.a(_clz.o)
 .debug_pubnames
                0x000061ad       0x33 c:/program files (x86)/microchip/xc32/v1.22/bin/../lib/gcc/pic32mx/4.5.2/../../../../pic32mx/lib/mips16\libpic32.a(default-bootstrap-exception-handler.o)
 .debug_pubnames
                0x000061e0       0x20 c:/program files (x86)/microchip/xc32/v1.22/bin/../lib/gcc/pic32mx/4.5.2/../../../../pic32mx/lib/mips16\libpic32.a(default-on-reset.o)
 .debug_pubnames
                0x00006200       0x24 c:/program files (x86)/microchip/xc32/v1.22/bin/../lib/gcc/pic32mx/4.5.2/../../../../pic32mx/lib/mips16\libpic32.a(default-on-bootstrap.o)
 .debug_pubnames
                0x00006224       0x1b c:/program files (x86)/microchip/xc32/v1.22/bin/../lib/gcc/pic32mx/4.5.2/../../../../pic32mx/lib/mips16\libm.a(w_powf.o)
 .debug_pubnames
                0x0000623f       0x1d c:/program files (x86)/microchip/xc32/v1.22/bin/../lib/gcc/pic32mx/4.5.2/../../../../pic32mx/lib/mips16\libm.a(w_log10f.o)
 .debug_pubnames
                0x0000625c       0x21 c:/program files (x86)/microchip/xc32/v1.22/bin/../lib/gcc/pic32mx/4.5.2/../../../../pic32mx/lib/mips16\libe.a(_unordsf2.o)
 .debug_pubnames
                0x0000627d       0x52 c:/program files (x86)/microchip/xc32/v1.22/bin/../lib/gcc/pic32mx/4.5.2/../../../../pic32mx/lib/mips16\libpic32.a(isinf.o)
 .debug_pubnames
                0x000062cf       0x1c c:/program files (x86)/microchip/xc32/v1.22/bin/../lib/gcc/pic32mx/4.5.2/../../../../pic32mx/lib/mips16\libc.a(_fputc_simple.o)
 .debug_pubnames
                0x000062eb       0x1c c:/program files (x86)/microchip/xc32/v1.22/bin/../lib/gcc/pic32mx/4.5.2/../../../../pic32mx/lib/mips16\libc.a(fread.o)
 .debug_pubnames
                0x00006307       0x26 c:/program files (x86)/microchip/xc32/v1.22/bin/../lib/gcc/pic32mx/4.5.2/../../../../pic32mx/lib/mips16\libc.a(fseek.o)
 .debug_pubnames
                0x0000632d       0x1d c:/program files (x86)/microchip/xc32/v1.22/bin/../lib/gcc/pic32mx/4.5.2/../../../../pic32mx/lib/mips16\libc.a(fwrite.o)
 .debug_pubnames
                0x0000634a       0x1b c:/program files (x86)/microchip/xc32/v1.22/bin/../lib/gcc/pic32mx/4.5.2/../../../../pic32mx/lib/mips16\libc.a(atoi.o)
 .debug_pubnames
                0x00006365       0x1d c:/program files (x86)/microchip/xc32/v1.22/bin/../lib/gcc/pic32mx/4.5.2/../../../../pic32mx/lib/mips16\libc.a(calloc.o)
 .debug_pubnames
                0x00006382       0xe1 c:/program files (x86)/microchip/xc32/v1.22/bin/../lib/gcc/pic32mx/4.5.2/../../../../pic32mx/lib/mips16\libc.a(ctypef.o)
 .debug_pubnames
                0x00006463       0x32 c:/program files (x86)/microchip/xc32/v1.22/bin/../lib/gcc/pic32mx/4.5.2/../../../../pic32mx/lib/mips16\libc.a(malloc.o)
 .debug_pubnames
                0x00006495       0x1d c:/program files (x86)/microchip/xc32/v1.22/bin/../lib/gcc/pic32mx/4.5.2/../../../../pic32mx/lib/mips16\libc.a(memchr.o)
 .debug_pubnames
                0x000064b2       0x1d c:/program files (x86)/microchip/xc32/v1.22/bin/../lib/gcc/pic32mx/4.5.2/../../../../pic32mx/lib/mips16\libc.a(memcmp.o)
 .debug_pubnames
                0x000064cf       0x1d c:/program files (x86)/microchip/xc32/v1.22/bin/../lib/gcc/pic32mx/4.5.2/../../../../pic32mx/lib/mips16\libc.a(memcpy.o)
 .debug_pubnames
                0x000064ec       0x1e c:/program files (x86)/microchip/xc32/v1.22/bin/../lib/gcc/pic32mx/4.5.2/../../../../pic32mx/lib/mips16\libc.a(memmove.o)
 .debug_pubnames
                0x0000650a       0x1d c:/program files (x86)/microchip/xc32/v1.22/bin/../lib/gcc/pic32mx/4.5.2/../../../../pic32mx/lib/mips16\libc.a(memset.o)
 .debug_pubnames
                0x00006527       0x31 c:/program files (x86)/microchip/xc32/v1.22/bin/../lib/gcc/pic32mx/4.5.2/../../../../pic32mx/lib/mips16\libc.a(signal.o)
 .debug_pubnames
                0x00006558       0x1d c:/program files (x86)/microchip/xc32/v1.22/bin/../lib/gcc/pic32mx/4.5.2/../../../../pic32mx/lib/mips16\libc.a(strchr.o)
 .debug_pubnames
                0x00006575       0x1d c:/program files (x86)/microchip/xc32/v1.22/bin/../lib/gcc/pic32mx/4.5.2/../../../../pic32mx/lib/mips16\libc.a(strcmp.o)
 .debug_pubnames
                0x00006592       0x1d c:/program files (x86)/microchip/xc32/v1.22/bin/../lib/gcc/pic32mx/4.5.2/../../../../pic32mx/lib/mips16\libc.a(strlen.o)
 .debug_pubnames
                0x000065af       0x1e c:/program files (x86)/microchip/xc32/v1.22/bin/../lib/gcc/pic32mx/4.5.2/../../../../pic32mx/lib/mips16\libc.a(strncpy.o)
 .debug_pubnames
                0x000065cd       0x2a c:/program files (x86)/microchip/xc32/v1.22/bin/../lib/gcc/pic32mx/4.5.2/../../../../pic32mx/lib/mips16\libc.a(strtod.o)
 .debug_pubnames
                0x000065f7       0x1d c:/program files (x86)/microchip/xc32/v1.22/bin/../lib/gcc/pic32mx/4.5.2/../../../../pic32mx/lib/mips16\libc.a(strstr.o)
 .debug_pubnames
                0x00006614       0x1d c:/program files (x86)/microchip/xc32/v1.22/bin/../lib/gcc/pic32mx/4.5.2/../../../../pic32mx/lib/mips16\libc.a(strtok.o)
 .debug_pubnames
                0x00006631       0x29 c:/program files (x86)/microchip/xc32/v1.22/bin/../lib/gcc/pic32mx/4.5.2/../../../../pic32mx/lib/mips16\libc.a(strtol.o)
 .debug_pubnames
                0x0000665a       0x1b c:/program files (x86)/microchip/xc32/v1.22/bin/../lib/gcc/pic32mx/4.5.2/../../../../pic32mx/lib/mips16\libc.a(exit.o)
 .debug_pubnames
                0x00006675       0x1f c:/program files (x86)/microchip/xc32/v1.22/bin/../lib/gcc/pic32mx/4.5.2/../../../../pic32mx/lib/mips16\libc.a(doprnt.o)
 .debug_pubnames
                0x00006694       0x27 c:/program files (x86)/microchip/xc32/v1.22/bin/../lib/gcc/pic32mx/4.5.2/../../../../pic32mx/lib/mips16\libc.a(printf_cdnopuxX.eo)
 .debug_pubnames
                0x000066bb       0x29 c:/program files (x86)/microchip/xc32/v1.22/bin/../lib/gcc/pic32mx/4.5.2/../../../../pic32mx/lib/mips16\libc.a(sprintf_cdnopsuxX.eo)
 .debug_pubnames
                0x000066e4       0x20 c:/program files (x86)/microchip/xc32/v1.22/bin/../lib/gcc/pic32mx/4.5.2/../../../../pic32mx/lib/mips16\libc.a(vsnprintf.o)
 .debug_pubnames
                0x00006704       0x1e c:/program files (x86)/microchip/xc32/v1.22/bin/../lib/gcc/pic32mx/4.5.2/../../../../pic32mx/lib/mips16\libc.a(_flsbuf_simple.o)
 .debug_pubnames
                0x00006722       0x1f c:/program files (x86)/microchip/xc32/v1.22/bin/../lib/gcc/pic32mx/4.5.2/../../../../pic32mx/lib/mips16\libc.a(stdclean_simple.o)
 .debug_pubnames
                0x00006741       0x1d c:/program files (x86)/microchip/xc32/v1.22/bin/../lib/gcc/pic32mx/4.5.2/../../../../pic32mx/lib/mips16\libc.a(fflush.o)
 .debug_pubnames
                0x0000675e       0x1c c:/program files (x86)/microchip/xc32/v1.22/bin/../lib/gcc/pic32mx/4.5.2/../../../../pic32mx/lib/mips16\libc.a(fgetc.o)
 .debug_pubnames
                0x0000677a       0x1e c:/program files (x86)/microchip/xc32/v1.22/bin/../lib/gcc/pic32mx/4.5.2/../../../../pic32mx/lib/mips16\libc.a(strcspn.o)
 .debug_pubnames
                0x00006798       0x1e c:/program files (x86)/microchip/xc32/v1.22/bin/../lib/gcc/pic32mx/4.5.2/../../../../pic32mx/lib/mips16\libc.a(strncmp.o)
 .debug_pubnames
                0x000067b6       0x1d c:/program files (x86)/microchip/xc32/v1.22/bin/../lib/gcc/pic32mx/4.5.2/../../../../pic32mx/lib/mips16\libc.a(strspn.o)
 .debug_pubnames
                0x000067d3       0x2a c:/program files (x86)/microchip/xc32/v1.22/bin/../lib/gcc/pic32mx/4.5.2/../../../../pic32mx/lib/mips16\libc.a(doprnt_cdnopsuxX.eo)
 .debug_pubnames
                0x000067fd       0x1e c:/program files (x86)/microchip/xc32/v1.22/bin/../lib/gcc/pic32mx/4.5.2/../../../../pic32mx/lib/mips16\libc.a(filbuf.o)
 .debug_pubnames
                0x0000681b       0x5c c:/program files (x86)/microchip/xc32/v1.22/bin/../lib/gcc/pic32mx/4.5.2/../../../../pic32mx/lib/mips16\libpic32.a(sbrk.o)
 .debug_pubnames
                0x00006877       0x1b c:/program files (x86)/microchip/xc32/v1.22/bin/../lib/gcc/pic32mx/4.5.2/../../../../pic32mx/lib/mips16\libpic32.a(read.o)
 .debug_pubnames
                0x00006892       0x1c c:/program files (x86)/microchip/xc32/v1.22/bin/../lib/gcc/pic32mx/4.5.2/../../../../pic32mx/lib/mips16\libpic32.a(write.o)
 .debug_pubnames
                0x000068ae       0x1c c:/program files (x86)/microchip/xc32/v1.22/bin/../lib/gcc/pic32mx/4.5.2/../../../../pic32mx/lib/mips16\libpic32.a(lseek.o)
 .debug_pubnames
                0x000068ca       0x20 c:/program files (x86)/microchip/xc32/v1.22/bin/../lib/gcc/pic32mx/4.5.2/../../../../pic32mx/lib/mips16\libpic32.a(_mon_putc.o)
 .debug_pubnames
                0x000068ea       0x21 c:/program files (x86)/microchip/xc32/v1.22/bin/../lib/gcc/pic32mx/4.5.2/../../../../pic32mx/lib/mips16\libe.a(_unorddf2.o)
 .debug_pubnames
                0x0000690b       0x1f c:/program files (x86)/microchip/xc32/v1.22/bin/../lib/gcc/pic32mx/4.5.2/../../../../pic32mx/lib/mips16\libe.a(_strtod.o)
 .debug_pubnames
                0x0000692a       0x1e c:/program files (x86)/microchip/xc32/v1.22/bin/../lib/gcc/pic32mx/4.5.2/../../../../pic32mx/lib/mips16\libe.a(_ldexp.o)
 .debug_pubnames
                0x00006948       0x20 c:/program files (x86)/microchip/xc32/v1.22/bin/../lib/gcc/pic32mx/4.5.2/mips16\libgcc.a(_lshrdi3.o)
 .debug_pubnames
                0x00006968       0x24 c:/program files (x86)/microchip/xc32/v1.22/bin/../lib/gcc/pic32mx/4.5.2/mips16\libgcc.a(_floatundisf.o)
 .debug_pubnames
                0x0000698c       0x24 c:/program files (x86)/microchip/xc32/v1.22/bin/../lib/gcc/pic32mx/4.5.2/mips16\libgcc.a(floatunsisf.o)

.debug_info     0x00000000    0x81653
 *(.debug_info .gnu.linkonce.wi.*)
 .debug_info    0x00000000     0x20a4 build/default/production/_ext/454704213/analog.o
 .debug_info    0x000020a4     0x3b5e build/default/production/_ext/454704213/iosetting.o
 .debug_info    0x00005c02     0x1237 build/default/production/_ext/454704213/TimeDelay.o
 .debug_info    0x00006e39     0x1840 build/default/production/_ext/454704213/usb_config.o
 .debug_info    0x00008679     0x183c build/default/production/_ext/454704213/usb_descriptors.o
 .debug_info    0x00009eb5     0x45a6 build/default/production/_ext/454704213/osc.o
 .debug_info    0x0000e45b     0x1528 build/default/production/_ext/454704213/sram.o
 .debug_info    0x0000f983     0x1d11 build/default/production/_ext/1340694758/ARP.o
 .debug_info    0x00011694     0x2123 build/default/production/_ext/1340694758/DHCP.o
 .debug_info    0x000137b7     0x22c4 build/default/production/_ext/1340694758/DHCPs.o
 .debug_info    0x00015a7b     0x2680 build/default/production/_ext/1340694758/ETHPIC32ExtPhy.o
 .debug_info    0x000180fb     0x16a4 build/default/production/_ext/1340694758/ETHPIC32ExtPhyDP83848.o
 .debug_info    0x0001979f     0x2ec5 build/default/production/_ext/1340694758/ETHPIC32IntMac.o
 .debug_info    0x0001c664     0x2481 build/default/production/_ext/1340694758/Helpers.o
 .debug_info    0x0001eae5     0x1753 build/default/production/_ext/1340694758/ICMP.o
 .debug_info    0x00020238     0x1b3f build/default/production/_ext/1340694758/IP.o
 .debug_info    0x00021d77     0x115b build/default/production/_ext/1340694758/NBNS.o
 .debug_info    0x00022ed2     0x1a4a build/default/production/_ext/1340694758/StackTsk.o
 .debug_info    0x0002491c     0x1c6d build/default/production/_ext/1340694758/Tick.o
 .debug_info    0x00026589     0x21eb build/default/production/_ext/1340694758/UDP.o
 .debug_info    0x00028774     0x1226 build/default/production/_ext/1340694758/ZeroconfHelper.o
 .debug_info    0x0002999a     0x1fa0 build/default/production/_ext/1340694758/ZeroconfLinkLocal.o
 .debug_info    0x0002b93a     0x3207 build/default/production/_ext/1340694758/ZeroconfMulticastDNS.o
 .debug_info    0x0002eb41     0x3b3e build/default/production/_ext/1798056102/usb_device.o
 .debug_info    0x0003267f     0x1cb9 build/default/production/_ext/1798056102/usb_function_hid.o
 .debug_info    0x00034338     0x4c2d build/default/production/_ext/1798056102/usb_host.o
 .debug_info    0x00038f65     0x293b build/default/production/_ext/1798056102/usb_host_cdc.o
 .debug_info    0x0003b8a0     0x1a4b build/default/production/_ext/1798056102/usb_host_cdc_interface.o
 .debug_info    0x0003d2eb     0x321b build/default/production/_ext/1798056102/usb_host_hid.o
 .debug_info    0x00040506     0x26c8 build/default/production/_ext/1798056102/usb_host_hid_parser.o
 .debug_info    0x00042bce     0x1a93 build/default/production/_ext/1798056102/usb_host_midi.o
 .debug_info    0x00044661     0x8382 build/default/production/picrouter.o
 .debug_info    0x0004c9e3      0x163 build/default/production/mrb_picrouter.o
 .debug_info    0x0004cb46     0x418e ..\mruby-1.0.0\build\PICrouter\lib\libmruby.a(class.o)
 .debug_info    0x00050cd4     0x1d89 ..\mruby-1.0.0\build\PICrouter\lib\libmruby.a(error.o)
 .debug_info    0x00052a5d     0x299e ..\mruby-1.0.0\build\PICrouter\lib\libmruby.a(gc.o)
 .debug_info    0x000553fb     0x26f1 ..\mruby-1.0.0\build\PICrouter\lib\libmruby.a(hash.o)
 .debug_info    0x00057aec     0x2a69 ..\mruby-1.0.0\build\PICrouter\lib\libmruby.a(kernel.o)
 .debug_info    0x0005a555     0x2833 ..\mruby-1.0.0\build\PICrouter\lib\libmruby.a(load.o)
 .debug_info    0x0005cd88     0x1a89 ..\mruby-1.0.0\build\PICrouter\lib\libmruby.a(object.o)
 .debug_info    0x0005e811      0xfeb ..\mruby-1.0.0\build\PICrouter\lib\libmruby.a(print.o)
 .debug_info    0x0005f7fc     0x1a13 ..\mruby-1.0.0\build\PICrouter\lib\libmruby.a(proc.o)
 .debug_info    0x0006120f     0x14ce ..\mruby-1.0.0\build\PICrouter\lib\libmruby.a(state.o)
 .debug_info    0x000626dd     0x3969 ..\mruby-1.0.0\build\PICrouter\lib\libmruby.a(string.o)
 .debug_info    0x00066046     0x1cbb ..\mruby-1.0.0\build\PICrouter\lib\libmruby.a(symbol.o)
 .debug_info    0x00067d01     0x2ea6 ..\mruby-1.0.0\build\PICrouter\lib\libmruby.a(variable.o)
 .debug_info    0x0006aba7     0x3647 ..\mruby-1.0.0\build\PICrouter\lib\libmruby.a(vm.o)
 .debug_info    0x0006e1ee     0x2979 ..\mruby-1.0.0\build\PICrouter\lib\libmruby.a(array.o)
 .debug_info    0x00070b67     0x1803 ..\mruby-1.0.0\build\PICrouter\lib\libmruby.a(backtrace.o)
 .debug_info    0x0007236a      0x1f5 ..\mruby-1.0.0\build\PICrouter\lib\libmruby.a(crc.o)
 .debug_info    0x0007255f     0x1324 ..\mruby-1.0.0\build\PICrouter\lib\libmruby.a(debug.o)
 .debug_info    0x00073883     0x124f ..\mruby-1.0.0\build\PICrouter\lib\libmruby.a(etc.o)
 .debug_info    0x00074ad2      0xcd0 ..\mruby-1.0.0\build\PICrouter\lib\libmruby.a(init.o)
 .debug_info    0x000757a2     0x21db ..\mruby-1.0.0\build\PICrouter\lib\libmruby.a(numeric.o)
 .debug_info    0x0007797d     0x168f ..\mruby-1.0.0\build\PICrouter\lib\libmruby.a(range.o)
 .debug_info    0x0007900c      0xcf5 ..\mruby-1.0.0\build\PICrouter\lib\libmruby.a(mrblib.o)
 .debug_info    0x00079d01      0xca8 ..\mruby-1.0.0\build\PICrouter\lib\libmruby.a(compar.o)
 .debug_info    0x0007a9a9      0xca6 ..\mruby-1.0.0\build\PICrouter\lib\libmruby.a(enum.o)
 .debug_info    0x0007b64f       0xaa c:/program files (x86)/microchip/xc32/v1.22/bin/../lib/gcc/pic32mx/4.5.2/../../../../pic32mx/lib/mips16\libmchp_peripheral.a(read_core_timer_lib.o)
 .debug_info    0x0007b6f9      0x16b c:/program files (x86)/microchip/xc32/v1.22/bin/../lib/gcc/pic32mx/4.5.2/../../../../pic32mx/lib/mips16\libmchp_peripheral_32MX795F512H.a(eth_ack_packet_lib.o)
 .debug_info    0x0007b864       0xf2 c:/program files (x86)/microchip/xc32/v1.22/bin/../lib/gcc/pic32mx/4.5.2/../../../../pic32mx/lib/mips16\libmchp_peripheral_32MX795F512H.a(eth_descriptors_add_lib.o)
 .debug_info    0x0007b956       0xbe c:/program files (x86)/microchip/xc32/v1.22/bin/../lib/gcc/pic32mx/4.5.2/../../../../pic32mx/lib/mips16\libmchp_peripheral_32MX795F512H.a(eth_init_lib.o)
 .debug_info    0x0007ba14       0xa2 c:/program files (x86)/microchip/xc32/v1.22/bin/../lib/gcc/pic32mx/4.5.2/../../../../pic32mx/lib/mips16\libmchp_peripheral_32MX795F512H.a(eth_mac_open_lib.o)
 .debug_info    0x0007bab6       0xf2 c:/program files (x86)/microchip/xc32/v1.22/bin/../lib/gcc/pic32mx/4.5.2/../../../../pic32mx/lib/mips16\libmchp_peripheral_32MX795F512H.a(eth_mac_set_address_max_lib.o)
 .debug_info    0x0007bba8       0xe6 c:/program files (x86)/microchip/xc32/v1.22/bin/../lib/gcc/pic32mx/4.5.2/../../../../pic32mx/lib/mips16\libmchp_peripheral_32MX795F512H.a(eth_rx_buffers_append_lib.o)
 .debug_info    0x0007bc8e      0x147 c:/program files (x86)/microchip/xc32/v1.22/bin/../lib/gcc/pic32mx/4.5.2/../../../../pic32mx/lib/mips16\libmchp_peripheral_32MX795F512H.a(eth_rx_filters_lib.o)
 .debug_info    0x0007bdd5       0xc8 c:/program files (x86)/microchip/xc32/v1.22/bin/../lib/gcc/pic32mx/4.5.2/../../../../pic32mx/lib/mips16\libmchp_peripheral_32MX795F512H.a(eth_rx_get_packet_lib.o)
 .debug_info    0x0007be9d       0xb4 c:/program files (x86)/microchip/xc32/v1.22/bin/../lib/gcc/pic32mx/4.5.2/../../../../pic32mx/lib/mips16\libmchp_peripheral_32MX795F512H.a(eth_rx_set_buffer_size_lib.o)
 .debug_info    0x0007bf51      0x176 c:/program files (x86)/microchip/xc32/v1.22/bin/../lib/gcc/pic32mx/4.5.2/../../../../pic32mx/lib/mips16\libmchp_peripheral_32MX795F512H.a(eth_tx_packet_lib.o)
 .debug_info    0x0007c0c7       0xd4 c:/program files (x86)/microchip/xc32/v1.22/bin/../lib/gcc/pic32mx/4.5.2/../../../../pic32mx/lib/mips16\libmchp_peripheral_32MX795F512H.a(_eth_append_busy_list_lib.o)
 .debug_info    0x0007c19b      0x143 c:/program files (x86)/microchip/xc32/v1.22/bin/../lib/gcc/pic32mx/4.5.2/../../../../pic32mx/lib/mips16\libmchp_peripheral_32MX795F512H.a(eth_miim_access.o)
 .debug_info    0x0007c2de       0xb2 c:/program files (x86)/microchip/xc32/v1.22/bin/../lib/gcc/pic32mx/4.5.2/../../../../pic32mx/lib/mips16\libmchp_peripheral_32MX795F512H.a(soft_reset_lib.o)
 .debug_info    0x0007c390       0xbf c:/program files (x86)/microchip/xc32/v1.22/bin/../lib/gcc/pic32mx/4.5.2/../../../../pic32mx/lib/mips16\libmchp_peripheral_32MX795F512H.a(pcache.o)
 .debug_info    0x0007c44f       0xb6 c:/program files (x86)/microchip/xc32/v1.22/bin/../lib/gcc/pic32mx/4.5.2/../../../../pic32mx/lib/mips16\libmchp_peripheral_32MX795F512H.a(int_disable_interrupts_lib.o)
 .debug_info    0x0007c505       0xb6 c:/program files (x86)/microchip/xc32/v1.22/bin/../lib/gcc/pic32mx/4.5.2/../../../../pic32mx/lib/mips16\libmchp_peripheral_32MX795F512H.a(int_restore_interrupts_lib.o)
 .debug_info    0x0007c5bb       0xbc c:/program files (x86)/microchip/xc32/v1.22/bin/../lib/gcc/pic32mx/4.5.2/../../../../pic32mx/lib/mips16\libmchp_peripheral_32MX795F512H.a(int_enable_mv_int_lib.o)
 .debug_info    0x0007c677      0x196 c:/program files (x86)/microchip/xc32/v1.22/bin/../lib/gcc/pic32mx/4.5.2/../../../../pic32mx/lib/mips16\libmchp_peripheral_32MX795F512H.a(int_tbl_lib.o)
 .debug_info    0x0007c80d       0xa4 c:/program files (x86)/microchip/xc32/v1.22/bin/../lib/gcc/pic32mx/4.5.2/../../../../pic32mx/lib/mips16\libmchp_peripheral_32MX795F512H.a(spi_chn_close_lib.o)
 .debug_info    0x0007c8b1       0xa2 c:/program files (x86)/microchip/xc32/v1.22/bin/../lib/gcc/pic32mx/4.5.2/../../../../pic32mx/lib/mips16\libmchp_peripheral_32MX795F512H.a(spi_chn_open_lib.o)
 .debug_info    0x0007c953        0x0 c:/program files (x86)/microchip/xc32/v1.22/bin/../lib/gcc/pic32mx/4.5.2/../../../../pic32mx/lib/mips16\libmchp_peripheral_32MX795F512H.a(spi_io_tbl_libp.o)
 .debug_info    0x0007c953        0x0 c:/program files (x86)/microchip/xc32/v1.22/bin/../lib/gcc/pic32mx/4.5.2/../../../../pic32mx/lib/mips16\libmchp_peripheral_32MX795F512H.a(spi_map_tbl_libp.o)
 .debug_info    0x0007c953       0xa8 c:/program files (x86)/microchip/xc32/v1.22/bin/../lib/gcc/pic32mx/4.5.2/../../../../pic32mx/lib/mips16\libmchp_peripheral_32MX795F512H.a(spi_getc_spi2_lib_legacy.o)
 .debug_info    0x0007c9fb       0xa6 c:/program files (x86)/microchip/xc32/v1.22/bin/../lib/gcc/pic32mx/4.5.2/../../../../pic32mx/lib/mips16\libmchp_peripheral_32MX795F512H.a(nvm_erase_page_lib.o)
 .debug_info    0x0007caa1       0xc7 c:/program files (x86)/microchip/xc32/v1.22/bin/../lib/gcc/pic32mx/4.5.2/../../../../pic32mx/lib/mips16\libmchp_peripheral_32MX795F512H.a(nvm_operation_lib.o)
 .debug_info    0x0007cb68       0xa6 c:/program files (x86)/microchip/xc32/v1.22/bin/../lib/gcc/pic32mx/4.5.2/../../../../pic32mx/lib/mips16\libmchp_peripheral_32MX795F512H.a(nvm_write_word_lib.o)
 .debug_info    0x0007cc0e       0xaa c:/program files (x86)/microchip/xc32/v1.22/bin/../lib/gcc/pic32mx/4.5.2/../../../../pic32mx/lib/mips16\libmchp_peripheral_32MX795F512H.a(port_reset_pins_lib.o)
 .debug_info    0x0007ccb8       0xba c:/program files (x86)/microchip/xc32/v1.22/bin/../lib/gcc/pic32mx/4.5.2/../../../../pic32mx/lib/mips16\libmchp_peripheral_32MX795F512H.a(port_set_pins_digital_in_lib.o)
 .debug_info    0x0007cd72       0xbc c:/program files (x86)/microchip/xc32/v1.22/bin/../lib/gcc/pic32mx/4.5.2/../../../../pic32mx/lib/mips16\libmchp_peripheral_32MX795F512H.a(port_set_pins_digital_out_lib.o)
 .debug_info    0x0007ce2e        0x0 c:/program files (x86)/microchip/xc32/v1.22/bin/../lib/gcc/pic32mx/4.5.2/../../../../pic32mx/lib/mips16\libmchp_peripheral_32MX795F512H.a(_ports_tbl_libp.o)
 .debug_info    0x0007ce2e       0xa0 c:/program files (x86)/microchip/xc32/v1.22/bin/../lib/gcc/pic32mx/4.5.2/../../../../pic32mx/lib/mips16\libmchp_peripheral_32MX795F512H.a(I2CConfigure.o)
 .debug_info    0x0007cece       0x9a c:/program files (x86)/microchip/xc32/v1.22/bin/../lib/gcc/pic32mx/4.5.2/../../../../pic32mx/lib/mips16\libmchp_peripheral_32MX795F512H.a(I2CEnable.o)
 .debug_info    0x0007cf68       0xa6 c:/program files (x86)/microchip/xc32/v1.22/bin/../lib/gcc/pic32mx/4.5.2/../../../../pic32mx/lib/mips16\libmchp_peripheral_32MX795F512H.a(I2CSetFrequency.o)
 .debug_info    0x0007d00e       0xac c:/program files (x86)/microchip/xc32/v1.22/bin/../lib/gcc/pic32mx/4.5.2/../../../../pic32mx/lib/mips16\libmchp_peripheral_32MX795F512H.a(I2CSetSlaveAddress.o)
 .debug_info    0x0007d0ba       0xb4 c:/program files (x86)/microchip/xc32/v1.22/bin/../lib/gcc/pic32mx/4.5.2/../../../../pic32mx/lib/mips16\libmchp_peripheral_32MX795F512H.a(int_enable_interrupts_lib.o)
 .debug_info    0x0007d16e        0x0 c:/program files (x86)/microchip/xc32/v1.22/bin/../lib/gcc/pic32mx/4.5.2/../../../../pic32mx/lib/mips16\libmchp_peripheral_32MX795F512H.a(I2CPrivate.o)
 .debug_info    0x0007d16e      0x311 c:/program files (x86)/microchip/xc32/v1.22/bin/../lib/gcc/pic32mx/4.5.2/mips16\libgcc.a(_floatdisf.o)
 .debug_info    0x0007d47f      0x86e c:/program files (x86)/microchip/xc32/v1.22/bin/../lib/gcc/pic32mx/4.5.2/mips16\libgcc.a(_udivdi3.o)
 .debug_info    0x0007dced      0x8bf c:/program files (x86)/microchip/xc32/v1.22/bin/../lib/gcc/pic32mx/4.5.2/mips16\libgcc.a(_umoddi3.o)
 .debug_info    0x0007e5ac      0x228 c:/program files (x86)/microchip/xc32/v1.22/bin/../lib/gcc/pic32mx/4.5.2/mips16\libgcc.a(_clz.o)
 .debug_info    0x0007e7d4       0xde c:/program files (x86)/microchip/xc32/v1.22/bin/../lib/gcc/pic32mx/4.5.2/../../../../pic32mx/lib/mips16\libpic32.a(default-bootstrap-exception-handler.o)
 .debug_info    0x0007e8b2       0xb8 c:/program files (x86)/microchip/xc32/v1.22/bin/../lib/gcc/pic32mx/4.5.2/../../../../pic32mx/lib/mips16\libpic32.a(default-on-reset.o)
 .debug_info    0x0007e96a       0xc0 c:/program files (x86)/microchip/xc32/v1.22/bin/../lib/gcc/pic32mx/4.5.2/../../../../pic32mx/lib/mips16\libpic32.a(default-on-bootstrap.o)
 .debug_info    0x0007ea2a        0x0 c:/program files (x86)/microchip/xc32/v1.22/bin/../lib/gcc/pic32mx/4.5.2/../../../../pic32mx/lib/mips16\libpic32.a(errno.o)
 .debug_info    0x0007ea2a       0xa6 c:/program files (x86)/microchip/xc32/v1.22/bin/../lib/gcc/pic32mx/4.5.2/../../../../pic32mx/lib/mips16\libm.a(w_powf.o)
 .debug_info    0x0007ead0       0xaa c:/program files (x86)/microchip/xc32/v1.22/bin/../lib/gcc/pic32mx/4.5.2/../../../../pic32mx/lib/mips16\libm.a(w_log10f.o)
 .debug_info    0x0007eb7a        0x0 c:/program files (x86)/microchip/xc32/v1.22/bin/../lib/gcc/pic32mx/4.5.2/../../../../pic32mx/lib/mips16\libm.a(s_lib_ver.o)
 .debug_info    0x0007eb7a       0xc3 c:/program files (x86)/microchip/xc32/v1.22/bin/../lib/gcc/pic32mx/4.5.2/../../../../pic32mx/lib/mips16\libe.a(_unordsf2.o)
 .debug_info    0x0007ec3d      0x111 c:/program files (x86)/microchip/xc32/v1.22/bin/../lib/gcc/pic32mx/4.5.2/../../../../pic32mx/lib/mips16\libpic32.a(isinf.o)
 .debug_info    0x0007ed4e        0x0 c:/program files (x86)/microchip/xc32/v1.22/bin/../lib/gcc/pic32mx/4.5.2/../../../../pic32mx/lib/mips16\libc.a(_iob.o)
 .debug_info    0x0007ed4e       0xaf c:/program files (x86)/microchip/xc32/v1.22/bin/../lib/gcc/pic32mx/4.5.2/../../../../pic32mx/lib/mips16\libc.a(_fputc_simple.o)
 .debug_info    0x0007edfd       0xaf c:/program files (x86)/microchip/xc32/v1.22/bin/../lib/gcc/pic32mx/4.5.2/../../../../pic32mx/lib/mips16\libc.a(fread.o)
 .debug_info    0x0007eeac       0xdd c:/program files (x86)/microchip/xc32/v1.22/bin/../lib/gcc/pic32mx/4.5.2/../../../../pic32mx/lib/mips16\libc.a(fseek.o)
 .debug_info    0x0007ef89       0xb1 c:/program files (x86)/microchip/xc32/v1.22/bin/../lib/gcc/pic32mx/4.5.2/../../../../pic32mx/lib/mips16\libc.a(fwrite.o)
 .debug_info    0x0007f03a       0xad c:/program files (x86)/microchip/xc32/v1.22/bin/../lib/gcc/pic32mx/4.5.2/../../../../pic32mx/lib/mips16\libc.a(atoi.o)
 .debug_info    0x0007f0e7       0xb1 c:/program files (x86)/microchip/xc32/v1.22/bin/../lib/gcc/pic32mx/4.5.2/../../../../pic32mx/lib/mips16\libc.a(calloc.o)
 .debug_info    0x0007f198        0x0 c:/program files (x86)/microchip/xc32/v1.22/bin/../lib/gcc/pic32mx/4.5.2/../../../../pic32mx/lib/mips16\libc.a(ctype.o)
 .debug_info    0x0007f198      0x215 c:/program files (x86)/microchip/xc32/v1.22/bin/../lib/gcc/pic32mx/4.5.2/../../../../pic32mx/lib/mips16\libc.a(ctypef.o)
 .debug_info    0x0007f3ad       0xda c:/program files (x86)/microchip/xc32/v1.22/bin/../lib/gcc/pic32mx/4.5.2/../../../../pic32mx/lib/mips16\libc.a(malloc.o)
 .debug_info    0x0007f487       0xb1 c:/program files (x86)/microchip/xc32/v1.22/bin/../lib/gcc/pic32mx/4.5.2/../../../../pic32mx/lib/mips16\libc.a(memchr.o)
 .debug_info    0x0007f538       0xb1 c:/program files (x86)/microchip/xc32/v1.22/bin/../lib/gcc/pic32mx/4.5.2/../../../../pic32mx/lib/mips16\libc.a(memcmp.o)
 .debug_info    0x0007f5e9       0xb1 c:/program files (x86)/microchip/xc32/v1.22/bin/../lib/gcc/pic32mx/4.5.2/../../../../pic32mx/lib/mips16\libc.a(memcpy.o)
 .debug_info    0x0007f69a       0xb3 c:/program files (x86)/microchip/xc32/v1.22/bin/../lib/gcc/pic32mx/4.5.2/../../../../pic32mx/lib/mips16\libc.a(memmove.o)
 .debug_info    0x0007f74d       0xb1 c:/program files (x86)/microchip/xc32/v1.22/bin/../lib/gcc/pic32mx/4.5.2/../../../../pic32mx/lib/mips16\libc.a(memset.o)
 .debug_info    0x0007f7fe       0xd9 c:/program files (x86)/microchip/xc32/v1.22/bin/../lib/gcc/pic32mx/4.5.2/../../../../pic32mx/lib/mips16\libc.a(signal.o)
 .debug_info    0x0007f8d7       0xb1 c:/program files (x86)/microchip/xc32/v1.22/bin/../lib/gcc/pic32mx/4.5.2/../../../../pic32mx/lib/mips16\libc.a(strchr.o)
 .debug_info    0x0007f988       0xb1 c:/program files (x86)/microchip/xc32/v1.22/bin/../lib/gcc/pic32mx/4.5.2/../../../../pic32mx/lib/mips16\libc.a(strcmp.o)
 .debug_info    0x0007fa39       0xb1 c:/program files (x86)/microchip/xc32/v1.22/bin/../lib/gcc/pic32mx/4.5.2/../../../../pic32mx/lib/mips16\libc.a(strlen.o)
 .debug_info    0x0007faea       0xb3 c:/program files (x86)/microchip/xc32/v1.22/bin/../lib/gcc/pic32mx/4.5.2/../../../../pic32mx/lib/mips16\libc.a(strncpy.o)
 .debug_info    0x0007fb9d       0xe0 c:/program files (x86)/microchip/xc32/v1.22/bin/../lib/gcc/pic32mx/4.5.2/../../../../pic32mx/lib/mips16\libc.a(strtod.o)
 .debug_info    0x0007fc7d       0xb1 c:/program files (x86)/microchip/xc32/v1.22/bin/../lib/gcc/pic32mx/4.5.2/../../../../pic32mx/lib/mips16\libc.a(strstr.o)
 .debug_info    0x0007fd2e       0xb1 c:/program files (x86)/microchip/xc32/v1.22/bin/../lib/gcc/pic32mx/4.5.2/../../../../pic32mx/lib/mips16\libc.a(strtok.o)
 .debug_info    0x0007fddf       0xc7 c:/program files (x86)/microchip/xc32/v1.22/bin/../lib/gcc/pic32mx/4.5.2/../../../../pic32mx/lib/mips16\libc.a(strtol.o)
 .debug_info    0x0007fea6       0xad c:/program files (x86)/microchip/xc32/v1.22/bin/../lib/gcc/pic32mx/4.5.2/../../../../pic32mx/lib/mips16\libc.a(exit.o)
 .debug_info    0x0007ff53       0xdd c:/program files (x86)/microchip/xc32/v1.22/bin/../lib/gcc/pic32mx/4.5.2/../../../../pic32mx/lib/mips16\libc.a(doprnt.o)
 .debug_info    0x00080030       0xbb c:/program files (x86)/microchip/xc32/v1.22/bin/../lib/gcc/pic32mx/4.5.2/../../../../pic32mx/lib/mips16\libc.a(printf_cdnopuxX.eo)
 .debug_info    0x000800eb       0xbe c:/program files (x86)/microchip/xc32/v1.22/bin/../lib/gcc/pic32mx/4.5.2/../../../../pic32mx/lib/mips16\libc.a(sprintf_cdnopsuxX.eo)
 .debug_info    0x000801a9       0xb7 c:/program files (x86)/microchip/xc32/v1.22/bin/../lib/gcc/pic32mx/4.5.2/../../../../pic32mx/lib/mips16\libc.a(vsnprintf.o)
 .debug_info    0x00080260       0xb2 c:/program files (x86)/microchip/xc32/v1.22/bin/../lib/gcc/pic32mx/4.5.2/../../../../pic32mx/lib/mips16\libc.a(_flsbuf_simple.o)
 .debug_info    0x00080312       0xb5 c:/program files (x86)/microchip/xc32/v1.22/bin/../lib/gcc/pic32mx/4.5.2/../../../../pic32mx/lib/mips16\libc.a(stdclean_simple.o)
 .debug_info    0x000803c7       0xb1 c:/program files (x86)/microchip/xc32/v1.22/bin/../lib/gcc/pic32mx/4.5.2/../../../../pic32mx/lib/mips16\libc.a(fflush.o)
 .debug_info    0x00080478       0xaf c:/program files (x86)/microchip/xc32/v1.22/bin/../lib/gcc/pic32mx/4.5.2/../../../../pic32mx/lib/mips16\libc.a(fgetc.o)
 .debug_info    0x00080527        0x0 c:/program files (x86)/microchip/xc32/v1.22/bin/../lib/gcc/pic32mx/4.5.2/../../../../pic32mx/lib/mips16\libc.a(powersf.o)
 .debug_info    0x00080527       0xb3 c:/program files (x86)/microchip/xc32/v1.22/bin/../lib/gcc/pic32mx/4.5.2/../../../../pic32mx/lib/mips16\libc.a(strcspn.o)
 .debug_info    0x000805da       0xb3 c:/program files (x86)/microchip/xc32/v1.22/bin/../lib/gcc/pic32mx/4.5.2/../../../../pic32mx/lib/mips16\libc.a(strncmp.o)
 .debug_info    0x0008068d       0xb1 c:/program files (x86)/microchip/xc32/v1.22/bin/../lib/gcc/pic32mx/4.5.2/../../../../pic32mx/lib/mips16\libc.a(strspn.o)
 .debug_info    0x0008073e       0xbf c:/program files (x86)/microchip/xc32/v1.22/bin/../lib/gcc/pic32mx/4.5.2/../../../../pic32mx/lib/mips16\libc.a(doprnt_cdnopsuxX.eo)
 .debug_info    0x000807fd       0xb2 c:/program files (x86)/microchip/xc32/v1.22/bin/../lib/gcc/pic32mx/4.5.2/../../../../pic32mx/lib/mips16\libc.a(filbuf.o)
 .debug_info    0x000808af      0x111 c:/program files (x86)/microchip/xc32/v1.22/bin/../lib/gcc/pic32mx/4.5.2/../../../../pic32mx/lib/mips16\libpic32.a(sbrk.o)
 .debug_info    0x000809c0       0xa7 c:/program files (x86)/microchip/xc32/v1.22/bin/../lib/gcc/pic32mx/4.5.2/../../../../pic32mx/lib/mips16\libpic32.a(read.o)
 .debug_info    0x00080a67       0xa9 c:/program files (x86)/microchip/xc32/v1.22/bin/../lib/gcc/pic32mx/4.5.2/../../../../pic32mx/lib/mips16\libpic32.a(write.o)
 .debug_info    0x00080b10       0xa9 c:/program files (x86)/microchip/xc32/v1.22/bin/../lib/gcc/pic32mx/4.5.2/../../../../pic32mx/lib/mips16\libpic32.a(lseek.o)
 .debug_info    0x00080bb9        0x0 c:/program files (x86)/microchip/xc32/v1.22/bin/../lib/gcc/pic32mx/4.5.2/../../../../pic32mx/lib/mips16\libpic32.a(xc32_uart.o)
 .debug_info    0x00080bb9       0xb1 c:/program files (x86)/microchip/xc32/v1.22/bin/../lib/gcc/pic32mx/4.5.2/../../../../pic32mx/lib/mips16\libpic32.a(_mon_putc.o)
 .debug_info    0x00080c6a       0xc2 c:/program files (x86)/microchip/xc32/v1.22/bin/../lib/gcc/pic32mx/4.5.2/../../../../pic32mx/lib/mips16\libe.a(_unorddf2.o)
 .debug_info    0x00080d2c       0xc0 c:/program files (x86)/microchip/xc32/v1.22/bin/../lib/gcc/pic32mx/4.5.2/../../../../pic32mx/lib/mips16\libe.a(_strtod.o)
 .debug_info    0x00080dec       0xd5 c:/program files (x86)/microchip/xc32/v1.22/bin/../lib/gcc/pic32mx/4.5.2/../../../../pic32mx/lib/mips16\libe.a(_ldexp.o)
 .debug_info    0x00080ec1      0x31d c:/program files (x86)/microchip/xc32/v1.22/bin/../lib/gcc/pic32mx/4.5.2/mips16\libgcc.a(_lshrdi3.o)
 .debug_info    0x000811de      0x314 c:/program files (x86)/microchip/xc32/v1.22/bin/../lib/gcc/pic32mx/4.5.2/mips16\libgcc.a(_floatundisf.o)
 .debug_info    0x000814f2      0x161 c:/program files (x86)/microchip/xc32/v1.22/bin/../lib/gcc/pic32mx/4.5.2/mips16\libgcc.a(floatunsisf.o)

.debug_abbrev   0x00000000     0xaf8e
 *(.debug_abbrev)
 .debug_abbrev  0x00000000      0x2bc build/default/production/_ext/454704213/analog.o
 .debug_abbrev  0x000002bc      0x2bc build/default/production/_ext/454704213/iosetting.o
 .debug_abbrev  0x00000578      0x1aa build/default/production/_ext/454704213/TimeDelay.o
 .debug_abbrev  0x00000722      0x205 build/default/production/_ext/454704213/usb_config.o
 .debug_abbrev  0x00000927      0x1e5 build/default/production/_ext/454704213/usb_descriptors.o
 .debug_abbrev  0x00000b0c      0x339 build/default/production/_ext/454704213/osc.o
 .debug_abbrev  0x00000e45      0x217 build/default/production/_ext/454704213/sram.o
 .debug_abbrev  0x0000105c      0x30b build/default/production/_ext/1340694758/ARP.o
 .debug_abbrev  0x00001367      0x2e6 build/default/production/_ext/1340694758/DHCP.o
 .debug_abbrev  0x0000164d      0x2ce build/default/production/_ext/1340694758/DHCPs.o
 .debug_abbrev  0x0000191b      0x386 build/default/production/_ext/1340694758/ETHPIC32ExtPhy.o
 .debug_abbrev  0x00001ca1      0x1ca build/default/production/_ext/1340694758/ETHPIC32ExtPhyDP83848.o
 .debug_abbrev  0x00001e6b      0x3e7 build/default/production/_ext/1340694758/ETHPIC32IntMac.o
 .debug_abbrev  0x00002252      0x293 build/default/production/_ext/1340694758/Helpers.o
 .debug_abbrev  0x000024e5      0x1c0 build/default/production/_ext/1340694758/ICMP.o
 .debug_abbrev  0x000026a5      0x24f build/default/production/_ext/1340694758/IP.o
 .debug_abbrev  0x000028f4      0x166 build/default/production/_ext/1340694758/NBNS.o
 .debug_abbrev  0x00002a5a      0x241 build/default/production/_ext/1340694758/StackTsk.o
 .debug_abbrev  0x00002c9b      0x228 build/default/production/_ext/1340694758/Tick.o
 .debug_abbrev  0x00002ec3      0x32d build/default/production/_ext/1340694758/UDP.o
 .debug_abbrev  0x000031f0      0x19f build/default/production/_ext/1340694758/ZeroconfHelper.o
 .debug_abbrev  0x0000338f      0x2ed build/default/production/_ext/1340694758/ZeroconfLinkLocal.o
 .debug_abbrev  0x0000367c      0x37e build/default/production/_ext/1340694758/ZeroconfMulticastDNS.o
 .debug_abbrev  0x000039fa      0x2fb build/default/production/_ext/1798056102/usb_device.o
 .debug_abbrev  0x00003cf5      0x1e3 build/default/production/_ext/1798056102/usb_function_hid.o
 .debug_abbrev  0x00003ed8      0x3aa build/default/production/_ext/1798056102/usb_host.o
 .debug_abbrev  0x00004282      0x308 build/default/production/_ext/1798056102/usb_host_cdc.o
 .debug_abbrev  0x0000458a      0x282 build/default/production/_ext/1798056102/usb_host_cdc_interface.o
 .debug_abbrev  0x0000480c      0x30f build/default/production/_ext/1798056102/usb_host_hid.o
 .debug_abbrev  0x00004b1b      0x32d build/default/production/_ext/1798056102/usb_host_hid_parser.o
 .debug_abbrev  0x00004e48      0x2be build/default/production/_ext/1798056102/usb_host_midi.o
 .debug_abbrev  0x00005106      0x56c build/default/production/picrouter.o
 .debug_abbrev  0x00005672       0x56 build/default/production/mrb_picrouter.o
 .debug_abbrev  0x000056c8      0x3c3 ..\mruby-1.0.0\build\PICrouter\lib\libmruby.a(class.o)
 .debug_abbrev  0x00005a8b      0x371 ..\mruby-1.0.0\build\PICrouter\lib\libmruby.a(error.o)
 .debug_abbrev  0x00005dfc      0x31e ..\mruby-1.0.0\build\PICrouter\lib\libmruby.a(gc.o)
 .debug_abbrev  0x0000611a      0x354 ..\mruby-1.0.0\build\PICrouter\lib\libmruby.a(hash.o)
 .debug_abbrev  0x0000646e      0x36e ..\mruby-1.0.0\build\PICrouter\lib\libmruby.a(kernel.o)
 .debug_abbrev  0x000067dc      0x38d ..\mruby-1.0.0\build\PICrouter\lib\libmruby.a(load.o)
 .debug_abbrev  0x00006b69      0x2fb ..\mruby-1.0.0\build\PICrouter\lib\libmruby.a(object.o)
 .debug_abbrev  0x00006e64      0x28d ..\mruby-1.0.0\build\PICrouter\lib\libmruby.a(print.o)
 .debug_abbrev  0x000070f1      0x2c8 ..\mruby-1.0.0\build\PICrouter\lib\libmruby.a(proc.o)
 .debug_abbrev  0x000073b9      0x2c1 ..\mruby-1.0.0\build\PICrouter\lib\libmruby.a(state.o)
 .debug_abbrev  0x0000767a      0x3c9 ..\mruby-1.0.0\build\PICrouter\lib\libmruby.a(string.o)
 .debug_abbrev  0x00007a43      0x359 ..\mruby-1.0.0\build\PICrouter\lib\libmruby.a(symbol.o)
 .debug_abbrev  0x00007d9c      0x300 ..\mruby-1.0.0\build\PICrouter\lib\libmruby.a(variable.o)
 .debug_abbrev  0x0000809c      0x375 ..\mruby-1.0.0\build\PICrouter\lib\libmruby.a(vm.o)
 .debug_abbrev  0x00008411      0x39a ..\mruby-1.0.0\build\PICrouter\lib\libmruby.a(array.o)
 .debug_abbrev  0x000087ab      0x2ef ..\mruby-1.0.0\build\PICrouter\lib\libmruby.a(backtrace.o)
 .debug_abbrev  0x00008a9a       0x7e ..\mruby-1.0.0\build\PICrouter\lib\libmruby.a(crc.o)
 .debug_abbrev  0x00008b18      0x262 ..\mruby-1.0.0\build\PICrouter\lib\libmruby.a(debug.o)
 .debug_abbrev  0x00008d7a      0x2a2 ..\mruby-1.0.0\build\PICrouter\lib\libmruby.a(etc.o)
 .debug_abbrev  0x0000901c      0x1a9 ..\mruby-1.0.0\build\PICrouter\lib\libmruby.a(init.o)
 .debug_abbrev  0x000091c5      0x2f2 ..\mruby-1.0.0\build\PICrouter\lib\libmruby.a(numeric.o)
 .debug_abbrev  0x000094b7      0x2bf ..\mruby-1.0.0\build\PICrouter\lib\libmruby.a(range.o)
 .debug_abbrev  0x00009776      0x1c0 ..\mruby-1.0.0\build\PICrouter\lib\libmruby.a(mrblib.o)
 .debug_abbrev  0x00009936      0x183 ..\mruby-1.0.0\build\PICrouter\lib\libmruby.a(compar.o)
 .debug_abbrev  0x00009ab9      0x183 ..\mruby-1.0.0\build\PICrouter\lib\libmruby.a(enum.o)
 .debug_abbrev  0x00009c3c       0x25 c:/program files (x86)/microchip/xc32/v1.22/bin/../lib/gcc/pic32mx/4.5.2/../../../../pic32mx/lib/mips16\libmchp_peripheral.a(read_core_timer_lib.o)
 .debug_abbrev  0x00009c61       0x58 c:/program files (x86)/microchip/xc32/v1.22/bin/../lib/gcc/pic32mx/4.5.2/../../../../pic32mx/lib/mips16\libmchp_peripheral_32MX795F512H.a(eth_ack_packet_lib.o)
 .debug_abbrev  0x00009cb9       0x34 c:/program files (x86)/microchip/xc32/v1.22/bin/../lib/gcc/pic32mx/4.5.2/../../../../pic32mx/lib/mips16\libmchp_peripheral_32MX795F512H.a(eth_descriptors_add_lib.o)
 .debug_abbrev  0x00009ced       0x34 c:/program files (x86)/microchip/xc32/v1.22/bin/../lib/gcc/pic32mx/4.5.2/../../../../pic32mx/lib/mips16\libmchp_peripheral_32MX795F512H.a(eth_init_lib.o)
 .debug_abbrev  0x00009d21       0x25 c:/program files (x86)/microchip/xc32/v1.22/bin/../lib/gcc/pic32mx/4.5.2/../../../../pic32mx/lib/mips16\libmchp_peripheral_32MX795F512H.a(eth_mac_open_lib.o)
 .debug_abbrev  0x00009d46       0x25 c:/program files (x86)/microchip/xc32/v1.22/bin/../lib/gcc/pic32mx/4.5.2/../../../../pic32mx/lib/mips16\libmchp_peripheral_32MX795F512H.a(eth_mac_set_address_max_lib.o)
 .debug_abbrev  0x00009d6b       0x34 c:/program files (x86)/microchip/xc32/v1.22/bin/../lib/gcc/pic32mx/4.5.2/../../../../pic32mx/lib/mips16\libmchp_peripheral_32MX795F512H.a(eth_rx_buffers_append_lib.o)
 .debug_abbrev  0x00009d9f       0x25 c:/program files (x86)/microchip/xc32/v1.22/bin/../lib/gcc/pic32mx/4.5.2/../../../../pic32mx/lib/mips16\libmchp_peripheral_32MX795F512H.a(eth_rx_filters_lib.o)
 .debug_abbrev  0x00009dc4       0x25 c:/program files (x86)/microchip/xc32/v1.22/bin/../lib/gcc/pic32mx/4.5.2/../../../../pic32mx/lib/mips16\libmchp_peripheral_32MX795F512H.a(eth_rx_get_packet_lib.o)
 .debug_abbrev  0x00009de9       0x25 c:/program files (x86)/microchip/xc32/v1.22/bin/../lib/gcc/pic32mx/4.5.2/../../../../pic32mx/lib/mips16\libmchp_peripheral_32MX795F512H.a(eth_rx_set_buffer_size_lib.o)
 .debug_abbrev  0x00009e0e       0x58 c:/program files (x86)/microchip/xc32/v1.22/bin/../lib/gcc/pic32mx/4.5.2/../../../../pic32mx/lib/mips16\libmchp_peripheral_32MX795F512H.a(eth_tx_packet_lib.o)
 .debug_abbrev  0x00009e66       0x34 c:/program files (x86)/microchip/xc32/v1.22/bin/../lib/gcc/pic32mx/4.5.2/../../../../pic32mx/lib/mips16\libmchp_peripheral_32MX795F512H.a(_eth_append_busy_list_lib.o)
 .debug_abbrev  0x00009e9a       0x38 c:/program files (x86)/microchip/xc32/v1.22/bin/../lib/gcc/pic32mx/4.5.2/../../../../pic32mx/lib/mips16\libmchp_peripheral_32MX795F512H.a(eth_miim_access.o)
 .debug_abbrev  0x00009ed2       0x34 c:/program files (x86)/microchip/xc32/v1.22/bin/../lib/gcc/pic32mx/4.5.2/../../../../pic32mx/lib/mips16\libmchp_peripheral_32MX795F512H.a(soft_reset_lib.o)
 .debug_abbrev  0x00009f06       0x25 c:/program files (x86)/microchip/xc32/v1.22/bin/../lib/gcc/pic32mx/4.5.2/../../../../pic32mx/lib/mips16\libmchp_peripheral_32MX795F512H.a(pcache.o)
 .debug_abbrev  0x00009f2b       0x25 c:/program files (x86)/microchip/xc32/v1.22/bin/../lib/gcc/pic32mx/4.5.2/../../../../pic32mx/lib/mips16\libmchp_peripheral_32MX795F512H.a(int_disable_interrupts_lib.o)
 .debug_abbrev  0x00009f50       0x25 c:/program files (x86)/microchip/xc32/v1.22/bin/../lib/gcc/pic32mx/4.5.2/../../../../pic32mx/lib/mips16\libmchp_peripheral_32MX795F512H.a(int_restore_interrupts_lib.o)
 .debug_abbrev  0x00009f75       0x25 c:/program files (x86)/microchip/xc32/v1.22/bin/../lib/gcc/pic32mx/4.5.2/../../../../pic32mx/lib/mips16\libmchp_peripheral_32MX795F512H.a(int_enable_mv_int_lib.o)
 .debug_abbrev  0x00009f9a       0x25 c:/program files (x86)/microchip/xc32/v1.22/bin/../lib/gcc/pic32mx/4.5.2/../../../../pic32mx/lib/mips16\libmchp_peripheral_32MX795F512H.a(int_tbl_lib.o)
 .debug_abbrev  0x00009fbf       0x25 c:/program files (x86)/microchip/xc32/v1.22/bin/../lib/gcc/pic32mx/4.5.2/../../../../pic32mx/lib/mips16\libmchp_peripheral_32MX795F512H.a(spi_chn_close_lib.o)
 .debug_abbrev  0x00009fe4       0x25 c:/program files (x86)/microchip/xc32/v1.22/bin/../lib/gcc/pic32mx/4.5.2/../../../../pic32mx/lib/mips16\libmchp_peripheral_32MX795F512H.a(spi_chn_open_lib.o)
 .debug_abbrev  0x0000a009        0x1 c:/program files (x86)/microchip/xc32/v1.22/bin/../lib/gcc/pic32mx/4.5.2/../../../../pic32mx/lib/mips16\libmchp_peripheral_32MX795F512H.a(spi_io_tbl_libp.o)
 .debug_abbrev  0x0000a00a        0x1 c:/program files (x86)/microchip/xc32/v1.22/bin/../lib/gcc/pic32mx/4.5.2/../../../../pic32mx/lib/mips16\libmchp_peripheral_32MX795F512H.a(spi_map_tbl_libp.o)
 .debug_abbrev  0x0000a00b       0x25 c:/program files (x86)/microchip/xc32/v1.22/bin/../lib/gcc/pic32mx/4.5.2/../../../../pic32mx/lib/mips16\libmchp_peripheral_32MX795F512H.a(spi_getc_spi2_lib_legacy.o)
 .debug_abbrev  0x0000a030       0x25 c:/program files (x86)/microchip/xc32/v1.22/bin/../lib/gcc/pic32mx/4.5.2/../../../../pic32mx/lib/mips16\libmchp_peripheral_32MX795F512H.a(nvm_erase_page_lib.o)
 .debug_abbrev  0x0000a055       0x34 c:/program files (x86)/microchip/xc32/v1.22/bin/../lib/gcc/pic32mx/4.5.2/../../../../pic32mx/lib/mips16\libmchp_peripheral_32MX795F512H.a(nvm_operation_lib.o)
 .debug_abbrev  0x0000a089       0x25 c:/program files (x86)/microchip/xc32/v1.22/bin/../lib/gcc/pic32mx/4.5.2/../../../../pic32mx/lib/mips16\libmchp_peripheral_32MX795F512H.a(nvm_write_word_lib.o)
 .debug_abbrev  0x0000a0ae       0x25 c:/program files (x86)/microchip/xc32/v1.22/bin/../lib/gcc/pic32mx/4.5.2/../../../../pic32mx/lib/mips16\libmchp_peripheral_32MX795F512H.a(port_reset_pins_lib.o)
 .debug_abbrev  0x0000a0d3       0x25 c:/program files (x86)/microchip/xc32/v1.22/bin/../lib/gcc/pic32mx/4.5.2/../../../../pic32mx/lib/mips16\libmchp_peripheral_32MX795F512H.a(port_set_pins_digital_in_lib.o)
 .debug_abbrev  0x0000a0f8       0x25 c:/program files (x86)/microchip/xc32/v1.22/bin/../lib/gcc/pic32mx/4.5.2/../../../../pic32mx/lib/mips16\libmchp_peripheral_32MX795F512H.a(port_set_pins_digital_out_lib.o)
 .debug_abbrev  0x0000a11d        0x1 c:/program files (x86)/microchip/xc32/v1.22/bin/../lib/gcc/pic32mx/4.5.2/../../../../pic32mx/lib/mips16\libmchp_peripheral_32MX795F512H.a(_ports_tbl_libp.o)
 .debug_abbrev  0x0000a11e       0x25 c:/program files (x86)/microchip/xc32/v1.22/bin/../lib/gcc/pic32mx/4.5.2/../../../../pic32mx/lib/mips16\libmchp_peripheral_32MX795F512H.a(I2CConfigure.o)
 .debug_abbrev  0x0000a143       0x25 c:/program files (x86)/microchip/xc32/v1.22/bin/../lib/gcc/pic32mx/4.5.2/../../../../pic32mx/lib/mips16\libmchp_peripheral_32MX795F512H.a(I2CEnable.o)
 .debug_abbrev  0x0000a168       0x25 c:/program files (x86)/microchip/xc32/v1.22/bin/../lib/gcc/pic32mx/4.5.2/../../../../pic32mx/lib/mips16\libmchp_peripheral_32MX795F512H.a(I2CSetFrequency.o)
 .debug_abbrev  0x0000a18d       0x25 c:/program files (x86)/microchip/xc32/v1.22/bin/../lib/gcc/pic32mx/4.5.2/../../../../pic32mx/lib/mips16\libmchp_peripheral_32MX795F512H.a(I2CSetSlaveAddress.o)
 .debug_abbrev  0x0000a1b2       0x25 c:/program files (x86)/microchip/xc32/v1.22/bin/../lib/gcc/pic32mx/4.5.2/../../../../pic32mx/lib/mips16\libmchp_peripheral_32MX795F512H.a(int_enable_interrupts_lib.o)
 .debug_abbrev  0x0000a1d7        0x1 c:/program files (x86)/microchip/xc32/v1.22/bin/../lib/gcc/pic32mx/4.5.2/../../../../pic32mx/lib/mips16\libmchp_peripheral_32MX795F512H.a(I2CPrivate.o)
 .debug_abbrev  0x0000a1d8       0xc3 c:/program files (x86)/microchip/xc32/v1.22/bin/../lib/gcc/pic32mx/4.5.2/mips16\libgcc.a(_floatdisf.o)
 .debug_abbrev  0x0000a29b      0x166 c:/program files (x86)/microchip/xc32/v1.22/bin/../lib/gcc/pic32mx/4.5.2/mips16\libgcc.a(_udivdi3.o)
 .debug_abbrev  0x0000a401      0x17c c:/program files (x86)/microchip/xc32/v1.22/bin/../lib/gcc/pic32mx/4.5.2/mips16\libgcc.a(_umoddi3.o)
 .debug_abbrev  0x0000a57d       0x65 c:/program files (x86)/microchip/xc32/v1.22/bin/../lib/gcc/pic32mx/4.5.2/mips16\libgcc.a(_clz.o)
 .debug_abbrev  0x0000a5e2       0x23 c:/program files (x86)/microchip/xc32/v1.22/bin/../lib/gcc/pic32mx/4.5.2/../../../../pic32mx/lib/mips16\libpic32.a(default-bootstrap-exception-handler.o)
 .debug_abbrev  0x0000a605       0x23 c:/program files (x86)/microchip/xc32/v1.22/bin/../lib/gcc/pic32mx/4.5.2/../../../../pic32mx/lib/mips16\libpic32.a(default-on-reset.o)
 .debug_abbrev  0x0000a628       0x23 c:/program files (x86)/microchip/xc32/v1.22/bin/../lib/gcc/pic32mx/4.5.2/../../../../pic32mx/lib/mips16\libpic32.a(default-on-bootstrap.o)
 .debug_abbrev  0x0000a64b        0x1 c:/program files (x86)/microchip/xc32/v1.22/bin/../lib/gcc/pic32mx/4.5.2/../../../../pic32mx/lib/mips16\libpic32.a(errno.o)
 .debug_abbrev  0x0000a64c       0x23 c:/program files (x86)/microchip/xc32/v1.22/bin/../lib/gcc/pic32mx/4.5.2/../../../../pic32mx/lib/mips16\libm.a(w_powf.o)
 .debug_abbrev  0x0000a66f       0x23 c:/program files (x86)/microchip/xc32/v1.22/bin/../lib/gcc/pic32mx/4.5.2/../../../../pic32mx/lib/mips16\libm.a(w_log10f.o)
 .debug_abbrev  0x0000a692        0x1 c:/program files (x86)/microchip/xc32/v1.22/bin/../lib/gcc/pic32mx/4.5.2/../../../../pic32mx/lib/mips16\libm.a(s_lib_ver.o)
 .debug_abbrev  0x0000a693       0x34 c:/program files (x86)/microchip/xc32/v1.22/bin/../lib/gcc/pic32mx/4.5.2/../../../../pic32mx/lib/mips16\libe.a(_unordsf2.o)
 .debug_abbrev  0x0000a6c7       0x23 c:/program files (x86)/microchip/xc32/v1.22/bin/../lib/gcc/pic32mx/4.5.2/../../../../pic32mx/lib/mips16\libpic32.a(isinf.o)
 .debug_abbrev  0x0000a6ea        0x1 c:/program files (x86)/microchip/xc32/v1.22/bin/../lib/gcc/pic32mx/4.5.2/../../../../pic32mx/lib/mips16\libc.a(_iob.o)
 .debug_abbrev  0x0000a6eb       0x23 c:/program files (x86)/microchip/xc32/v1.22/bin/../lib/gcc/pic32mx/4.5.2/../../../../pic32mx/lib/mips16\libc.a(_fputc_simple.o)
 .debug_abbrev  0x0000a70e       0x23 c:/program files (x86)/microchip/xc32/v1.22/bin/../lib/gcc/pic32mx/4.5.2/../../../../pic32mx/lib/mips16\libc.a(fread.o)
 .debug_abbrev  0x0000a731       0x3d c:/program files (x86)/microchip/xc32/v1.22/bin/../lib/gcc/pic32mx/4.5.2/../../../../pic32mx/lib/mips16\libc.a(fseek.o)
 .debug_abbrev  0x0000a76e       0x23 c:/program files (x86)/microchip/xc32/v1.22/bin/../lib/gcc/pic32mx/4.5.2/../../../../pic32mx/lib/mips16\libc.a(fwrite.o)
 .debug_abbrev  0x0000a791       0x23 c:/program files (x86)/microchip/xc32/v1.22/bin/../lib/gcc/pic32mx/4.5.2/../../../../pic32mx/lib/mips16\libc.a(atoi.o)
 .debug_abbrev  0x0000a7b4       0x23 c:/program files (x86)/microchip/xc32/v1.22/bin/../lib/gcc/pic32mx/4.5.2/../../../../pic32mx/lib/mips16\libc.a(calloc.o)
 .debug_abbrev  0x0000a7d7        0x1 c:/program files (x86)/microchip/xc32/v1.22/bin/../lib/gcc/pic32mx/4.5.2/../../../../pic32mx/lib/mips16\libc.a(ctype.o)
 .debug_abbrev  0x0000a7d8       0x23 c:/program files (x86)/microchip/xc32/v1.22/bin/../lib/gcc/pic32mx/4.5.2/../../../../pic32mx/lib/mips16\libc.a(ctypef.o)
 .debug_abbrev  0x0000a7fb       0x23 c:/program files (x86)/microchip/xc32/v1.22/bin/../lib/gcc/pic32mx/4.5.2/../../../../pic32mx/lib/mips16\libc.a(malloc.o)
 .debug_abbrev  0x0000a81e       0x23 c:/program files (x86)/microchip/xc32/v1.22/bin/../lib/gcc/pic32mx/4.5.2/../../../../pic32mx/lib/mips16\libc.a(memchr.o)
 .debug_abbrev  0x0000a841       0x23 c:/program files (x86)/microchip/xc32/v1.22/bin/../lib/gcc/pic32mx/4.5.2/../../../../pic32mx/lib/mips16\libc.a(memcmp.o)
 .debug_abbrev  0x0000a864       0x23 c:/program files (x86)/microchip/xc32/v1.22/bin/../lib/gcc/pic32mx/4.5.2/../../../../pic32mx/lib/mips16\libc.a(memcpy.o)
 .debug_abbrev  0x0000a887       0x23 c:/program files (x86)/microchip/xc32/v1.22/bin/../lib/gcc/pic32mx/4.5.2/../../../../pic32mx/lib/mips16\libc.a(memmove.o)
 .debug_abbrev  0x0000a8aa       0x23 c:/program files (x86)/microchip/xc32/v1.22/bin/../lib/gcc/pic32mx/4.5.2/../../../../pic32mx/lib/mips16\libc.a(memset.o)
 .debug_abbrev  0x0000a8cd       0x23 c:/program files (x86)/microchip/xc32/v1.22/bin/../lib/gcc/pic32mx/4.5.2/../../../../pic32mx/lib/mips16\libc.a(signal.o)
 .debug_abbrev  0x0000a8f0       0x23 c:/program files (x86)/microchip/xc32/v1.22/bin/../lib/gcc/pic32mx/4.5.2/../../../../pic32mx/lib/mips16\libc.a(strchr.o)
 .debug_abbrev  0x0000a913       0x23 c:/program files (x86)/microchip/xc32/v1.22/bin/../lib/gcc/pic32mx/4.5.2/../../../../pic32mx/lib/mips16\libc.a(strcmp.o)
 .debug_abbrev  0x0000a936       0x23 c:/program files (x86)/microchip/xc32/v1.22/bin/../lib/gcc/pic32mx/4.5.2/../../../../pic32mx/lib/mips16\libc.a(strlen.o)
 .debug_abbrev  0x0000a959       0x23 c:/program files (x86)/microchip/xc32/v1.22/bin/../lib/gcc/pic32mx/4.5.2/../../../../pic32mx/lib/mips16\libc.a(strncpy.o)
 .debug_abbrev  0x0000a97c       0x47 c:/program files (x86)/microchip/xc32/v1.22/bin/../lib/gcc/pic32mx/4.5.2/../../../../pic32mx/lib/mips16\libc.a(strtod.o)
 .debug_abbrev  0x0000a9c3       0x23 c:/program files (x86)/microchip/xc32/v1.22/bin/../lib/gcc/pic32mx/4.5.2/../../../../pic32mx/lib/mips16\libc.a(strstr.o)
 .debug_abbrev  0x0000a9e6       0x23 c:/program files (x86)/microchip/xc32/v1.22/bin/../lib/gcc/pic32mx/4.5.2/../../../../pic32mx/lib/mips16\libc.a(strtok.o)
 .debug_abbrev  0x0000aa09       0x23 c:/program files (x86)/microchip/xc32/v1.22/bin/../lib/gcc/pic32mx/4.5.2/../../../../pic32mx/lib/mips16\libc.a(strtol.o)
 .debug_abbrev  0x0000aa2c       0x23 c:/program files (x86)/microchip/xc32/v1.22/bin/../lib/gcc/pic32mx/4.5.2/../../../../pic32mx/lib/mips16\libc.a(exit.o)
 .debug_abbrev  0x0000aa4f       0x34 c:/program files (x86)/microchip/xc32/v1.22/bin/../lib/gcc/pic32mx/4.5.2/../../../../pic32mx/lib/mips16\libc.a(doprnt.o)
 .debug_abbrev  0x0000aa83       0x23 c:/program files (x86)/microchip/xc32/v1.22/bin/../lib/gcc/pic32mx/4.5.2/../../../../pic32mx/lib/mips16\libc.a(printf_cdnopuxX.eo)
 .debug_abbrev  0x0000aaa6       0x23 c:/program files (x86)/microchip/xc32/v1.22/bin/../lib/gcc/pic32mx/4.5.2/../../../../pic32mx/lib/mips16\libc.a(sprintf_cdnopsuxX.eo)
 .debug_abbrev  0x0000aac9       0x23 c:/program files (x86)/microchip/xc32/v1.22/bin/../lib/gcc/pic32mx/4.5.2/../../../../pic32mx/lib/mips16\libc.a(vsnprintf.o)
 .debug_abbrev  0x0000aaec       0x23 c:/program files (x86)/microchip/xc32/v1.22/bin/../lib/gcc/pic32mx/4.5.2/../../../../pic32mx/lib/mips16\libc.a(_flsbuf_simple.o)
 .debug_abbrev  0x0000ab0f       0x23 c:/program files (x86)/microchip/xc32/v1.22/bin/../lib/gcc/pic32mx/4.5.2/../../../../pic32mx/lib/mips16\libc.a(stdclean_simple.o)
 .debug_abbrev  0x0000ab32       0x23 c:/program files (x86)/microchip/xc32/v1.22/bin/../lib/gcc/pic32mx/4.5.2/../../../../pic32mx/lib/mips16\libc.a(fflush.o)
 .debug_abbrev  0x0000ab55       0x23 c:/program files (x86)/microchip/xc32/v1.22/bin/../lib/gcc/pic32mx/4.5.2/../../../../pic32mx/lib/mips16\libc.a(fgetc.o)
 .debug_abbrev  0x0000ab78        0x1 c:/program files (x86)/microchip/xc32/v1.22/bin/../lib/gcc/pic32mx/4.5.2/../../../../pic32mx/lib/mips16\libc.a(powersf.o)
 .debug_abbrev  0x0000ab79       0x23 c:/program files (x86)/microchip/xc32/v1.22/bin/../lib/gcc/pic32mx/4.5.2/../../../../pic32mx/lib/mips16\libc.a(strcspn.o)
 .debug_abbrev  0x0000ab9c       0x23 c:/program files (x86)/microchip/xc32/v1.22/bin/../lib/gcc/pic32mx/4.5.2/../../../../pic32mx/lib/mips16\libc.a(strncmp.o)
 .debug_abbrev  0x0000abbf       0x23 c:/program files (x86)/microchip/xc32/v1.22/bin/../lib/gcc/pic32mx/4.5.2/../../../../pic32mx/lib/mips16\libc.a(strspn.o)
 .debug_abbrev  0x0000abe2       0x23 c:/program files (x86)/microchip/xc32/v1.22/bin/../lib/gcc/pic32mx/4.5.2/../../../../pic32mx/lib/mips16\libc.a(doprnt_cdnopsuxX.eo)
 .debug_abbrev  0x0000ac05       0x23 c:/program files (x86)/microchip/xc32/v1.22/bin/../lib/gcc/pic32mx/4.5.2/../../../../pic32mx/lib/mips16\libc.a(filbuf.o)
 .debug_abbrev  0x0000ac28       0x36 c:/program files (x86)/microchip/xc32/v1.22/bin/../lib/gcc/pic32mx/4.5.2/../../../../pic32mx/lib/mips16\libpic32.a(sbrk.o)
 .debug_abbrev  0x0000ac5e       0x23 c:/program files (x86)/microchip/xc32/v1.22/bin/../lib/gcc/pic32mx/4.5.2/../../../../pic32mx/lib/mips16\libpic32.a(read.o)
 .debug_abbrev  0x0000ac81       0x23 c:/program files (x86)/microchip/xc32/v1.22/bin/../lib/gcc/pic32mx/4.5.2/../../../../pic32mx/lib/mips16\libpic32.a(write.o)
 .debug_abbrev  0x0000aca4       0x23 c:/program files (x86)/microchip/xc32/v1.22/bin/../lib/gcc/pic32mx/4.5.2/../../../../pic32mx/lib/mips16\libpic32.a(lseek.o)
 .debug_abbrev  0x0000acc7        0x1 c:/program files (x86)/microchip/xc32/v1.22/bin/../lib/gcc/pic32mx/4.5.2/../../../../pic32mx/lib/mips16\libpic32.a(xc32_uart.o)
 .debug_abbrev  0x0000acc8       0x23 c:/program files (x86)/microchip/xc32/v1.22/bin/../lib/gcc/pic32mx/4.5.2/../../../../pic32mx/lib/mips16\libpic32.a(_mon_putc.o)
 .debug_abbrev  0x0000aceb       0x34 c:/program files (x86)/microchip/xc32/v1.22/bin/../lib/gcc/pic32mx/4.5.2/../../../../pic32mx/lib/mips16\libe.a(_unorddf2.o)
 .debug_abbrev  0x0000ad1f       0x34 c:/program files (x86)/microchip/xc32/v1.22/bin/../lib/gcc/pic32mx/4.5.2/../../../../pic32mx/lib/mips16\libe.a(_strtod.o)
 .debug_abbrev  0x0000ad53       0x34 c:/program files (x86)/microchip/xc32/v1.22/bin/../lib/gcc/pic32mx/4.5.2/../../../../pic32mx/lib/mips16\libe.a(_ldexp.o)
 .debug_abbrev  0x0000ad87       0xe3 c:/program files (x86)/microchip/xc32/v1.22/bin/../lib/gcc/pic32mx/4.5.2/mips16\libgcc.a(_lshrdi3.o)
 .debug_abbrev  0x0000ae6a       0xc3 c:/program files (x86)/microchip/xc32/v1.22/bin/../lib/gcc/pic32mx/4.5.2/mips16\libgcc.a(_floatundisf.o)
 .debug_abbrev  0x0000af2d       0x61 c:/program files (x86)/microchip/xc32/v1.22/bin/../lib/gcc/pic32mx/4.5.2/mips16\libgcc.a(floatunsisf.o)

.debug_line     0x00000000    0x1498c
 *(.debug_line)
 .debug_line    0x00000000      0x401 build/default/production/_ext/454704213/analog.o
 .debug_line    0x00000401      0x67b build/default/production/_ext/454704213/iosetting.o
 .debug_line    0x00000a7c      0x1a1 build/default/production/_ext/454704213/TimeDelay.o
 .debug_line    0x00000c1d      0x1a5 build/default/production/_ext/454704213/usb_config.o
 .debug_line    0x00000dc2      0x1de build/default/production/_ext/454704213/usb_descriptors.o
 .debug_line    0x00000fa0      0x866 build/default/production/_ext/454704213/osc.o
 .debug_line    0x00001806      0x234 build/default/production/_ext/454704213/sram.o
 .debug_line    0x00001a3a      0x2e6 build/default/production/_ext/1340694758/ARP.o
 .debug_line    0x00001d20      0x3a7 build/default/production/_ext/1340694758/DHCP.o
 .debug_line    0x000020c7      0x412 build/default/production/_ext/1340694758/DHCPs.o
 .debug_line    0x000024d9      0x48b build/default/production/_ext/1340694758/ETHPIC32ExtPhy.o
 .debug_line    0x00002964      0x22b build/default/production/_ext/1340694758/ETHPIC32ExtPhyDP83848.o
 .debug_line    0x00002b8f      0x4de build/default/production/_ext/1340694758/ETHPIC32IntMac.o
 .debug_line    0x0000306d      0x400 build/default/production/_ext/1340694758/Helpers.o
 .debug_line    0x0000346d      0x1bf build/default/production/_ext/1340694758/ICMP.o
 .debug_line    0x0000362c      0x21f build/default/production/_ext/1340694758/IP.o
 .debug_line    0x0000384b      0x142 build/default/production/_ext/1340694758/NBNS.o
 .debug_line    0x0000398d      0x21d build/default/production/_ext/1340694758/StackTsk.o
 .debug_line    0x00003baa      0x212 build/default/production/_ext/1340694758/Tick.o
 .debug_line    0x00003dbc      0x3c6 build/default/production/_ext/1340694758/UDP.o
 .debug_line    0x00004182      0x18e build/default/production/_ext/1340694758/ZeroconfHelper.o
 .debug_line    0x00004310      0x31a build/default/production/_ext/1340694758/ZeroconfLinkLocal.o
 .debug_line    0x0000462a      0x731 build/default/production/_ext/1340694758/ZeroconfMulticastDNS.o
 .debug_line    0x00004d5b      0x697 build/default/production/_ext/1798056102/usb_device.o
 .debug_line    0x000053f2      0x22b build/default/production/_ext/1798056102/usb_function_hid.o
 .debug_line    0x0000561d      0xcaa build/default/production/_ext/1798056102/usb_host.o
 .debug_line    0x000062c7      0x49a build/default/production/_ext/1798056102/usb_host_cdc.o
 .debug_line    0x00006761      0x230 build/default/production/_ext/1798056102/usb_host_cdc_interface.o
 .debug_line    0x00006991      0x558 build/default/production/_ext/1798056102/usb_host_hid.o
 .debug_line    0x00006ee9      0x445 build/default/production/_ext/1798056102/usb_host_hid_parser.o
 .debug_line    0x0000732e      0x284 build/default/production/_ext/1798056102/usb_host_midi.o
 .debug_line    0x000075b2     0x1314 build/default/production/picrouter.o
 .debug_line    0x000088c6       0xac build/default/production/mrb_picrouter.o
 .debug_line    0x00008972      0xe02 ..\mruby-1.0.0\build\PICrouter\lib\libmruby.a(class.o)
 .debug_line    0x00009774      0x55f ..\mruby-1.0.0\build\PICrouter\lib\libmruby.a(error.o)
 .debug_line    0x00009cd3      0x84f ..\mruby-1.0.0\build\PICrouter\lib\libmruby.a(gc.o)
 .debug_line    0x0000a522      0x82d ..\mruby-1.0.0\build\PICrouter\lib\libmruby.a(hash.o)
 .debug_line    0x0000ad4f      0x824 ..\mruby-1.0.0\build\PICrouter\lib\libmruby.a(kernel.o)
 .debug_line    0x0000b573      0x5ec ..\mruby-1.0.0\build\PICrouter\lib\libmruby.a(load.o)
 .debug_line    0x0000bb5f      0x5a4 ..\mruby-1.0.0\build\PICrouter\lib\libmruby.a(object.o)
 .debug_line    0x0000c103      0x273 ..\mruby-1.0.0\build\PICrouter\lib\libmruby.a(print.o)
 .debug_line    0x0000c376      0x399 ..\mruby-1.0.0\build\PICrouter\lib\libmruby.a(proc.o)
 .debug_line    0x0000c70f      0x37b ..\mruby-1.0.0\build\PICrouter\lib\libmruby.a(state.o)
 .debug_line    0x0000ca8a      0xe0e ..\mruby-1.0.0\build\PICrouter\lib\libmruby.a(string.o)
 .debug_line    0x0000d898      0x58e ..\mruby-1.0.0\build\PICrouter\lib\libmruby.a(symbol.o)
 .debug_line    0x0000de26      0x958 ..\mruby-1.0.0\build\PICrouter\lib\libmruby.a(variable.o)
 .debug_line    0x0000e77e      0xa9a ..\mruby-1.0.0\build\PICrouter\lib\libmruby.a(vm.o)
 .debug_line    0x0000f218      0x99e ..\mruby-1.0.0\build\PICrouter\lib\libmruby.a(array.o)
 .debug_line    0x0000fbb6      0x306 ..\mruby-1.0.0\build\PICrouter\lib\libmruby.a(backtrace.o)
 .debug_line    0x0000febc      0x168 ..\mruby-1.0.0\build\PICrouter\lib\libmruby.a(crc.o)
 .debug_line    0x00010024      0x2e0 ..\mruby-1.0.0\build\PICrouter\lib\libmruby.a(debug.o)
 .debug_line    0x00010304      0x32d ..\mruby-1.0.0\build\PICrouter\lib\libmruby.a(etc.o)
 .debug_line    0x00010631      0x20d ..\mruby-1.0.0\build\PICrouter\lib\libmruby.a(init.o)
 .debug_line    0x0001083e      0x803 ..\mruby-1.0.0\build\PICrouter\lib\libmruby.a(numeric.o)
 .debug_line    0x00011041      0x463 ..\mruby-1.0.0\build\PICrouter\lib\libmruby.a(range.o)
 .debug_line    0x000114a4      0x201 ..\mruby-1.0.0\build\PICrouter\lib\libmruby.a(mrblib.o)
 .debug_line    0x000116a5      0x1f0 ..\mruby-1.0.0\build\PICrouter\lib\libmruby.a(compar.o)
 .debug_line    0x00011895      0x1ee ..\mruby-1.0.0\build\PICrouter\lib\libmruby.a(enum.o)
 .debug_line    0x00011a83       0x6e c:/program files (x86)/microchip/xc32/v1.22/bin/../lib/gcc/pic32mx/4.5.2/../../../../pic32mx/lib/mips16\libmchp_peripheral.a(read_core_timer_lib.o)
 .debug_line    0x00011af1       0x80 c:/program files (x86)/microchip/xc32/v1.22/bin/../lib/gcc/pic32mx/4.5.2/../../../../pic32mx/lib/mips16\libmchp_peripheral_32MX795F512H.a(eth_ack_packet_lib.o)
 .debug_line    0x00011b71       0x85 c:/program files (x86)/microchip/xc32/v1.22/bin/../lib/gcc/pic32mx/4.5.2/../../../../pic32mx/lib/mips16\libmchp_peripheral_32MX795F512H.a(eth_descriptors_add_lib.o)
 .debug_line    0x00011bf6       0x77 c:/program files (x86)/microchip/xc32/v1.22/bin/../lib/gcc/pic32mx/4.5.2/../../../../pic32mx/lib/mips16\libmchp_peripheral_32MX795F512H.a(eth_init_lib.o)
 .debug_line    0x00011c6d       0x69 c:/program files (x86)/microchip/xc32/v1.22/bin/../lib/gcc/pic32mx/4.5.2/../../../../pic32mx/lib/mips16\libmchp_peripheral_32MX795F512H.a(eth_mac_open_lib.o)
 .debug_line    0x00011cd6       0x74 c:/program files (x86)/microchip/xc32/v1.22/bin/../lib/gcc/pic32mx/4.5.2/../../../../pic32mx/lib/mips16\libmchp_peripheral_32MX795F512H.a(eth_mac_set_address_max_lib.o)
 .debug_line    0x00011d4a       0x87 c:/program files (x86)/microchip/xc32/v1.22/bin/../lib/gcc/pic32mx/4.5.2/../../../../pic32mx/lib/mips16\libmchp_peripheral_32MX795F512H.a(eth_rx_buffers_append_lib.o)
 .debug_line    0x00011dd1       0x6b c:/program files (x86)/microchip/xc32/v1.22/bin/../lib/gcc/pic32mx/4.5.2/../../../../pic32mx/lib/mips16\libmchp_peripheral_32MX795F512H.a(eth_rx_filters_lib.o)
 .debug_line    0x00011e3c       0x6e c:/program files (x86)/microchip/xc32/v1.22/bin/../lib/gcc/pic32mx/4.5.2/../../../../pic32mx/lib/mips16\libmchp_peripheral_32MX795F512H.a(eth_rx_get_packet_lib.o)
 .debug_line    0x00011eaa       0x73 c:/program files (x86)/microchip/xc32/v1.22/bin/../lib/gcc/pic32mx/4.5.2/../../../../pic32mx/lib/mips16\libmchp_peripheral_32MX795F512H.a(eth_rx_set_buffer_size_lib.o)
 .debug_line    0x00011f1d       0x7f c:/program files (x86)/microchip/xc32/v1.22/bin/../lib/gcc/pic32mx/4.5.2/../../../../pic32mx/lib/mips16\libmchp_peripheral_32MX795F512H.a(eth_tx_packet_lib.o)
 .debug_line    0x00011f9c       0x87 c:/program files (x86)/microchip/xc32/v1.22/bin/../lib/gcc/pic32mx/4.5.2/../../../../pic32mx/lib/mips16\libmchp_peripheral_32MX795F512H.a(_eth_append_busy_list_lib.o)
 .debug_line    0x00012023       0x68 c:/program files (x86)/microchip/xc32/v1.22/bin/../lib/gcc/pic32mx/4.5.2/../../../../pic32mx/lib/mips16\libmchp_peripheral_32MX795F512H.a(eth_miim_access.o)
 .debug_line    0x0001208b       0xbf c:/program files (x86)/microchip/xc32/v1.22/bin/../lib/gcc/pic32mx/4.5.2/../../../../pic32mx/lib/mips16\libmchp_peripheral_32MX795F512H.a(soft_reset_lib.o)
 .debug_line    0x0001214a       0x62 c:/program files (x86)/microchip/xc32/v1.22/bin/../lib/gcc/pic32mx/4.5.2/../../../../pic32mx/lib/mips16\libmchp_peripheral_32MX795F512H.a(pcache.o)
 .debug_line    0x000121ac       0x73 c:/program files (x86)/microchip/xc32/v1.22/bin/../lib/gcc/pic32mx/4.5.2/../../../../pic32mx/lib/mips16\libmchp_peripheral_32MX795F512H.a(int_disable_interrupts_lib.o)
 .debug_line    0x0001221f       0x73 c:/program files (x86)/microchip/xc32/v1.22/bin/../lib/gcc/pic32mx/4.5.2/../../../../pic32mx/lib/mips16\libmchp_peripheral_32MX795F512H.a(int_restore_interrupts_lib.o)
 .debug_line    0x00012292       0x6e c:/program files (x86)/microchip/xc32/v1.22/bin/../lib/gcc/pic32mx/4.5.2/../../../../pic32mx/lib/mips16\libmchp_peripheral_32MX795F512H.a(int_enable_mv_int_lib.o)
 .debug_line    0x00012300       0x64 c:/program files (x86)/microchip/xc32/v1.22/bin/../lib/gcc/pic32mx/4.5.2/../../../../pic32mx/lib/mips16\libmchp_peripheral_32MX795F512H.a(int_tbl_lib.o)
 .debug_line    0x00012364       0x6a c:/program files (x86)/microchip/xc32/v1.22/bin/../lib/gcc/pic32mx/4.5.2/../../../../pic32mx/lib/mips16\libmchp_peripheral_32MX795F512H.a(spi_chn_close_lib.o)
 .debug_line    0x000123ce       0x69 c:/program files (x86)/microchip/xc32/v1.22/bin/../lib/gcc/pic32mx/4.5.2/../../../../pic32mx/lib/mips16\libmchp_peripheral_32MX795F512H.a(spi_chn_open_lib.o)
 .debug_line    0x00012437        0x0 c:/program files (x86)/microchip/xc32/v1.22/bin/../lib/gcc/pic32mx/4.5.2/../../../../pic32mx/lib/mips16\libmchp_peripheral_32MX795F512H.a(spi_io_tbl_libp.o)
 .debug_line    0x00012437        0x0 c:/program files (x86)/microchip/xc32/v1.22/bin/../lib/gcc/pic32mx/4.5.2/../../../../pic32mx/lib/mips16\libmchp_peripheral_32MX795F512H.a(spi_map_tbl_libp.o)
 .debug_line    0x00012437       0x71 c:/program files (x86)/microchip/xc32/v1.22/bin/../lib/gcc/pic32mx/4.5.2/../../../../pic32mx/lib/mips16\libmchp_peripheral_32MX795F512H.a(spi_getc_spi2_lib_legacy.o)
 .debug_line    0x000124a8       0x6b c:/program files (x86)/microchip/xc32/v1.22/bin/../lib/gcc/pic32mx/4.5.2/../../../../pic32mx/lib/mips16\libmchp_peripheral_32MX795F512H.a(nvm_erase_page_lib.o)
 .debug_line    0x00012513       0xc0 c:/program files (x86)/microchip/xc32/v1.22/bin/../lib/gcc/pic32mx/4.5.2/../../../../pic32mx/lib/mips16\libmchp_peripheral_32MX795F512H.a(nvm_operation_lib.o)
 .debug_line    0x000125d3       0x6b c:/program files (x86)/microchip/xc32/v1.22/bin/../lib/gcc/pic32mx/4.5.2/../../../../pic32mx/lib/mips16\libmchp_peripheral_32MX795F512H.a(nvm_write_word_lib.o)
 .debug_line    0x0001263e       0x6e c:/program files (x86)/microchip/xc32/v1.22/bin/../lib/gcc/pic32mx/4.5.2/../../../../pic32mx/lib/mips16\libmchp_peripheral_32MX795F512H.a(port_reset_pins_lib.o)
 .debug_line    0x000126ac       0x77 c:/program files (x86)/microchip/xc32/v1.22/bin/../lib/gcc/pic32mx/4.5.2/../../../../pic32mx/lib/mips16\libmchp_peripheral_32MX795F512H.a(port_set_pins_digital_in_lib.o)
 .debug_line    0x00012723       0x78 c:/program files (x86)/microchip/xc32/v1.22/bin/../lib/gcc/pic32mx/4.5.2/../../../../pic32mx/lib/mips16\libmchp_peripheral_32MX795F512H.a(port_set_pins_digital_out_lib.o)
 .debug_line    0x0001279b        0x0 c:/program files (x86)/microchip/xc32/v1.22/bin/../lib/gcc/pic32mx/4.5.2/../../../../pic32mx/lib/mips16\libmchp_peripheral_32MX795F512H.a(_ports_tbl_libp.o)
 .debug_line    0x0001279b       0x65 c:/program files (x86)/microchip/xc32/v1.22/bin/../lib/gcc/pic32mx/4.5.2/../../../../pic32mx/lib/mips16\libmchp_peripheral_32MX795F512H.a(I2CConfigure.o)
 .debug_line    0x00012800       0x62 c:/program files (x86)/microchip/xc32/v1.22/bin/../lib/gcc/pic32mx/4.5.2/../../../../pic32mx/lib/mips16\libmchp_peripheral_32MX795F512H.a(I2CEnable.o)
 .debug_line    0x00012862       0x68 c:/program files (x86)/microchip/xc32/v1.22/bin/../lib/gcc/pic32mx/4.5.2/../../../../pic32mx/lib/mips16\libmchp_peripheral_32MX795F512H.a(I2CSetFrequency.o)
 .debug_line    0x000128ca       0x6b c:/program files (x86)/microchip/xc32/v1.22/bin/../lib/gcc/pic32mx/4.5.2/../../../../pic32mx/lib/mips16\libmchp_peripheral_32MX795F512H.a(I2CSetSlaveAddress.o)
 .debug_line    0x00012935       0x72 c:/program files (x86)/microchip/xc32/v1.22/bin/../lib/gcc/pic32mx/4.5.2/../../../../pic32mx/lib/mips16\libmchp_peripheral_32MX795F512H.a(int_enable_interrupts_lib.o)
 .debug_line    0x000129a7        0x0 c:/program files (x86)/microchip/xc32/v1.22/bin/../lib/gcc/pic32mx/4.5.2/../../../../pic32mx/lib/mips16\libmchp_peripheral_32MX795F512H.a(I2CPrivate.o)
 .debug_line    0x000129a7       0xf7 c:/program files (x86)/microchip/xc32/v1.22/bin/../lib/gcc/pic32mx/4.5.2/mips16\libgcc.a(_floatdisf.o)
 .debug_line    0x00012a9e      0x157 c:/program files (x86)/microchip/xc32/v1.22/bin/../lib/gcc/pic32mx/4.5.2/mips16\libgcc.a(_udivdi3.o)
 .debug_line    0x00012bf5      0x167 c:/program files (x86)/microchip/xc32/v1.22/bin/../lib/gcc/pic32mx/4.5.2/mips16\libgcc.a(_umoddi3.o)
 .debug_line    0x00012d5c       0x9e c:/program files (x86)/microchip/xc32/v1.22/bin/../lib/gcc/pic32mx/4.5.2/mips16\libgcc.a(_clz.o)
 .debug_line    0x00012dfa       0x97 c:/program files (x86)/microchip/xc32/v1.22/bin/../lib/gcc/pic32mx/4.5.2/../../../../pic32mx/lib/mips16\libpic32.a(default-bootstrap-exception-handler.o)
 .debug_line    0x00012e91       0x84 c:/program files (x86)/microchip/xc32/v1.22/bin/../lib/gcc/pic32mx/4.5.2/../../../../pic32mx/lib/mips16\libpic32.a(default-on-reset.o)
 .debug_line    0x00012f15       0x88 c:/program files (x86)/microchip/xc32/v1.22/bin/../lib/gcc/pic32mx/4.5.2/../../../../pic32mx/lib/mips16\libpic32.a(default-on-bootstrap.o)
 .debug_line    0x00012f9d        0x0 c:/program files (x86)/microchip/xc32/v1.22/bin/../lib/gcc/pic32mx/4.5.2/../../../../pic32mx/lib/mips16\libpic32.a(errno.o)
 .debug_line    0x00012f9d       0x77 c:/program files (x86)/microchip/xc32/v1.22/bin/../lib/gcc/pic32mx/4.5.2/../../../../pic32mx/lib/mips16\libm.a(w_powf.o)
 .debug_line    0x00013014       0x79 c:/program files (x86)/microchip/xc32/v1.22/bin/../lib/gcc/pic32mx/4.5.2/../../../../pic32mx/lib/mips16\libm.a(w_log10f.o)
 .debug_line    0x0001308d        0x0 c:/program files (x86)/microchip/xc32/v1.22/bin/../lib/gcc/pic32mx/4.5.2/../../../../pic32mx/lib/mips16\libm.a(s_lib_ver.o)
 .debug_line    0x0001308d       0x7f c:/program files (x86)/microchip/xc32/v1.22/bin/../lib/gcc/pic32mx/4.5.2/../../../../pic32mx/lib/mips16\libe.a(_unordsf2.o)
 .debug_line    0x0001310c       0x79 c:/program files (x86)/microchip/xc32/v1.22/bin/../lib/gcc/pic32mx/4.5.2/../../../../pic32mx/lib/mips16\libpic32.a(isinf.o)
 .debug_line    0x00013185        0x0 c:/program files (x86)/microchip/xc32/v1.22/bin/../lib/gcc/pic32mx/4.5.2/../../../../pic32mx/lib/mips16\libc.a(_iob.o)
 .debug_line    0x00013185       0x7f c:/program files (x86)/microchip/xc32/v1.22/bin/../lib/gcc/pic32mx/4.5.2/../../../../pic32mx/lib/mips16\libc.a(_fputc_simple.o)
 .debug_line    0x00013204       0x7f c:/program files (x86)/microchip/xc32/v1.22/bin/../lib/gcc/pic32mx/4.5.2/../../../../pic32mx/lib/mips16\libc.a(fread.o)
 .debug_line    0x00013283       0x7f c:/program files (x86)/microchip/xc32/v1.22/bin/../lib/gcc/pic32mx/4.5.2/../../../../pic32mx/lib/mips16\libc.a(fseek.o)
 .debug_line    0x00013302       0x80 c:/program files (x86)/microchip/xc32/v1.22/bin/../lib/gcc/pic32mx/4.5.2/../../../../pic32mx/lib/mips16\libc.a(fwrite.o)
 .debug_line    0x00013382       0x7e c:/program files (x86)/microchip/xc32/v1.22/bin/../lib/gcc/pic32mx/4.5.2/../../../../pic32mx/lib/mips16\libc.a(atoi.o)
 .debug_line    0x00013400       0x80 c:/program files (x86)/microchip/xc32/v1.22/bin/../lib/gcc/pic32mx/4.5.2/../../../../pic32mx/lib/mips16\libc.a(calloc.o)
 .debug_line    0x00013480        0x0 c:/program files (x86)/microchip/xc32/v1.22/bin/../lib/gcc/pic32mx/4.5.2/../../../../pic32mx/lib/mips16\libc.a(ctype.o)
 .debug_line    0x00013480       0x80 c:/program files (x86)/microchip/xc32/v1.22/bin/../lib/gcc/pic32mx/4.5.2/../../../../pic32mx/lib/mips16\libc.a(ctypef.o)
 .debug_line    0x00013500       0x80 c:/program files (x86)/microchip/xc32/v1.22/bin/../lib/gcc/pic32mx/4.5.2/../../../../pic32mx/lib/mips16\libc.a(malloc.o)
 .debug_line    0x00013580       0x80 c:/program files (x86)/microchip/xc32/v1.22/bin/../lib/gcc/pic32mx/4.5.2/../../../../pic32mx/lib/mips16\libc.a(memchr.o)
 .debug_line    0x00013600       0x80 c:/program files (x86)/microchip/xc32/v1.22/bin/../lib/gcc/pic32mx/4.5.2/../../../../pic32mx/lib/mips16\libc.a(memcmp.o)
 .debug_line    0x00013680       0x80 c:/program files (x86)/microchip/xc32/v1.22/bin/../lib/gcc/pic32mx/4.5.2/../../../../pic32mx/lib/mips16\libc.a(memcpy.o)
 .debug_line    0x00013700       0x81 c:/program files (x86)/microchip/xc32/v1.22/bin/../lib/gcc/pic32mx/4.5.2/../../../../pic32mx/lib/mips16\libc.a(memmove.o)
 .debug_line    0x00013781       0x80 c:/program files (x86)/microchip/xc32/v1.22/bin/../lib/gcc/pic32mx/4.5.2/../../../../pic32mx/lib/mips16\libc.a(memset.o)
 .debug_line    0x00013801       0x80 c:/program files (x86)/microchip/xc32/v1.22/bin/../lib/gcc/pic32mx/4.5.2/../../../../pic32mx/lib/mips16\libc.a(signal.o)
 .debug_line    0x00013881       0x80 c:/program files (x86)/microchip/xc32/v1.22/bin/../lib/gcc/pic32mx/4.5.2/../../../../pic32mx/lib/mips16\libc.a(strchr.o)
 .debug_line    0x00013901       0x80 c:/program files (x86)/microchip/xc32/v1.22/bin/../lib/gcc/pic32mx/4.5.2/../../../../pic32mx/lib/mips16\libc.a(strcmp.o)
 .debug_line    0x00013981       0x80 c:/program files (x86)/microchip/xc32/v1.22/bin/../lib/gcc/pic32mx/4.5.2/../../../../pic32mx/lib/mips16\libc.a(strlen.o)
 .debug_line    0x00013a01       0x81 c:/program files (x86)/microchip/xc32/v1.22/bin/../lib/gcc/pic32mx/4.5.2/../../../../pic32mx/lib/mips16\libc.a(strncpy.o)
 .debug_line    0x00013a82       0x80 c:/program files (x86)/microchip/xc32/v1.22/bin/../lib/gcc/pic32mx/4.5.2/../../../../pic32mx/lib/mips16\libc.a(strtod.o)
 .debug_line    0x00013b02       0x80 c:/program files (x86)/microchip/xc32/v1.22/bin/../lib/gcc/pic32mx/4.5.2/../../../../pic32mx/lib/mips16\libc.a(strstr.o)
 .debug_line    0x00013b82       0x80 c:/program files (x86)/microchip/xc32/v1.22/bin/../lib/gcc/pic32mx/4.5.2/../../../../pic32mx/lib/mips16\libc.a(strtok.o)
 .debug_line    0x00013c02       0x80 c:/program files (x86)/microchip/xc32/v1.22/bin/../lib/gcc/pic32mx/4.5.2/../../../../pic32mx/lib/mips16\libc.a(strtol.o)
 .debug_line    0x00013c82       0x7e c:/program files (x86)/microchip/xc32/v1.22/bin/../lib/gcc/pic32mx/4.5.2/../../../../pic32mx/lib/mips16\libc.a(exit.o)
 .debug_line    0x00013d00       0x80 c:/program files (x86)/microchip/xc32/v1.22/bin/../lib/gcc/pic32mx/4.5.2/../../../../pic32mx/lib/mips16\libc.a(doprnt.o)
 .debug_line    0x00013d80       0x80 c:/program files (x86)/microchip/xc32/v1.22/bin/../lib/gcc/pic32mx/4.5.2/../../../../pic32mx/lib/mips16\libc.a(printf_cdnopuxX.eo)
 .debug_line    0x00013e00       0x81 c:/program files (x86)/microchip/xc32/v1.22/bin/../lib/gcc/pic32mx/4.5.2/../../../../pic32mx/lib/mips16\libc.a(sprintf_cdnopsuxX.eo)
 .debug_line    0x00013e81       0x83 c:/program files (x86)/microchip/xc32/v1.22/bin/../lib/gcc/pic32mx/4.5.2/../../../../pic32mx/lib/mips16\libc.a(vsnprintf.o)
 .debug_line    0x00013f04       0x80 c:/program files (x86)/microchip/xc32/v1.22/bin/../lib/gcc/pic32mx/4.5.2/../../../../pic32mx/lib/mips16\libc.a(_flsbuf_simple.o)
 .debug_line    0x00013f84       0x82 c:/program files (x86)/microchip/xc32/v1.22/bin/../lib/gcc/pic32mx/4.5.2/../../../../pic32mx/lib/mips16\libc.a(stdclean_simple.o)
 .debug_line    0x00014006       0x80 c:/program files (x86)/microchip/xc32/v1.22/bin/../lib/gcc/pic32mx/4.5.2/../../../../pic32mx/lib/mips16\libc.a(fflush.o)
 .debug_line    0x00014086       0x7f c:/program files (x86)/microchip/xc32/v1.22/bin/../lib/gcc/pic32mx/4.5.2/../../../../pic32mx/lib/mips16\libc.a(fgetc.o)
 .debug_line    0x00014105        0x0 c:/program files (x86)/microchip/xc32/v1.22/bin/../lib/gcc/pic32mx/4.5.2/../../../../pic32mx/lib/mips16\libc.a(powersf.o)
 .debug_line    0x00014105       0x81 c:/program files (x86)/microchip/xc32/v1.22/bin/../lib/gcc/pic32mx/4.5.2/../../../../pic32mx/lib/mips16\libc.a(strcspn.o)
 .debug_line    0x00014186       0x81 c:/program files (x86)/microchip/xc32/v1.22/bin/../lib/gcc/pic32mx/4.5.2/../../../../pic32mx/lib/mips16\libc.a(strncmp.o)
 .debug_line    0x00014207       0x80 c:/program files (x86)/microchip/xc32/v1.22/bin/../lib/gcc/pic32mx/4.5.2/../../../../pic32mx/lib/mips16\libc.a(strspn.o)
 .debug_line    0x00014287       0x80 c:/program files (x86)/microchip/xc32/v1.22/bin/../lib/gcc/pic32mx/4.5.2/../../../../pic32mx/lib/mips16\libc.a(doprnt_cdnopsuxX.eo)
 .debug_line    0x00014307       0x80 c:/program files (x86)/microchip/xc32/v1.22/bin/../lib/gcc/pic32mx/4.5.2/../../../../pic32mx/lib/mips16\libc.a(filbuf.o)
 .debug_line    0x00014387       0x78 c:/program files (x86)/microchip/xc32/v1.22/bin/../lib/gcc/pic32mx/4.5.2/../../../../pic32mx/lib/mips16\libpic32.a(sbrk.o)
 .debug_line    0x000143ff       0x78 c:/program files (x86)/microchip/xc32/v1.22/bin/../lib/gcc/pic32mx/4.5.2/../../../../pic32mx/lib/mips16\libpic32.a(read.o)
 .debug_line    0x00014477       0x79 c:/program files (x86)/microchip/xc32/v1.22/bin/../lib/gcc/pic32mx/4.5.2/../../../../pic32mx/lib/mips16\libpic32.a(write.o)
 .debug_line    0x000144f0       0x79 c:/program files (x86)/microchip/xc32/v1.22/bin/../lib/gcc/pic32mx/4.5.2/../../../../pic32mx/lib/mips16\libpic32.a(lseek.o)
 .debug_line    0x00014569        0x0 c:/program files (x86)/microchip/xc32/v1.22/bin/../lib/gcc/pic32mx/4.5.2/../../../../pic32mx/lib/mips16\libpic32.a(xc32_uart.o)
 .debug_line    0x00014569       0x7d c:/program files (x86)/microchip/xc32/v1.22/bin/../lib/gcc/pic32mx/4.5.2/../../../../pic32mx/lib/mips16\libpic32.a(_mon_putc.o)
 .debug_line    0x000145e6       0x7f c:/program files (x86)/microchip/xc32/v1.22/bin/../lib/gcc/pic32mx/4.5.2/../../../../pic32mx/lib/mips16\libe.a(_unorddf2.o)
 .debug_line    0x00014665       0x80 c:/program files (x86)/microchip/xc32/v1.22/bin/../lib/gcc/pic32mx/4.5.2/../../../../pic32mx/lib/mips16\libe.a(_strtod.o)
 .debug_line    0x000146e5       0x93 c:/program files (x86)/microchip/xc32/v1.22/bin/../lib/gcc/pic32mx/4.5.2/../../../../pic32mx/lib/mips16\libe.a(_ldexp.o)
 .debug_line    0x00014778       0xc2 c:/program files (x86)/microchip/xc32/v1.22/bin/../lib/gcc/pic32mx/4.5.2/mips16\libgcc.a(_lshrdi3.o)
 .debug_line    0x0001483a       0xe0 c:/program files (x86)/microchip/xc32/v1.22/bin/../lib/gcc/pic32mx/4.5.2/mips16\libgcc.a(_floatundisf.o)
 .debug_line    0x0001491a       0x72 c:/program files (x86)/microchip/xc32/v1.22/bin/../lib/gcc/pic32mx/4.5.2/mips16\libgcc.a(floatunsisf.o)

.debug_frame    0x00000000     0xa084
 *(.debug_frame)
 .debug_frame   0x00000000      0x13c build/default/production/_ext/454704213/analog.o
 .debug_frame   0x0000013c      0x2b4 build/default/production/_ext/454704213/iosetting.o
 .debug_frame   0x000003f0       0x3c build/default/production/_ext/454704213/TimeDelay.o
 .debug_frame   0x0000042c      0x52c build/default/production/_ext/454704213/osc.o
 .debug_frame   0x00000958       0xb8 build/default/production/_ext/454704213/sram.o
 .debug_frame   0x00000a10       0xec build/default/production/_ext/1340694758/ARP.o
 .debug_frame   0x00000afc       0xf8 build/default/production/_ext/1340694758/DHCP.o
 .debug_frame   0x00000bf4      0x148 build/default/production/_ext/1340694758/DHCPs.o
 .debug_frame   0x00000d3c      0x140 build/default/production/_ext/1340694758/ETHPIC32ExtPhy.o
 .debug_frame   0x00000e7c       0x60 build/default/production/_ext/1340694758/ETHPIC32ExtPhyDP83848.o
 .debug_frame   0x00000edc      0x238 build/default/production/_ext/1340694758/ETHPIC32IntMac.o
 .debug_frame   0x00001114      0x154 build/default/production/_ext/1340694758/Helpers.o
 .debug_frame   0x00001268       0x2c build/default/production/_ext/1340694758/ICMP.o
 .debug_frame   0x00001294       0x80 build/default/production/_ext/1340694758/IP.o
 .debug_frame   0x00001314       0x58 build/default/production/_ext/1340694758/StackTsk.o
 .debug_frame   0x0000136c       0xac build/default/production/_ext/1340694758/Tick.o
 .debug_frame   0x00001418      0x1d4 build/default/production/_ext/1340694758/UDP.o
 .debug_frame   0x000015ec       0x2c build/default/production/_ext/1340694758/ZeroconfHelper.o
 .debug_frame   0x00001618       0xb8 build/default/production/_ext/1340694758/ZeroconfLinkLocal.o
 .debug_frame   0x000016d0      0x294 build/default/production/_ext/1340694758/ZeroconfMulticastDNS.o
 .debug_frame   0x00001964      0x248 build/default/production/_ext/1798056102/usb_device.o
 .debug_frame   0x00001bac       0x20 build/default/production/_ext/1798056102/usb_function_hid.o
 .debug_frame   0x00001bcc      0x3b4 build/default/production/_ext/1798056102/usb_host.o
 .debug_frame   0x00001f80       0xe8 build/default/production/_ext/1798056102/usb_host_cdc.o
 .debug_frame   0x00002068       0x88 build/default/production/_ext/1798056102/usb_host_cdc_interface.o
 .debug_frame   0x000020f0      0x1a0 build/default/production/_ext/1798056102/usb_host_hid.o
 .debug_frame   0x00002290       0xa0 build/default/production/_ext/1798056102/usb_host_hid_parser.o
 .debug_frame   0x00002330       0x80 build/default/production/_ext/1798056102/usb_host_midi.o
 .debug_frame   0x000023b0      0x6c8 build/default/production/picrouter.o
 .debug_frame   0x00002a78      0xd50 ..\mruby-1.0.0\build\PICrouter\lib\libmruby.a(class.o)
 .debug_frame   0x000037c8      0x378 ..\mruby-1.0.0\build\PICrouter\lib\libmruby.a(error.o)
 .debug_frame   0x00003b40      0x5d4 ..\mruby-1.0.0\build\PICrouter\lib\libmruby.a(gc.o)
 .debug_frame   0x00004114      0x7a4 ..\mruby-1.0.0\build\PICrouter\lib\libmruby.a(hash.o)
 .debug_frame   0x000048b8      0x768 ..\mruby-1.0.0\build\PICrouter\lib\libmruby.a(kernel.o)
 .debug_frame   0x00005020      0x2f8 ..\mruby-1.0.0\build\PICrouter\lib\libmruby.a(load.o)
 .debug_frame   0x00005318      0x4cc ..\mruby-1.0.0\build\PICrouter\lib\libmruby.a(object.o)
 .debug_frame   0x000057e4       0xa8 ..\mruby-1.0.0\build\PICrouter\lib\libmruby.a(print.o)
 .debug_frame   0x0000588c      0x1cc ..\mruby-1.0.0\build\PICrouter\lib\libmruby.a(proc.o)
 .debug_frame   0x00005a58      0x194 ..\mruby-1.0.0\build\PICrouter\lib\libmruby.a(state.o)
 .debug_frame   0x00005bec      0xba0 ..\mruby-1.0.0\build\PICrouter\lib\libmruby.a(string.o)
 .debug_frame   0x0000678c      0x40c ..\mruby-1.0.0\build\PICrouter\lib\libmruby.a(symbol.o)
 .debug_frame   0x00006b98      0x854 ..\mruby-1.0.0\build\PICrouter\lib\libmruby.a(variable.o)
 .debug_frame   0x000073ec      0x340 ..\mruby-1.0.0\build\PICrouter\lib\libmruby.a(vm.o)
 .debug_frame   0x0000772c      0x84c ..\mruby-1.0.0\build\PICrouter\lib\libmruby.a(array.o)
 .debug_frame   0x00007f78       0xbc ..\mruby-1.0.0\build\PICrouter\lib\libmruby.a(backtrace.o)
 .debug_frame   0x00008034       0x20 ..\mruby-1.0.0\build\PICrouter\lib\libmruby.a(crc.o)
 .debug_frame   0x00008054       0xc0 ..\mruby-1.0.0\build\PICrouter\lib\libmruby.a(debug.o)
 .debug_frame   0x00008114      0x154 ..\mruby-1.0.0\build\PICrouter\lib\libmruby.a(etc.o)
 .debug_frame   0x00008268       0x38 ..\mruby-1.0.0\build\PICrouter\lib\libmruby.a(init.o)
 .debug_frame   0x000082a0      0x730 ..\mruby-1.0.0\build\PICrouter\lib\libmruby.a(numeric.o)
 .debug_frame   0x000089d0      0x2e8 ..\mruby-1.0.0\build\PICrouter\lib\libmruby.a(range.o)
 .debug_frame   0x00008cb8       0x28 ..\mruby-1.0.0\build\PICrouter\lib\libmruby.a(mrblib.o)
 .debug_frame   0x00008ce0       0x28 ..\mruby-1.0.0\build\PICrouter\lib\libmruby.a(compar.o)
 .debug_frame   0x00008d08       0x28 ..\mruby-1.0.0\build\PICrouter\lib\libmruby.a(enum.o)
 .debug_frame   0x00008d30       0x20 c:/program files (x86)/microchip/xc32/v1.22/bin/../lib/gcc/pic32mx/4.5.2/../../../../pic32mx/lib/mips16\libmchp_peripheral.a(read_core_timer_lib.o)
 .debug_frame   0x00008d50       0xac c:/program files (x86)/microchip/xc32/v1.22/bin/../lib/gcc/pic32mx/4.5.2/../../../../pic32mx/lib/mips16\libmchp_peripheral_32MX795F512H.a(eth_ack_packet_lib.o)
 .debug_frame   0x00008dfc       0x58 c:/program files (x86)/microchip/xc32/v1.22/bin/../lib/gcc/pic32mx/4.5.2/../../../../pic32mx/lib/mips16\libmchp_peripheral_32MX795F512H.a(eth_descriptors_add_lib.o)
 .debug_frame   0x00008e54       0x28 c:/program files (x86)/microchip/xc32/v1.22/bin/../lib/gcc/pic32mx/4.5.2/../../../../pic32mx/lib/mips16\libmchp_peripheral_32MX795F512H.a(eth_init_lib.o)
 .debug_frame   0x00008e7c       0x20 c:/program files (x86)/microchip/xc32/v1.22/bin/../lib/gcc/pic32mx/4.5.2/../../../../pic32mx/lib/mips16\libmchp_peripheral_32MX795F512H.a(eth_mac_open_lib.o)
 .debug_frame   0x00008e9c       0x50 c:/program files (x86)/microchip/xc32/v1.22/bin/../lib/gcc/pic32mx/4.5.2/../../../../pic32mx/lib/mips16\libmchp_peripheral_32MX795F512H.a(eth_mac_set_address_max_lib.o)
 .debug_frame   0x00008eec       0x2c c:/program files (x86)/microchip/xc32/v1.22/bin/../lib/gcc/pic32mx/4.5.2/../../../../pic32mx/lib/mips16\libmchp_peripheral_32MX795F512H.a(eth_rx_buffers_append_lib.o)
 .debug_frame   0x00008f18       0x70 c:/program files (x86)/microchip/xc32/v1.22/bin/../lib/gcc/pic32mx/4.5.2/../../../../pic32mx/lib/mips16\libmchp_peripheral_32MX795F512H.a(eth_rx_filters_lib.o)
 .debug_frame   0x00008f88       0x40 c:/program files (x86)/microchip/xc32/v1.22/bin/../lib/gcc/pic32mx/4.5.2/../../../../pic32mx/lib/mips16\libmchp_peripheral_32MX795F512H.a(eth_rx_get_packet_lib.o)
 .debug_frame   0x00008fc8       0x20 c:/program files (x86)/microchip/xc32/v1.22/bin/../lib/gcc/pic32mx/4.5.2/../../../../pic32mx/lib/mips16\libmchp_peripheral_32MX795F512H.a(eth_rx_set_buffer_size_lib.o)
 .debug_frame   0x00008fe8       0x98 c:/program files (x86)/microchip/xc32/v1.22/bin/../lib/gcc/pic32mx/4.5.2/../../../../pic32mx/lib/mips16\libmchp_peripheral_32MX795F512H.a(eth_tx_packet_lib.o)
 .debug_frame   0x00009080       0x2c c:/program files (x86)/microchip/xc32/v1.22/bin/../lib/gcc/pic32mx/4.5.2/../../../../pic32mx/lib/mips16\libmchp_peripheral_32MX795F512H.a(_eth_append_busy_list_lib.o)
 .debug_frame   0x000090ac       0x78 c:/program files (x86)/microchip/xc32/v1.22/bin/../lib/gcc/pic32mx/4.5.2/../../../../pic32mx/lib/mips16\libmchp_peripheral_32MX795F512H.a(eth_miim_access.o)
 .debug_frame   0x00009124       0x28 c:/program files (x86)/microchip/xc32/v1.22/bin/../lib/gcc/pic32mx/4.5.2/../../../../pic32mx/lib/mips16\libmchp_peripheral_32MX795F512H.a(soft_reset_lib.o)
 .debug_frame   0x0000914c       0x30 c:/program files (x86)/microchip/xc32/v1.22/bin/../lib/gcc/pic32mx/4.5.2/../../../../pic32mx/lib/mips16\libmchp_peripheral_32MX795F512H.a(pcache.o)
 .debug_frame   0x0000917c       0x20 c:/program files (x86)/microchip/xc32/v1.22/bin/../lib/gcc/pic32mx/4.5.2/../../../../pic32mx/lib/mips16\libmchp_peripheral_32MX795F512H.a(int_disable_interrupts_lib.o)
 .debug_frame   0x0000919c       0x20 c:/program files (x86)/microchip/xc32/v1.22/bin/../lib/gcc/pic32mx/4.5.2/../../../../pic32mx/lib/mips16\libmchp_peripheral_32MX795F512H.a(int_restore_interrupts_lib.o)
 .debug_frame   0x000091bc       0x28 c:/program files (x86)/microchip/xc32/v1.22/bin/../lib/gcc/pic32mx/4.5.2/../../../../pic32mx/lib/mips16\libmchp_peripheral_32MX795F512H.a(int_enable_mv_int_lib.o)
 .debug_frame   0x000091e4       0xa0 c:/program files (x86)/microchip/xc32/v1.22/bin/../lib/gcc/pic32mx/4.5.2/../../../../pic32mx/lib/mips16\libmchp_peripheral_32MX795F512H.a(int_tbl_lib.o)
 .debug_frame   0x00009284       0x2c c:/program files (x86)/microchip/xc32/v1.22/bin/../lib/gcc/pic32mx/4.5.2/../../../../pic32mx/lib/mips16\libmchp_peripheral_32MX795F512H.a(spi_chn_close_lib.o)
 .debug_frame   0x000092b0       0x34 c:/program files (x86)/microchip/xc32/v1.22/bin/../lib/gcc/pic32mx/4.5.2/../../../../pic32mx/lib/mips16\libmchp_peripheral_32MX795F512H.a(spi_chn_open_lib.o)
 .debug_frame   0x000092e4       0x20 c:/program files (x86)/microchip/xc32/v1.22/bin/../lib/gcc/pic32mx/4.5.2/../../../../pic32mx/lib/mips16\libmchp_peripheral_32MX795F512H.a(spi_getc_spi2_lib_legacy.o)
 .debug_frame   0x00009304       0x28 c:/program files (x86)/microchip/xc32/v1.22/bin/../lib/gcc/pic32mx/4.5.2/../../../../pic32mx/lib/mips16\libmchp_peripheral_32MX795F512H.a(nvm_erase_page_lib.o)
 .debug_frame   0x0000932c       0x28 c:/program files (x86)/microchip/xc32/v1.22/bin/../lib/gcc/pic32mx/4.5.2/../../../../pic32mx/lib/mips16\libmchp_peripheral_32MX795F512H.a(nvm_operation_lib.o)
 .debug_frame   0x00009354       0x28 c:/program files (x86)/microchip/xc32/v1.22/bin/../lib/gcc/pic32mx/4.5.2/../../../../pic32mx/lib/mips16\libmchp_peripheral_32MX795F512H.a(nvm_write_word_lib.o)
 .debug_frame   0x0000937c       0x20 c:/program files (x86)/microchip/xc32/v1.22/bin/../lib/gcc/pic32mx/4.5.2/../../../../pic32mx/lib/mips16\libmchp_peripheral_32MX795F512H.a(port_reset_pins_lib.o)
 .debug_frame   0x0000939c       0x20 c:/program files (x86)/microchip/xc32/v1.22/bin/../lib/gcc/pic32mx/4.5.2/../../../../pic32mx/lib/mips16\libmchp_peripheral_32MX795F512H.a(port_set_pins_digital_in_lib.o)
 .debug_frame   0x000093bc       0x20 c:/program files (x86)/microchip/xc32/v1.22/bin/../lib/gcc/pic32mx/4.5.2/../../../../pic32mx/lib/mips16\libmchp_peripheral_32MX795F512H.a(port_set_pins_digital_out_lib.o)
 .debug_frame   0x000093dc       0x20 c:/program files (x86)/microchip/xc32/v1.22/bin/../lib/gcc/pic32mx/4.5.2/../../../../pic32mx/lib/mips16\libmchp_peripheral_32MX795F512H.a(I2CConfigure.o)
 .debug_frame   0x000093fc       0x20 c:/program files (x86)/microchip/xc32/v1.22/bin/../lib/gcc/pic32mx/4.5.2/../../../../pic32mx/lib/mips16\libmchp_peripheral_32MX795F512H.a(I2CEnable.o)
 .debug_frame   0x0000941c       0x20 c:/program files (x86)/microchip/xc32/v1.22/bin/../lib/gcc/pic32mx/4.5.2/../../../../pic32mx/lib/mips16\libmchp_peripheral_32MX795F512H.a(I2CSetFrequency.o)
 .debug_frame   0x0000943c       0x20 c:/program files (x86)/microchip/xc32/v1.22/bin/../lib/gcc/pic32mx/4.5.2/../../../../pic32mx/lib/mips16\libmchp_peripheral_32MX795F512H.a(I2CSetSlaveAddress.o)
 .debug_frame   0x0000945c       0x20 c:/program files (x86)/microchip/xc32/v1.22/bin/../lib/gcc/pic32mx/4.5.2/../../../../pic32mx/lib/mips16\libmchp_peripheral_32MX795F512H.a(int_enable_interrupts_lib.o)
 .debug_frame   0x0000947c       0x2c c:/program files (x86)/microchip/xc32/v1.22/bin/../lib/gcc/pic32mx/4.5.2/mips16\libgcc.a(_floatdisf.o)
 .debug_frame   0x000094a8       0x28 c:/program files (x86)/microchip/xc32/v1.22/bin/../lib/gcc/pic32mx/4.5.2/mips16\libgcc.a(_udivdi3.o)
 .debug_frame   0x000094d0       0x28 c:/program files (x86)/microchip/xc32/v1.22/bin/../lib/gcc/pic32mx/4.5.2/mips16\libgcc.a(_umoddi3.o)
 .debug_frame   0x000094f8       0x20 c:/program files (x86)/microchip/xc32/v1.22/bin/../lib/gcc/pic32mx/4.5.2/../../../../pic32mx/lib/mips16\libpic32.a(default-bootstrap-exception-handler.o)
 .debug_frame   0x00009518       0x20 c:/program files (x86)/microchip/xc32/v1.22/bin/../lib/gcc/pic32mx/4.5.2/../../../../pic32mx/lib/mips16\libpic32.a(default-on-reset.o)
 .debug_frame   0x00009538       0x20 c:/program files (x86)/microchip/xc32/v1.22/bin/../lib/gcc/pic32mx/4.5.2/../../../../pic32mx/lib/mips16\libpic32.a(default-on-bootstrap.o)
 .debug_frame   0x00009558       0x2c c:/program files (x86)/microchip/xc32/v1.22/bin/../lib/gcc/pic32mx/4.5.2/../../../../pic32mx/lib/mips16\libm.a(w_powf.o)
 .debug_frame   0x00009584       0x28 c:/program files (x86)/microchip/xc32/v1.22/bin/../lib/gcc/pic32mx/4.5.2/../../../../pic32mx/lib/mips16\libm.a(w_log10f.o)
 .debug_frame   0x000095ac       0x38 c:/program files (x86)/microchip/xc32/v1.22/bin/../lib/gcc/pic32mx/4.5.2/../../../../pic32mx/lib/mips16\libe.a(_unordsf2.o)
 .debug_frame   0x000095e4       0x90 c:/program files (x86)/microchip/xc32/v1.22/bin/../lib/gcc/pic32mx/4.5.2/../../../../pic32mx/lib/mips16\libpic32.a(isinf.o)
 .debug_frame   0x00009674       0x2c c:/program files (x86)/microchip/xc32/v1.22/bin/../lib/gcc/pic32mx/4.5.2/../../../../pic32mx/lib/mips16\libc.a(_fputc_simple.o)
 .debug_frame   0x000096a0       0x34 c:/program files (x86)/microchip/xc32/v1.22/bin/../lib/gcc/pic32mx/4.5.2/../../../../pic32mx/lib/mips16\libc.a(fread.o)
 .debug_frame   0x000096d4       0x60 c:/program files (x86)/microchip/xc32/v1.22/bin/../lib/gcc/pic32mx/4.5.2/../../../../pic32mx/lib/mips16\libc.a(fseek.o)
 .debug_frame   0x00009734       0x34 c:/program files (x86)/microchip/xc32/v1.22/bin/../lib/gcc/pic32mx/4.5.2/../../../../pic32mx/lib/mips16\libc.a(fwrite.o)
 .debug_frame   0x00009768       0x28 c:/program files (x86)/microchip/xc32/v1.22/bin/../lib/gcc/pic32mx/4.5.2/../../../../pic32mx/lib/mips16\libc.a(atoi.o)
 .debug_frame   0x00009790       0x28 c:/program files (x86)/microchip/xc32/v1.22/bin/../lib/gcc/pic32mx/4.5.2/../../../../pic32mx/lib/mips16\libc.a(calloc.o)
 .debug_frame   0x000097b8      0x120 c:/program files (x86)/microchip/xc32/v1.22/bin/../lib/gcc/pic32mx/4.5.2/../../../../pic32mx/lib/mips16\libc.a(ctypef.o)
 .debug_frame   0x000098d8       0x58 c:/program files (x86)/microchip/xc32/v1.22/bin/../lib/gcc/pic32mx/4.5.2/../../../../pic32mx/lib/mips16\libc.a(malloc.o)
 .debug_frame   0x00009930       0x20 c:/program files (x86)/microchip/xc32/v1.22/bin/../lib/gcc/pic32mx/4.5.2/../../../../pic32mx/lib/mips16\libc.a(memchr.o)
 .debug_frame   0x00009950       0x20 c:/program files (x86)/microchip/xc32/v1.22/bin/../lib/gcc/pic32mx/4.5.2/../../../../pic32mx/lib/mips16\libc.a(memcmp.o)
 .debug_frame   0x00009970       0x20 c:/program files (x86)/microchip/xc32/v1.22/bin/../lib/gcc/pic32mx/4.5.2/../../../../pic32mx/lib/mips16\libc.a(memcpy.o)
 .debug_frame   0x00009990       0x20 c:/program files (x86)/microchip/xc32/v1.22/bin/../lib/gcc/pic32mx/4.5.2/../../../../pic32mx/lib/mips16\libc.a(memmove.o)
 .debug_frame   0x000099b0       0x20 c:/program files (x86)/microchip/xc32/v1.22/bin/../lib/gcc/pic32mx/4.5.2/../../../../pic32mx/lib/mips16\libc.a(memset.o)
 .debug_frame   0x000099d0       0x50 c:/program files (x86)/microchip/xc32/v1.22/bin/../lib/gcc/pic32mx/4.5.2/../../../../pic32mx/lib/mips16\libc.a(signal.o)
 .debug_frame   0x00009a20       0x20 c:/program files (x86)/microchip/xc32/v1.22/bin/../lib/gcc/pic32mx/4.5.2/../../../../pic32mx/lib/mips16\libc.a(strchr.o)
 .debug_frame   0x00009a40       0x20 c:/program files (x86)/microchip/xc32/v1.22/bin/../lib/gcc/pic32mx/4.5.2/../../../../pic32mx/lib/mips16\libc.a(strcmp.o)
 .debug_frame   0x00009a60       0x20 c:/program files (x86)/microchip/xc32/v1.22/bin/../lib/gcc/pic32mx/4.5.2/../../../../pic32mx/lib/mips16\libc.a(strlen.o)
 .debug_frame   0x00009a80       0x20 c:/program files (x86)/microchip/xc32/v1.22/bin/../lib/gcc/pic32mx/4.5.2/../../../../pic32mx/lib/mips16\libc.a(strncpy.o)
 .debug_frame   0x00009aa0       0x40 c:/program files (x86)/microchip/xc32/v1.22/bin/../lib/gcc/pic32mx/4.5.2/../../../../pic32mx/lib/mips16\libc.a(strtod.o)
 .debug_frame   0x00009ae0       0x2c c:/program files (x86)/microchip/xc32/v1.22/bin/../lib/gcc/pic32mx/4.5.2/../../../../pic32mx/lib/mips16\libc.a(strstr.o)
 .debug_frame   0x00009b0c       0x2c c:/program files (x86)/microchip/xc32/v1.22/bin/../lib/gcc/pic32mx/4.5.2/../../../../pic32mx/lib/mips16\libc.a(strtok.o)
 .debug_frame   0x00009b38       0x4c c:/program files (x86)/microchip/xc32/v1.22/bin/../lib/gcc/pic32mx/4.5.2/../../../../pic32mx/lib/mips16\libc.a(strtol.o)
 .debug_frame   0x00009b84       0x28 c:/program files (x86)/microchip/xc32/v1.22/bin/../lib/gcc/pic32mx/4.5.2/../../../../pic32mx/lib/mips16\libc.a(exit.o)
 .debug_frame   0x00009bac       0x6c c:/program files (x86)/microchip/xc32/v1.22/bin/../lib/gcc/pic32mx/4.5.2/../../../../pic32mx/lib/mips16\libc.a(doprnt.o)
 .debug_frame   0x00009c18       0x30 c:/program files (x86)/microchip/xc32/v1.22/bin/../lib/gcc/pic32mx/4.5.2/../../../../pic32mx/lib/mips16\libc.a(printf_cdnopuxX.eo)
 .debug_frame   0x00009c48       0x34 c:/program files (x86)/microchip/xc32/v1.22/bin/../lib/gcc/pic32mx/4.5.2/../../../../pic32mx/lib/mips16\libc.a(sprintf_cdnopsuxX.eo)
 .debug_frame   0x00009c7c       0x28 c:/program files (x86)/microchip/xc32/v1.22/bin/../lib/gcc/pic32mx/4.5.2/../../../../pic32mx/lib/mips16\libc.a(vsnprintf.o)
 .debug_frame   0x00009ca4       0x2c c:/program files (x86)/microchip/xc32/v1.22/bin/../lib/gcc/pic32mx/4.5.2/../../../../pic32mx/lib/mips16\libc.a(_flsbuf_simple.o)
 .debug_frame   0x00009cd0       0x20 c:/program files (x86)/microchip/xc32/v1.22/bin/../lib/gcc/pic32mx/4.5.2/../../../../pic32mx/lib/mips16\libc.a(stdclean_simple.o)
 .debug_frame   0x00009cf0       0x28 c:/program files (x86)/microchip/xc32/v1.22/bin/../lib/gcc/pic32mx/4.5.2/../../../../pic32mx/lib/mips16\libc.a(fflush.o)
 .debug_frame   0x00009d18       0x28 c:/program files (x86)/microchip/xc32/v1.22/bin/../lib/gcc/pic32mx/4.5.2/../../../../pic32mx/lib/mips16\libc.a(fgetc.o)
 .debug_frame   0x00009d40       0x30 c:/program files (x86)/microchip/xc32/v1.22/bin/../lib/gcc/pic32mx/4.5.2/../../../../pic32mx/lib/mips16\libc.a(strcspn.o)
 .debug_frame   0x00009d70       0x20 c:/program files (x86)/microchip/xc32/v1.22/bin/../lib/gcc/pic32mx/4.5.2/../../../../pic32mx/lib/mips16\libc.a(strncmp.o)
 .debug_frame   0x00009d90       0x30 c:/program files (x86)/microchip/xc32/v1.22/bin/../lib/gcc/pic32mx/4.5.2/../../../../pic32mx/lib/mips16\libc.a(strspn.o)
 .debug_frame   0x00009dc0       0x34 c:/program files (x86)/microchip/xc32/v1.22/bin/../lib/gcc/pic32mx/4.5.2/../../../../pic32mx/lib/mips16\libc.a(doprnt_cdnopsuxX.eo)
 .debug_frame   0x00009df4       0x2c c:/program files (x86)/microchip/xc32/v1.22/bin/../lib/gcc/pic32mx/4.5.2/../../../../pic32mx/lib/mips16\libc.a(filbuf.o)
 .debug_frame   0x00009e20       0x80 c:/program files (x86)/microchip/xc32/v1.22/bin/../lib/gcc/pic32mx/4.5.2/../../../../pic32mx/lib/mips16\libpic32.a(sbrk.o)
 .debug_frame   0x00009ea0       0x2c c:/program files (x86)/microchip/xc32/v1.22/bin/../lib/gcc/pic32mx/4.5.2/../../../../pic32mx/lib/mips16\libpic32.a(read.o)
 .debug_frame   0x00009ecc       0x28 c:/program files (x86)/microchip/xc32/v1.22/bin/../lib/gcc/pic32mx/4.5.2/../../../../pic32mx/lib/mips16\libpic32.a(write.o)
 .debug_frame   0x00009ef4       0x20 c:/program files (x86)/microchip/xc32/v1.22/bin/../lib/gcc/pic32mx/4.5.2/../../../../pic32mx/lib/mips16\libpic32.a(lseek.o)
 .debug_frame   0x00009f14       0x28 c:/program files (x86)/microchip/xc32/v1.22/bin/../lib/gcc/pic32mx/4.5.2/../../../../pic32mx/lib/mips16\libpic32.a(_mon_putc.o)
 .debug_frame   0x00009f3c       0x3c c:/program files (x86)/microchip/xc32/v1.22/bin/../lib/gcc/pic32mx/4.5.2/../../../../pic32mx/lib/mips16\libe.a(_unorddf2.o)
 .debug_frame   0x00009f78       0x40 c:/program files (x86)/microchip/xc32/v1.22/bin/../lib/gcc/pic32mx/4.5.2/../../../../pic32mx/lib/mips16\libe.a(_strtod.o)
 .debug_frame   0x00009fb8       0x58 c:/program files (x86)/microchip/xc32/v1.22/bin/../lib/gcc/pic32mx/4.5.2/../../../../pic32mx/lib/mips16\libe.a(_ldexp.o)
 .debug_frame   0x0000a010       0x20 c:/program files (x86)/microchip/xc32/v1.22/bin/../lib/gcc/pic32mx/4.5.2/mips16\libgcc.a(_lshrdi3.o)
 .debug_frame   0x0000a030       0x2c c:/program files (x86)/microchip/xc32/v1.22/bin/../lib/gcc/pic32mx/4.5.2/mips16\libgcc.a(_floatundisf.o)
 .debug_frame   0x0000a05c       0x28 c:/program files (x86)/microchip/xc32/v1.22/bin/../lib/gcc/pic32mx/4.5.2/mips16\libgcc.a(floatunsisf.o)

.debug_str      0x00000000     0x4a57
 *(.debug_str)
 .debug_str     0x00000000      0x134 build/default/production/_ext/454704213/analog.o
 .debug_str     0x00000134      0x321 build/default/production/_ext/454704213/iosetting.o
 .debug_str     0x00000455      0x12f build/default/production/_ext/454704213/TimeDelay.o
 .debug_str     0x00000584      0x12f build/default/production/_ext/454704213/usb_config.o
 .debug_str     0x000006b3      0x159 build/default/production/_ext/454704213/usb_descriptors.o
 .debug_str     0x0000080c      0x1c2 build/default/production/_ext/454704213/osc.o
 .debug_str     0x000009ce      0x154 build/default/production/_ext/454704213/sram.o
 .debug_str     0x00000b22      0x147 build/default/production/_ext/1340694758/ARP.o
 .debug_str     0x00000c69      0x177 build/default/production/_ext/1340694758/DHCP.o
 .debug_str     0x00000de0      0x181 build/default/production/_ext/1340694758/DHCPs.o
 .debug_str     0x00000f61      0x1bd build/default/production/_ext/1340694758/ETHPIC32ExtPhy.o
 .debug_str     0x0000111e      0x12f build/default/production/_ext/1340694758/ETHPIC32ExtPhyDP83848.o
 .debug_str     0x0000124d      0x1f9 build/default/production/_ext/1340694758/ETHPIC32IntMac.o
 .debug_str     0x00001446      0x142 build/default/production/_ext/1340694758/Helpers.o
 .debug_str     0x00001588      0x12f build/default/production/_ext/1340694758/ICMP.o
 .debug_str     0x000016b7      0x142 build/default/production/_ext/1340694758/IP.o
 .debug_str     0x000017f9      0x12f build/default/production/_ext/1340694758/NBNS.o
 .debug_str     0x00001928      0x144 build/default/production/_ext/1340694758/StackTsk.o
 .debug_str     0x00001a6c      0x14b build/default/production/_ext/1340694758/Tick.o
 .debug_str     0x00001bb7      0x1ae build/default/production/_ext/1340694758/UDP.o
 .debug_str     0x00001d65      0x12f build/default/production/_ext/1340694758/ZeroconfHelper.o
 .debug_str     0x00001e94      0x190 build/default/production/_ext/1340694758/ZeroconfLinkLocal.o
 .debug_str     0x00002024      0x1f3 build/default/production/_ext/1340694758/ZeroconfMulticastDNS.o
 .debug_str     0x00002217      0x3b1 build/default/production/_ext/1798056102/usb_device.o
 .debug_str     0x000025c8      0x193 build/default/production/_ext/1798056102/usb_function_hid.o
 .debug_str     0x0000275b      0x396 build/default/production/_ext/1798056102/usb_host.o
 .debug_str     0x00002af1      0x2a1 build/default/production/_ext/1798056102/usb_host_cdc.o
 .debug_str     0x00002d92      0x1ee build/default/production/_ext/1798056102/usb_host_cdc_interface.o
 .debug_str     0x00002f80      0x2f1 build/default/production/_ext/1798056102/usb_host_hid.o
 .debug_str     0x00003271      0x207 build/default/production/_ext/1798056102/usb_host_hid_parser.o
 .debug_str     0x00003478      0x183 build/default/production/_ext/1798056102/usb_host_midi.o
 .debug_str     0x000035fb      0xa3f build/default/production/picrouter.o
 .debug_str     0x0000403a        0x0 build/default/production/mrb_picrouter.o
 .debug_str     0x0000403a       0x7e ..\mruby-1.0.0\build\PICrouter\lib\libmruby.a(class.o)
 .debug_str     0x000040b8       0xa4 ..\mruby-1.0.0\build\PICrouter\lib\libmruby.a(error.o)
 .debug_str     0x0000415c       0x8c ..\mruby-1.0.0\build\PICrouter\lib\libmruby.a(gc.o)
 .debug_str     0x000041e8       0x48 ..\mruby-1.0.0\build\PICrouter\lib\libmruby.a(hash.o)
 .debug_str     0x00004230       0x99 ..\mruby-1.0.0\build\PICrouter\lib\libmruby.a(kernel.o)
 .debug_str     0x000042c9      0x166 ..\mruby-1.0.0\build\PICrouter\lib\libmruby.a(load.o)
 .debug_str     0x0000442f       0x3c ..\mruby-1.0.0\build\PICrouter\lib\libmruby.a(object.o)
 .debug_str     0x0000446b       0x30 ..\mruby-1.0.0\build\PICrouter\lib\libmruby.a(print.o)
 .debug_str     0x0000449b       0x4e ..\mruby-1.0.0\build\PICrouter\lib\libmruby.a(proc.o)
 .debug_str     0x000044e9       0x92 ..\mruby-1.0.0\build\PICrouter\lib\libmruby.a(state.o)
 .debug_str     0x0000457b       0x9b ..\mruby-1.0.0\build\PICrouter\lib\libmruby.a(string.o)
 .debug_str     0x00004616       0x41 ..\mruby-1.0.0\build\PICrouter\lib\libmruby.a(symbol.o)
 .debug_str     0x00004657       0x46 ..\mruby-1.0.0\build\PICrouter\lib\libmruby.a(variable.o)
 .debug_str     0x0000469d       0x73 ..\mruby-1.0.0\build\PICrouter\lib\libmruby.a(vm.o)
 .debug_str     0x00004710       0x57 ..\mruby-1.0.0\build\PICrouter\lib\libmruby.a(array.o)
 .debug_str     0x00004767       0xb7 ..\mruby-1.0.0\build\PICrouter\lib\libmruby.a(backtrace.o)
 .debug_str     0x0000481e        0x0 ..\mruby-1.0.0\build\PICrouter\lib\libmruby.a(crc.o)
 .debug_str     0x0000481e       0xaa ..\mruby-1.0.0\build\PICrouter\lib\libmruby.a(debug.o)
 .debug_str     0x000048c8       0x3e ..\mruby-1.0.0\build\PICrouter\lib\libmruby.a(etc.o)
 .debug_str     0x00004906       0x24 ..\mruby-1.0.0\build\PICrouter\lib\libmruby.a(init.o)
 .debug_str     0x0000492a       0x3e ..\mruby-1.0.0\build\PICrouter\lib\libmruby.a(numeric.o)
 .debug_str     0x00004968       0x46 ..\mruby-1.0.0\build\PICrouter\lib\libmruby.a(range.o)
 .debug_str     0x000049ae       0x30 ..\mruby-1.0.0\build\PICrouter\lib\libmruby.a(mrblib.o)
 .debug_str     0x000049de       0x24 ..\mruby-1.0.0\build\PICrouter\lib\libmruby.a(compar.o)
 .debug_str     0x00004a02       0x24 ..\mruby-1.0.0\build\PICrouter\lib\libmruby.a(enum.o)
 .debug_str     0x00004a26        0x0 c:/program files (x86)/microchip/xc32/v1.22/bin/../lib/gcc/pic32mx/4.5.2/../../../../pic32mx/lib/mips16\libmchp_peripheral.a(read_core_timer_lib.o)
 .debug_str     0x00004a26        0x0 c:/program files (x86)/microchip/xc32/v1.22/bin/../lib/gcc/pic32mx/4.5.2/../../../../pic32mx/lib/mips16\libmchp_peripheral_32MX795F512H.a(eth_ack_packet_lib.o)
 .debug_str     0x00004a26        0x0 c:/program files (x86)/microchip/xc32/v1.22/bin/../lib/gcc/pic32mx/4.5.2/../../../../pic32mx/lib/mips16\libmchp_peripheral_32MX795F512H.a(eth_descriptors_add_lib.o)
 .debug_str     0x00004a26        0x0 c:/program files (x86)/microchip/xc32/v1.22/bin/../lib/gcc/pic32mx/4.5.2/../../../../pic32mx/lib/mips16\libmchp_peripheral_32MX795F512H.a(eth_init_lib.o)
 .debug_str     0x00004a26        0x0 c:/program files (x86)/microchip/xc32/v1.22/bin/../lib/gcc/pic32mx/4.5.2/../../../../pic32mx/lib/mips16\libmchp_peripheral_32MX795F512H.a(eth_mac_open_lib.o)
 .debug_str     0x00004a26        0x0 c:/program files (x86)/microchip/xc32/v1.22/bin/../lib/gcc/pic32mx/4.5.2/../../../../pic32mx/lib/mips16\libmchp_peripheral_32MX795F512H.a(eth_mac_set_address_max_lib.o)
 .debug_str     0x00004a26        0x0 c:/program files (x86)/microchip/xc32/v1.22/bin/../lib/gcc/pic32mx/4.5.2/../../../../pic32mx/lib/mips16\libmchp_peripheral_32MX795F512H.a(eth_rx_buffers_append_lib.o)
 .debug_str     0x00004a26        0x0 c:/program files (x86)/microchip/xc32/v1.22/bin/../lib/gcc/pic32mx/4.5.2/../../../../pic32mx/lib/mips16\libmchp_peripheral_32MX795F512H.a(eth_rx_filters_lib.o)
 .debug_str     0x00004a26        0x0 c:/program files (x86)/microchip/xc32/v1.22/bin/../lib/gcc/pic32mx/4.5.2/../../../../pic32mx/lib/mips16\libmchp_peripheral_32MX795F512H.a(eth_rx_get_packet_lib.o)
 .debug_str     0x00004a26        0x0 c:/program files (x86)/microchip/xc32/v1.22/bin/../lib/gcc/pic32mx/4.5.2/../../../../pic32mx/lib/mips16\libmchp_peripheral_32MX795F512H.a(eth_rx_set_buffer_size_lib.o)
 .debug_str     0x00004a26        0x0 c:/program files (x86)/microchip/xc32/v1.22/bin/../lib/gcc/pic32mx/4.5.2/../../../../pic32mx/lib/mips16\libmchp_peripheral_32MX795F512H.a(eth_tx_packet_lib.o)
 .debug_str     0x00004a26        0x0 c:/program files (x86)/microchip/xc32/v1.22/bin/../lib/gcc/pic32mx/4.5.2/../../../../pic32mx/lib/mips16\libmchp_peripheral_32MX795F512H.a(_eth_append_busy_list_lib.o)
 .debug_str     0x00004a26        0x0 c:/program files (x86)/microchip/xc32/v1.22/bin/../lib/gcc/pic32mx/4.5.2/../../../../pic32mx/lib/mips16\libmchp_peripheral_32MX795F512H.a(eth_miim_access.o)
 .debug_str     0x00004a26        0x0 c:/program files (x86)/microchip/xc32/v1.22/bin/../lib/gcc/pic32mx/4.5.2/../../../../pic32mx/lib/mips16\libmchp_peripheral_32MX795F512H.a(soft_reset_lib.o)
 .debug_str     0x00004a26        0x0 c:/program files (x86)/microchip/xc32/v1.22/bin/../lib/gcc/pic32mx/4.5.2/../../../../pic32mx/lib/mips16\libmchp_peripheral_32MX795F512H.a(pcache.o)
 .debug_str     0x00004a26        0x0 c:/program files (x86)/microchip/xc32/v1.22/bin/../lib/gcc/pic32mx/4.5.2/../../../../pic32mx/lib/mips16\libmchp_peripheral_32MX795F512H.a(int_disable_interrupts_lib.o)
 .debug_str     0x00004a26        0x0 c:/program files (x86)/microchip/xc32/v1.22/bin/../lib/gcc/pic32mx/4.5.2/../../../../pic32mx/lib/mips16\libmchp_peripheral_32MX795F512H.a(int_restore_interrupts_lib.o)
 .debug_str     0x00004a26        0x0 c:/program files (x86)/microchip/xc32/v1.22/bin/../lib/gcc/pic32mx/4.5.2/../../../../pic32mx/lib/mips16\libmchp_peripheral_32MX795F512H.a(int_enable_mv_int_lib.o)
 .debug_str     0x00004a26        0x0 c:/program files (x86)/microchip/xc32/v1.22/bin/../lib/gcc/pic32mx/4.5.2/../../../../pic32mx/lib/mips16\libmchp_peripheral_32MX795F512H.a(int_tbl_lib.o)
 .debug_str     0x00004a26        0x0 c:/program files (x86)/microchip/xc32/v1.22/bin/../lib/gcc/pic32mx/4.5.2/../../../../pic32mx/lib/mips16\libmchp_peripheral_32MX795F512H.a(spi_chn_close_lib.o)
 .debug_str     0x00004a26        0x0 c:/program files (x86)/microchip/xc32/v1.22/bin/../lib/gcc/pic32mx/4.5.2/../../../../pic32mx/lib/mips16\libmchp_peripheral_32MX795F512H.a(spi_chn_open_lib.o)
 .debug_str     0x00004a26        0x0 c:/program files (x86)/microchip/xc32/v1.22/bin/../lib/gcc/pic32mx/4.5.2/../../../../pic32mx/lib/mips16\libmchp_peripheral_32MX795F512H.a(spi_io_tbl_libp.o)
 .debug_str     0x00004a26        0x0 c:/program files (x86)/microchip/xc32/v1.22/bin/../lib/gcc/pic32mx/4.5.2/../../../../pic32mx/lib/mips16\libmchp_peripheral_32MX795F512H.a(spi_map_tbl_libp.o)
 .debug_str     0x00004a26        0x0 c:/program files (x86)/microchip/xc32/v1.22/bin/../lib/gcc/pic32mx/4.5.2/../../../../pic32mx/lib/mips16\libmchp_peripheral_32MX795F512H.a(spi_getc_spi2_lib_legacy.o)
 .debug_str     0x00004a26        0x0 c:/program files (x86)/microchip/xc32/v1.22/bin/../lib/gcc/pic32mx/4.5.2/../../../../pic32mx/lib/mips16\libmchp_peripheral_32MX795F512H.a(nvm_erase_page_lib.o)
 .debug_str     0x00004a26        0x0 c:/program files (x86)/microchip/xc32/v1.22/bin/../lib/gcc/pic32mx/4.5.2/../../../../pic32mx/lib/mips16\libmchp_peripheral_32MX795F512H.a(nvm_operation_lib.o)
 .debug_str     0x00004a26        0x0 c:/program files (x86)/microchip/xc32/v1.22/bin/../lib/gcc/pic32mx/4.5.2/../../../../pic32mx/lib/mips16\libmchp_peripheral_32MX795F512H.a(nvm_write_word_lib.o)
 .debug_str     0x00004a26        0x0 c:/program files (x86)/microchip/xc32/v1.22/bin/../lib/gcc/pic32mx/4.5.2/../../../../pic32mx/lib/mips16\libmchp_peripheral_32MX795F512H.a(port_reset_pins_lib.o)
 .debug_str     0x00004a26        0x0 c:/program files (x86)/microchip/xc32/v1.22/bin/../lib/gcc/pic32mx/4.5.2/../../../../pic32mx/lib/mips16\libmchp_peripheral_32MX795F512H.a(port_set_pins_digital_in_lib.o)
 .debug_str     0x00004a26        0x0 c:/program files (x86)/microchip/xc32/v1.22/bin/../lib/gcc/pic32mx/4.5.2/../../../../pic32mx/lib/mips16\libmchp_peripheral_32MX795F512H.a(port_set_pins_digital_out_lib.o)
 .debug_str     0x00004a26        0x0 c:/program files (x86)/microchip/xc32/v1.22/bin/../lib/gcc/pic32mx/4.5.2/../../../../pic32mx/lib/mips16\libmchp_peripheral_32MX795F512H.a(_ports_tbl_libp.o)
 .debug_str     0x00004a26        0x0 c:/program files (x86)/microchip/xc32/v1.22/bin/../lib/gcc/pic32mx/4.5.2/../../../../pic32mx/lib/mips16\libmchp_peripheral_32MX795F512H.a(I2CConfigure.o)
 .debug_str     0x00004a26        0x0 c:/program files (x86)/microchip/xc32/v1.22/bin/../lib/gcc/pic32mx/4.5.2/../../../../pic32mx/lib/mips16\libmchp_peripheral_32MX795F512H.a(I2CEnable.o)
 .debug_str     0x00004a26        0x0 c:/program files (x86)/microchip/xc32/v1.22/bin/../lib/gcc/pic32mx/4.5.2/../../../../pic32mx/lib/mips16\libmchp_peripheral_32MX795F512H.a(I2CSetFrequency.o)
 .debug_str     0x00004a26        0x0 c:/program files (x86)/microchip/xc32/v1.22/bin/../lib/gcc/pic32mx/4.5.2/../../../../pic32mx/lib/mips16\libmchp_peripheral_32MX795F512H.a(I2CSetSlaveAddress.o)
 .debug_str     0x00004a26        0x0 c:/program files (x86)/microchip/xc32/v1.22/bin/../lib/gcc/pic32mx/4.5.2/../../../../pic32mx/lib/mips16\libmchp_peripheral_32MX795F512H.a(int_enable_interrupts_lib.o)
 .debug_str     0x00004a26        0x0 c:/program files (x86)/microchip/xc32/v1.22/bin/../lib/gcc/pic32mx/4.5.2/../../../../pic32mx/lib/mips16\libmchp_peripheral_32MX795F512H.a(I2CPrivate.o)
 .debug_str     0x00004a26        0xa c:/program files (x86)/microchip/xc32/v1.22/bin/../lib/gcc/pic32mx/4.5.2/mips16\libgcc.a(_floatdisf.o)
 .debug_str     0x00004a30        0xa c:/program files (x86)/microchip/xc32/v1.22/bin/../lib/gcc/pic32mx/4.5.2/mips16\libgcc.a(_udivdi3.o)
 .debug_str     0x00004a3a        0xa c:/program files (x86)/microchip/xc32/v1.22/bin/../lib/gcc/pic32mx/4.5.2/mips16\libgcc.a(_umoddi3.o)
 .debug_str     0x00004a44        0x0 c:/program files (x86)/microchip/xc32/v1.22/bin/../lib/gcc/pic32mx/4.5.2/mips16\libgcc.a(_clz.o)
 .debug_str     0x00004a44        0x0 c:/program files (x86)/microchip/xc32/v1.22/bin/../lib/gcc/pic32mx/4.5.2/../../../../pic32mx/lib/mips16\libpic32.a(default-bootstrap-exception-handler.o)
 .debug_str     0x00004a44        0x0 c:/program files (x86)/microchip/xc32/v1.22/bin/../lib/gcc/pic32mx/4.5.2/../../../../pic32mx/lib/mips16\libpic32.a(default-on-reset.o)
 .debug_str     0x00004a44        0x0 c:/program files (x86)/microchip/xc32/v1.22/bin/../lib/gcc/pic32mx/4.5.2/../../../../pic32mx/lib/mips16\libpic32.a(default-on-bootstrap.o)
 .debug_str     0x00004a44        0x0 c:/program files (x86)/microchip/xc32/v1.22/bin/../lib/gcc/pic32mx/4.5.2/../../../../pic32mx/lib/mips16\libpic32.a(errno.o)
 .debug_str     0x00004a44        0x0 c:/program files (x86)/microchip/xc32/v1.22/bin/../lib/gcc/pic32mx/4.5.2/../../../../pic32mx/lib/mips16\libm.a(w_powf.o)
 .debug_str     0x00004a44        0x0 c:/program files (x86)/microchip/xc32/v1.22/bin/../lib/gcc/pic32mx/4.5.2/../../../../pic32mx/lib/mips16\libm.a(w_log10f.o)
 .debug_str     0x00004a44        0x0 c:/program files (x86)/microchip/xc32/v1.22/bin/../lib/gcc/pic32mx/4.5.2/../../../../pic32mx/lib/mips16\libm.a(s_lib_ver.o)
 .debug_str     0x00004a44        0x0 c:/program files (x86)/microchip/xc32/v1.22/bin/../lib/gcc/pic32mx/4.5.2/../../../../pic32mx/lib/mips16\libe.a(_unordsf2.o)
 .debug_str     0x00004a44        0x0 c:/program files (x86)/microchip/xc32/v1.22/bin/../lib/gcc/pic32mx/4.5.2/../../../../pic32mx/lib/mips16\libpic32.a(isinf.o)
 .debug_str     0x00004a44        0x0 c:/program files (x86)/microchip/xc32/v1.22/bin/../lib/gcc/pic32mx/4.5.2/../../../../pic32mx/lib/mips16\libc.a(_iob.o)
 .debug_str     0x00004a44        0x0 c:/program files (x86)/microchip/xc32/v1.22/bin/../lib/gcc/pic32mx/4.5.2/../../../../pic32mx/lib/mips16\libc.a(_fputc_simple.o)
 .debug_str     0x00004a44        0x0 c:/program files (x86)/microchip/xc32/v1.22/bin/../lib/gcc/pic32mx/4.5.2/../../../../pic32mx/lib/mips16\libc.a(fread.o)
 .debug_str     0x00004a44        0x0 c:/program files (x86)/microchip/xc32/v1.22/bin/../lib/gcc/pic32mx/4.5.2/../../../../pic32mx/lib/mips16\libc.a(fseek.o)
 .debug_str     0x00004a44        0x0 c:/program files (x86)/microchip/xc32/v1.22/bin/../lib/gcc/pic32mx/4.5.2/../../../../pic32mx/lib/mips16\libc.a(fwrite.o)
 .debug_str     0x00004a44        0x0 c:/program files (x86)/microchip/xc32/v1.22/bin/../lib/gcc/pic32mx/4.5.2/../../../../pic32mx/lib/mips16\libc.a(atoi.o)
 .debug_str     0x00004a44        0x0 c:/program files (x86)/microchip/xc32/v1.22/bin/../lib/gcc/pic32mx/4.5.2/../../../../pic32mx/lib/mips16\libc.a(calloc.o)
 .debug_str     0x00004a44        0x0 c:/program files (x86)/microchip/xc32/v1.22/bin/../lib/gcc/pic32mx/4.5.2/../../../../pic32mx/lib/mips16\libc.a(ctype.o)
 .debug_str     0x00004a44        0x0 c:/program files (x86)/microchip/xc32/v1.22/bin/../lib/gcc/pic32mx/4.5.2/../../../../pic32mx/lib/mips16\libc.a(ctypef.o)
 .debug_str     0x00004a44        0x0 c:/program files (x86)/microchip/xc32/v1.22/bin/../lib/gcc/pic32mx/4.5.2/../../../../pic32mx/lib/mips16\libc.a(malloc.o)
 .debug_str     0x00004a44        0x0 c:/program files (x86)/microchip/xc32/v1.22/bin/../lib/gcc/pic32mx/4.5.2/../../../../pic32mx/lib/mips16\libc.a(memchr.o)
 .debug_str     0x00004a44        0x0 c:/program files (x86)/microchip/xc32/v1.22/bin/../lib/gcc/pic32mx/4.5.2/../../../../pic32mx/lib/mips16\libc.a(memcmp.o)
 .debug_str     0x00004a44        0x0 c:/program files (x86)/microchip/xc32/v1.22/bin/../lib/gcc/pic32mx/4.5.2/../../../../pic32mx/lib/mips16\libc.a(memcpy.o)
 .debug_str     0x00004a44        0x0 c:/program files (x86)/microchip/xc32/v1.22/bin/../lib/gcc/pic32mx/4.5.2/../../../../pic32mx/lib/mips16\libc.a(memmove.o)
 .debug_str     0x00004a44        0x0 c:/program files (x86)/microchip/xc32/v1.22/bin/../lib/gcc/pic32mx/4.5.2/../../../../pic32mx/lib/mips16\libc.a(memset.o)
 .debug_str     0x00004a44        0x0 c:/program files (x86)/microchip/xc32/v1.22/bin/../lib/gcc/pic32mx/4.5.2/../../../../pic32mx/lib/mips16\libc.a(signal.o)
 .debug_str     0x00004a44        0x0 c:/program files (x86)/microchip/xc32/v1.22/bin/../lib/gcc/pic32mx/4.5.2/../../../../pic32mx/lib/mips16\libc.a(strchr.o)
 .debug_str     0x00004a44        0x0 c:/program files (x86)/microchip/xc32/v1.22/bin/../lib/gcc/pic32mx/4.5.2/../../../../pic32mx/lib/mips16\libc.a(strcmp.o)
 .debug_str     0x00004a44        0x0 c:/program files (x86)/microchip/xc32/v1.22/bin/../lib/gcc/pic32mx/4.5.2/../../../../pic32mx/lib/mips16\libc.a(strlen.o)
 .debug_str     0x00004a44        0x0 c:/program files (x86)/microchip/xc32/v1.22/bin/../lib/gcc/pic32mx/4.5.2/../../../../pic32mx/lib/mips16\libc.a(strncpy.o)
 .debug_str     0x00004a44        0x9 c:/program files (x86)/microchip/xc32/v1.22/bin/../lib/gcc/pic32mx/4.5.2/../../../../pic32mx/lib/mips16\libc.a(strtod.o)
 .debug_str     0x00004a4d        0x0 c:/program files (x86)/microchip/xc32/v1.22/bin/../lib/gcc/pic32mx/4.5.2/../../../../pic32mx/lib/mips16\libc.a(strstr.o)
 .debug_str     0x00004a4d        0x0 c:/program files (x86)/microchip/xc32/v1.22/bin/../lib/gcc/pic32mx/4.5.2/../../../../pic32mx/lib/mips16\libc.a(strtok.o)
 .debug_str     0x00004a4d        0x0 c:/program files (x86)/microchip/xc32/v1.22/bin/../lib/gcc/pic32mx/4.5.2/../../../../pic32mx/lib/mips16\libc.a(strtol.o)
 .debug_str     0x00004a4d        0x0 c:/program files (x86)/microchip/xc32/v1.22/bin/../lib/gcc/pic32mx/4.5.2/../../../../pic32mx/lib/mips16\libc.a(exit.o)
 .debug_str     0x00004a4d        0x0 c:/program files (x86)/microchip/xc32/v1.22/bin/../lib/gcc/pic32mx/4.5.2/../../../../pic32mx/lib/mips16\libc.a(doprnt.o)
 .debug_str     0x00004a4d        0x0 c:/program files (x86)/microchip/xc32/v1.22/bin/../lib/gcc/pic32mx/4.5.2/../../../../pic32mx/lib/mips16\libc.a(printf_cdnopuxX.eo)
 .debug_str     0x00004a4d        0x0 c:/program files (x86)/microchip/xc32/v1.22/bin/../lib/gcc/pic32mx/4.5.2/../../../../pic32mx/lib/mips16\libc.a(sprintf_cdnopsuxX.eo)
 .debug_str     0x00004a4d        0x0 c:/program files (x86)/microchip/xc32/v1.22/bin/../lib/gcc/pic32mx/4.5.2/../../../../pic32mx/lib/mips16\libc.a(vsnprintf.o)
 .debug_str     0x00004a4d        0x0 c:/program files (x86)/microchip/xc32/v1.22/bin/../lib/gcc/pic32mx/4.5.2/../../../../pic32mx/lib/mips16\libc.a(_flsbuf_simple.o)
 .debug_str     0x00004a4d        0x0 c:/program files (x86)/microchip/xc32/v1.22/bin/../lib/gcc/pic32mx/4.5.2/../../../../pic32mx/lib/mips16\libc.a(stdclean_simple.o)
 .debug_str     0x00004a4d        0x0 c:/program files (x86)/microchip/xc32/v1.22/bin/../lib/gcc/pic32mx/4.5.2/../../../../pic32mx/lib/mips16\libc.a(fflush.o)
 .debug_str     0x00004a4d        0x0 c:/program files (x86)/microchip/xc32/v1.22/bin/../lib/gcc/pic32mx/4.5.2/../../../../pic32mx/lib/mips16\libc.a(fgetc.o)
 .debug_str     0x00004a4d        0x0 c:/program files (x86)/microchip/xc32/v1.22/bin/../lib/gcc/pic32mx/4.5.2/../../../../pic32mx/lib/mips16\libc.a(powersf.o)
 .debug_str     0x00004a4d        0x0 c:/program files (x86)/microchip/xc32/v1.22/bin/../lib/gcc/pic32mx/4.5.2/../../../../pic32mx/lib/mips16\libc.a(strcspn.o)
 .debug_str     0x00004a4d        0x0 c:/program files (x86)/microchip/xc32/v1.22/bin/../lib/gcc/pic32mx/4.5.2/../../../../pic32mx/lib/mips16\libc.a(strncmp.o)
 .debug_str     0x00004a4d        0x0 c:/program files (x86)/microchip/xc32/v1.22/bin/../lib/gcc/pic32mx/4.5.2/../../../../pic32mx/lib/mips16\libc.a(strspn.o)
 .debug_str     0x00004a4d        0x0 c:/program files (x86)/microchip/xc32/v1.22/bin/../lib/gcc/pic32mx/4.5.2/../../../../pic32mx/lib/mips16\libc.a(doprnt_cdnopsuxX.eo)
 .debug_str     0x00004a4d        0x0 c:/program files (x86)/microchip/xc32/v1.22/bin/../lib/gcc/pic32mx/4.5.2/../../../../pic32mx/lib/mips16\libc.a(filbuf.o)
 .debug_str     0x00004a4d        0x0 c:/program files (x86)/microchip/xc32/v1.22/bin/../lib/gcc/pic32mx/4.5.2/../../../../pic32mx/lib/mips16\libpic32.a(sbrk.o)
 .debug_str     0x00004a4d        0x0 c:/program files (x86)/microchip/xc32/v1.22/bin/../lib/gcc/pic32mx/4.5.2/../../../../pic32mx/lib/mips16\libpic32.a(read.o)
 .debug_str     0x00004a4d        0x0 c:/program files (x86)/microchip/xc32/v1.22/bin/../lib/gcc/pic32mx/4.5.2/../../../../pic32mx/lib/mips16\libpic32.a(write.o)
 .debug_str     0x00004a4d        0x0 c:/program files (x86)/microchip/xc32/v1.22/bin/../lib/gcc/pic32mx/4.5.2/../../../../pic32mx/lib/mips16\libpic32.a(lseek.o)
 .debug_str     0x00004a4d        0x0 c:/program files (x86)/microchip/xc32/v1.22/bin/../lib/gcc/pic32mx/4.5.2/../../../../pic32mx/lib/mips16\libpic32.a(xc32_uart.o)
 .debug_str     0x00004a4d        0x0 c:/program files (x86)/microchip/xc32/v1.22/bin/../lib/gcc/pic32mx/4.5.2/../../../../pic32mx/lib/mips16\libpic32.a(_mon_putc.o)
 .debug_str     0x00004a4d        0x0 c:/program files (x86)/microchip/xc32/v1.22/bin/../lib/gcc/pic32mx/4.5.2/../../../../pic32mx/lib/mips16\libe.a(_unorddf2.o)
 .debug_str     0x00004a4d        0x0 c:/program files (x86)/microchip/xc32/v1.22/bin/../lib/gcc/pic32mx/4.5.2/../../../../pic32mx/lib/mips16\libe.a(_strtod.o)
 .debug_str     0x00004a4d        0x0 c:/program files (x86)/microchip/xc32/v1.22/bin/../lib/gcc/pic32mx/4.5.2/../../../../pic32mx/lib/mips16\libe.a(_ldexp.o)
 .debug_str     0x00004a4d        0x0 c:/program files (x86)/microchip/xc32/v1.22/bin/../lib/gcc/pic32mx/4.5.2/mips16\libgcc.a(_lshrdi3.o)
 .debug_str     0x00004a4d        0xa c:/program files (x86)/microchip/xc32/v1.22/bin/../lib/gcc/pic32mx/4.5.2/mips16\libgcc.a(_floatundisf.o)
 .debug_str     0x00004a57        0x0 c:/program files (x86)/microchip/xc32/v1.22/bin/../lib/gcc/pic32mx/4.5.2/mips16\libgcc.a(floatunsisf.o)

.debug_loc      0x00000000    0x1d555
 *(.debug_loc)
 .debug_loc     0x00000000      0x262 build/default/production/_ext/454704213/analog.o
 .debug_loc     0x00000262      0x79c build/default/production/_ext/454704213/iosetting.o
 .debug_loc     0x000009fe       0xa1 build/default/production/_ext/454704213/TimeDelay.o
 .debug_loc     0x00000a9f      0x92f build/default/production/_ext/454704213/osc.o
 .debug_loc     0x000013ce      0x17d build/default/production/_ext/454704213/sram.o
 .debug_loc     0x0000154b      0x100 build/default/production/_ext/1340694758/ARP.o
 .debug_loc     0x0000164b      0x24d build/default/production/_ext/1340694758/DHCP.o
 .debug_loc     0x00001898      0x46e build/default/production/_ext/1340694758/DHCPs.o
 .debug_loc     0x00001d06      0x6c6 build/default/production/_ext/1340694758/ETHPIC32ExtPhy.o
 .debug_loc     0x000023cc       0xc5 build/default/production/_ext/1340694758/ETHPIC32ExtPhyDP83848.o
 .debug_loc     0x00002491      0x37a build/default/production/_ext/1340694758/ETHPIC32IntMac.o
 .debug_loc     0x0000280b      0x68f build/default/production/_ext/1340694758/Helpers.o
 .debug_loc     0x00002e9a       0x3c build/default/production/_ext/1340694758/ICMP.o
 .debug_loc     0x00002ed6       0xd9 build/default/production/_ext/1340694758/IP.o
 .debug_loc     0x00002faf       0x57 build/default/production/_ext/1340694758/StackTsk.o
 .debug_loc     0x00003006       0x67 build/default/production/_ext/1340694758/Tick.o
 .debug_loc     0x0000306d      0x328 build/default/production/_ext/1340694758/UDP.o
 .debug_loc     0x00003395       0x5a build/default/production/_ext/1340694758/ZeroconfHelper.o
 .debug_loc     0x000033ef      0x114 build/default/production/_ext/1340694758/ZeroconfLinkLocal.o
 .debug_loc     0x00003503      0x85a build/default/production/_ext/1340694758/ZeroconfMulticastDNS.o
 .debug_loc     0x00003d5d      0x21c build/default/production/_ext/1798056102/usb_device.o
 .debug_loc     0x00003f79     0x106d build/default/production/_ext/1798056102/usb_host.o
 .debug_loc     0x00004fe6      0x50e build/default/production/_ext/1798056102/usb_host_cdc.o
 .debug_loc     0x000054f4      0x237 build/default/production/_ext/1798056102/usb_host_cdc_interface.o
 .debug_loc     0x0000572b      0x777 build/default/production/_ext/1798056102/usb_host_hid.o
 .debug_loc     0x00005ea2      0x4a2 build/default/production/_ext/1798056102/usb_host_hid_parser.o
 .debug_loc     0x00006344      0x43c build/default/production/_ext/1798056102/usb_host_midi.o
 .debug_loc     0x00006780     0x1e65 build/default/production/picrouter.o
 .debug_loc     0x000085e5     0x26df ..\mruby-1.0.0\build\PICrouter\lib\libmruby.a(class.o)
 .debug_loc     0x0000acc4      0x7bb ..\mruby-1.0.0\build\PICrouter\lib\libmruby.a(error.o)
 .debug_loc     0x0000b47f      0xecb ..\mruby-1.0.0\build\PICrouter\lib\libmruby.a(gc.o)
 .debug_loc     0x0000c34a      0xff0 ..\mruby-1.0.0\build\PICrouter\lib\libmruby.a(hash.o)
 .debug_loc     0x0000d33a      0xfdd ..\mruby-1.0.0\build\PICrouter\lib\libmruby.a(kernel.o)
 .debug_loc     0x0000e317     0x10bf ..\mruby-1.0.0\build\PICrouter\lib\libmruby.a(load.o)
 .debug_loc     0x0000f3d6      0x53d ..\mruby-1.0.0\build\PICrouter\lib\libmruby.a(object.o)
 .debug_loc     0x0000f913       0xd1 ..\mruby-1.0.0\build\PICrouter\lib\libmruby.a(print.o)
 .debug_loc     0x0000f9e4      0x432 ..\mruby-1.0.0\build\PICrouter\lib\libmruby.a(proc.o)
 .debug_loc     0x0000fe16      0x353 ..\mruby-1.0.0\build\PICrouter\lib\libmruby.a(state.o)
 .debug_loc     0x00010169     0x2a49 ..\mruby-1.0.0\build\PICrouter\lib\libmruby.a(string.o)
 .debug_loc     0x00012bb2      0xc85 ..\mruby-1.0.0\build\PICrouter\lib\libmruby.a(symbol.o)
 .debug_loc     0x00013837     0x16a5 ..\mruby-1.0.0\build\PICrouter\lib\libmruby.a(variable.o)
 .debug_loc     0x00014edc     0x3397 ..\mruby-1.0.0\build\PICrouter\lib\libmruby.a(vm.o)
 .debug_loc     0x00018273     0x145f ..\mruby-1.0.0\build\PICrouter\lib\libmruby.a(array.o)
 .debug_loc     0x000196d2      0x304 ..\mruby-1.0.0\build\PICrouter\lib\libmruby.a(backtrace.o)
 .debug_loc     0x000199d6       0x78 ..\mruby-1.0.0\build\PICrouter\lib\libmruby.a(crc.o)
 .debug_loc     0x00019a4e      0x42b ..\mruby-1.0.0\build\PICrouter\lib\libmruby.a(debug.o)
 .debug_loc     0x00019e79      0x23c ..\mruby-1.0.0\build\PICrouter\lib\libmruby.a(etc.o)
 .debug_loc     0x0001a0b5       0x1e ..\mruby-1.0.0\build\PICrouter\lib\libmruby.a(init.o)
 .debug_loc     0x0001a0d3     0x11c7 ..\mruby-1.0.0\build\PICrouter\lib\libmruby.a(numeric.o)
 .debug_loc     0x0001b29a      0x595 ..\mruby-1.0.0\build\PICrouter\lib\libmruby.a(range.o)
 .debug_loc     0x0001b82f       0x1e ..\mruby-1.0.0\build\PICrouter\lib\libmruby.a(mrblib.o)
 .debug_loc     0x0001b84d       0x13 ..\mruby-1.0.0\build\PICrouter\lib\libmruby.a(compar.o)
 .debug_loc     0x0001b860       0x13 ..\mruby-1.0.0\build\PICrouter\lib\libmruby.a(enum.o)
 .debug_loc     0x0001b873      0x102 c:/program files (x86)/microchip/xc32/v1.22/bin/../lib/gcc/pic32mx/4.5.2/mips16\libgcc.a(_floatdisf.o)
 .debug_loc     0x0001b975      0xc19 c:/program files (x86)/microchip/xc32/v1.22/bin/../lib/gcc/pic32mx/4.5.2/mips16\libgcc.a(_udivdi3.o)
 .debug_loc     0x0001c58e      0xde4 c:/program files (x86)/microchip/xc32/v1.22/bin/../lib/gcc/pic32mx/4.5.2/mips16\libgcc.a(_umoddi3.o)
 .debug_loc     0x0001d372       0x6e c:/program files (x86)/microchip/xc32/v1.22/bin/../lib/gcc/pic32mx/4.5.2/mips16\libgcc.a(_lshrdi3.o)
 .debug_loc     0x0001d3e0      0x139 c:/program files (x86)/microchip/xc32/v1.22/bin/../lib/gcc/pic32mx/4.5.2/mips16\libgcc.a(_floatundisf.o)
 .debug_loc     0x0001d519       0x3c c:/program files (x86)/microchip/xc32/v1.22/bin/../lib/gcc/pic32mx/4.5.2/mips16\libgcc.a(floatunsisf.o)

.debug_macinfo
 *(.debug_macinfo)

.debug_weaknames
 *(.debug_weaknames)

.debug_funcnames
 *(.debug_funcnames)

.debug_typenames
 *(.debug_typenames)

.debug_varnames
 *(.debug_varnames)

.debug_pubtypes
                0x00000000     0x72e1
 *(.debug_pubtypes)
 .debug_pubtypes
                0x00000000      0x16a build/default/production/_ext/454704213/analog.o
 .debug_pubtypes
                0x0000016a      0x2c4 build/default/production/_ext/454704213/iosetting.o
 .debug_pubtypes
                0x0000042e      0x111 build/default/production/_ext/454704213/TimeDelay.o
 .debug_pubtypes
                0x0000053f      0x19f build/default/production/_ext/454704213/usb_config.o
 .debug_pubtypes
                0x000006de      0x12e build/default/production/_ext/454704213/usb_descriptors.o
 .debug_pubtypes
                0x0000080c      0x1c1 build/default/production/_ext/454704213/osc.o
 .debug_pubtypes
                0x000009cd      0x10e build/default/production/_ext/454704213/sram.o
 .debug_pubtypes
                0x00000adb      0x19d build/default/production/_ext/1340694758/ARP.o
 .debug_pubtypes
                0x00000c78      0x1d8 build/default/production/_ext/1340694758/DHCP.o
 .debug_pubtypes
                0x00000e50      0x1f7 build/default/production/_ext/1340694758/DHCPs.o
 .debug_pubtypes
                0x00001047      0x1ae build/default/production/_ext/1340694758/ETHPIC32ExtPhy.o
 .debug_pubtypes
                0x000011f5      0x119 build/default/production/_ext/1340694758/ETHPIC32ExtPhyDP83848.o
 .debug_pubtypes
                0x0000130e      0x203 build/default/production/_ext/1340694758/ETHPIC32IntMac.o
 .debug_pubtypes
                0x00001511      0x167 build/default/production/_ext/1340694758/Helpers.o
 .debug_pubtypes
                0x00001678      0x139 build/default/production/_ext/1340694758/ICMP.o
 .debug_pubtypes
                0x000017b1      0x18c build/default/production/_ext/1340694758/IP.o
 .debug_pubtypes
                0x0000193d       0xe7 build/default/production/_ext/1340694758/NBNS.o
 .debug_pubtypes
                0x00001a24      0x17c build/default/production/_ext/1340694758/StackTsk.o
 .debug_pubtypes
                0x00001ba0      0x144 build/default/production/_ext/1340694758/Tick.o
 .debug_pubtypes
                0x00001ce4      0x1eb build/default/production/_ext/1340694758/UDP.o
 .debug_pubtypes
                0x00001ecf       0xfa build/default/production/_ext/1340694758/ZeroconfHelper.o
 .debug_pubtypes
                0x00001fc9      0x23b build/default/production/_ext/1340694758/ZeroconfLinkLocal.o
 .debug_pubtypes
                0x00002204      0x393 build/default/production/_ext/1340694758/ZeroconfMulticastDNS.o
 .debug_pubtypes
                0x00002597      0x2af build/default/production/_ext/1798056102/usb_device.o
 .debug_pubtypes
                0x00002846      0x132 build/default/production/_ext/1798056102/usb_function_hid.o
 .debug_pubtypes
                0x00002978      0x5a3 build/default/production/_ext/1798056102/usb_host.o
 .debug_pubtypes
                0x00002f1b      0x3ae build/default/production/_ext/1798056102/usb_host_cdc.o
 .debug_pubtypes
                0x000032c9      0x27b build/default/production/_ext/1798056102/usb_host_cdc_interface.o
 .debug_pubtypes
                0x00003544      0x44c build/default/production/_ext/1798056102/usb_host_hid.o
 .debug_pubtypes
                0x00003990      0x2d1 build/default/production/_ext/1798056102/usb_host_hid_parser.o
 .debug_pubtypes
                0x00003c61      0x192 build/default/production/_ext/1798056102/usb_host_midi.o
 .debug_pubtypes
                0x00003df3      0x4ee build/default/production/picrouter.o
 .debug_pubtypes
                0x000042e1       0x20 build/default/production/mrb_picrouter.o
 .debug_pubtypes
                0x00004301      0x22f ..\mruby-1.0.0\build\PICrouter\lib\libmruby.a(class.o)
 .debug_pubtypes
                0x00004530      0x295 ..\mruby-1.0.0\build\PICrouter\lib\libmruby.a(error.o)
 .debug_pubtypes
                0x000047c5      0x2a6 ..\mruby-1.0.0\build\PICrouter\lib\libmruby.a(gc.o)
 .debug_pubtypes
                0x00004a6b      0x19f ..\mruby-1.0.0\build\PICrouter\lib\libmruby.a(hash.o)
 .debug_pubtypes
                0x00004c0a      0x20c ..\mruby-1.0.0\build\PICrouter\lib\libmruby.a(kernel.o)
 .debug_pubtypes
                0x00004e16      0x39a ..\mruby-1.0.0\build\PICrouter\lib\libmruby.a(load.o)
 .debug_pubtypes
                0x000051b0      0x170 ..\mruby-1.0.0\build\PICrouter\lib\libmruby.a(object.o)
 .debug_pubtypes
                0x00005320      0x158 ..\mruby-1.0.0\build\PICrouter\lib\libmruby.a(print.o)
 .debug_pubtypes
                0x00005478      0x1bb ..\mruby-1.0.0\build\PICrouter\lib\libmruby.a(proc.o)
 .debug_pubtypes
                0x00005633      0x252 ..\mruby-1.0.0\build\PICrouter\lib\libmruby.a(state.o)
 .debug_pubtypes
                0x00005885      0x1e5 ..\mruby-1.0.0\build\PICrouter\lib\libmruby.a(string.o)
 .debug_pubtypes
                0x00005a6a      0x1ac ..\mruby-1.0.0\build\PICrouter\lib\libmruby.a(symbol.o)
 .debug_pubtypes
                0x00005c16      0x208 ..\mruby-1.0.0\build\PICrouter\lib\libmruby.a(variable.o)
 .debug_pubtypes
                0x00005e1e      0x23d ..\mruby-1.0.0\build\PICrouter\lib\libmruby.a(vm.o)
 .debug_pubtypes
                0x0000605b      0x19b ..\mruby-1.0.0\build\PICrouter\lib\libmruby.a(array.o)
 .debug_pubtypes
                0x000061f6      0x2e6 ..\mruby-1.0.0\build\PICrouter\lib\libmruby.a(backtrace.o)
 .debug_pubtypes
                0x000064dc       0x49 ..\mruby-1.0.0\build\PICrouter\lib\libmruby.a(crc.o)
 .debug_pubtypes
                0x00006525      0x23e ..\mruby-1.0.0\build\PICrouter\lib\libmruby.a(debug.o)
 .debug_pubtypes
                0x00006763      0x189 ..\mruby-1.0.0\build\PICrouter\lib\libmruby.a(etc.o)
 .debug_pubtypes
                0x000068ec      0x141 ..\mruby-1.0.0\build\PICrouter\lib\libmruby.a(init.o)
 .debug_pubtypes
                0x00006a2d      0x14f ..\mruby-1.0.0\build\PICrouter\lib\libmruby.a(numeric.o)
 .debug_pubtypes
                0x00006b7c      0x18d ..\mruby-1.0.0\build\PICrouter\lib\libmruby.a(range.o)
 .debug_pubtypes
                0x00006d09      0x141 ..\mruby-1.0.0\build\PICrouter\lib\libmruby.a(mrblib.o)
 .debug_pubtypes
                0x00006e4a      0x141 ..\mruby-1.0.0\build\PICrouter\lib\libmruby.a(compar.o)
 .debug_pubtypes
                0x00006f8b      0x141 ..\mruby-1.0.0\build\PICrouter\lib\libmruby.a(enum.o)
 .debug_pubtypes
                0x000070cc       0x4b c:/program files (x86)/microchip/xc32/v1.22/bin/../lib/gcc/pic32mx/4.5.2/mips16\libgcc.a(_floatdisf.o)
 .debug_pubtypes
                0x00007117       0x65 c:/program files (x86)/microchip/xc32/v1.22/bin/../lib/gcc/pic32mx/4.5.2/mips16\libgcc.a(_udivdi3.o)
 .debug_pubtypes
                0x0000717c       0x65 c:/program files (x86)/microchip/xc32/v1.22/bin/../lib/gcc/pic32mx/4.5.2/mips16\libgcc.a(_umoddi3.o)
 .debug_pubtypes
                0x000071e1       0x1e c:/program files (x86)/microchip/xc32/v1.22/bin/../lib/gcc/pic32mx/4.5.2/mips16\libgcc.a(_clz.o)
 .debug_pubtypes
                0x000071ff       0x62 c:/program files (x86)/microchip/xc32/v1.22/bin/../lib/gcc/pic32mx/4.5.2/mips16\libgcc.a(_lshrdi3.o)
 .debug_pubtypes
                0x00007261       0x4c c:/program files (x86)/microchip/xc32/v1.22/bin/../lib/gcc/pic32mx/4.5.2/mips16\libgcc.a(_floatundisf.o)
 .debug_pubtypes
                0x000072ad       0x34 c:/program files (x86)/microchip/xc32/v1.22/bin/../lib/gcc/pic32mx/4.5.2/mips16\libgcc.a(floatunsisf.o)

.debug_ranges   0x00000000      0x318
 *(.debug_ranges)
 .debug_ranges  0x00000000       0x10 c:/program files (x86)/microchip/xc32/v1.22/bin/../lib/gcc/pic32mx/4.5.2/../../../../pic32mx/lib/mips16\libmchp_peripheral.a(read_core_timer_lib.o)
 .debug_ranges  0x00000010       0x38 c:/program files (x86)/microchip/xc32/v1.22/bin/../lib/gcc/pic32mx/4.5.2/../../../../pic32mx/lib/mips16\libmchp_peripheral_32MX795F512H.a(eth_ack_packet_lib.o)
 .debug_ranges  0x00000048       0x18 c:/program files (x86)/microchip/xc32/v1.22/bin/../lib/gcc/pic32mx/4.5.2/../../../../pic32mx/lib/mips16\libmchp_peripheral_32MX795F512H.a(eth_descriptors_add_lib.o)
 .debug_ranges  0x00000060       0x10 c:/program files (x86)/microchip/xc32/v1.22/bin/../lib/gcc/pic32mx/4.5.2/../../../../pic32mx/lib/mips16\libmchp_peripheral_32MX795F512H.a(eth_init_lib.o)
 .debug_ranges  0x00000070       0x10 c:/program files (x86)/microchip/xc32/v1.22/bin/../lib/gcc/pic32mx/4.5.2/../../../../pic32mx/lib/mips16\libmchp_peripheral_32MX795F512H.a(eth_mac_open_lib.o)
 .debug_ranges  0x00000080       0x20 c:/program files (x86)/microchip/xc32/v1.22/bin/../lib/gcc/pic32mx/4.5.2/../../../../pic32mx/lib/mips16\libmchp_peripheral_32MX795F512H.a(eth_mac_set_address_max_lib.o)
 .debug_ranges  0x000000a0       0x10 c:/program files (x86)/microchip/xc32/v1.22/bin/../lib/gcc/pic32mx/4.5.2/../../../../pic32mx/lib/mips16\libmchp_peripheral_32MX795F512H.a(eth_rx_buffers_append_lib.o)
 .debug_ranges  0x000000b0       0x38 c:/program files (x86)/microchip/xc32/v1.22/bin/../lib/gcc/pic32mx/4.5.2/../../../../pic32mx/lib/mips16\libmchp_peripheral_32MX795F512H.a(eth_rx_filters_lib.o)
 .debug_ranges  0x000000e8       0x18 c:/program files (x86)/microchip/xc32/v1.22/bin/../lib/gcc/pic32mx/4.5.2/../../../../pic32mx/lib/mips16\libmchp_peripheral_32MX795F512H.a(eth_rx_get_packet_lib.o)
 .debug_ranges  0x00000100       0x10 c:/program files (x86)/microchip/xc32/v1.22/bin/../lib/gcc/pic32mx/4.5.2/../../../../pic32mx/lib/mips16\libmchp_peripheral_32MX795F512H.a(eth_rx_set_buffer_size_lib.o)
 .debug_ranges  0x00000110       0x38 c:/program files (x86)/microchip/xc32/v1.22/bin/../lib/gcc/pic32mx/4.5.2/../../../../pic32mx/lib/mips16\libmchp_peripheral_32MX795F512H.a(eth_tx_packet_lib.o)
 .debug_ranges  0x00000148       0x10 c:/program files (x86)/microchip/xc32/v1.22/bin/../lib/gcc/pic32mx/4.5.2/../../../../pic32mx/lib/mips16\libmchp_peripheral_32MX795F512H.a(_eth_append_busy_list_lib.o)
 .debug_ranges  0x00000158       0x38 c:/program files (x86)/microchip/xc32/v1.22/bin/../lib/gcc/pic32mx/4.5.2/../../../../pic32mx/lib/mips16\libmchp_peripheral_32MX795F512H.a(eth_miim_access.o)
 .debug_ranges  0x00000190       0x10 c:/program files (x86)/microchip/xc32/v1.22/bin/../lib/gcc/pic32mx/4.5.2/../../../../pic32mx/lib/mips16\libmchp_peripheral_32MX795F512H.a(soft_reset_lib.o)
 .debug_ranges  0x000001a0       0x18 c:/program files (x86)/microchip/xc32/v1.22/bin/../lib/gcc/pic32mx/4.5.2/../../../../pic32mx/lib/mips16\libmchp_peripheral_32MX795F512H.a(pcache.o)
 .debug_ranges  0x000001b8       0x10 c:/program files (x86)/microchip/xc32/v1.22/bin/../lib/gcc/pic32mx/4.5.2/../../../../pic32mx/lib/mips16\libmchp_peripheral_32MX795F512H.a(int_disable_interrupts_lib.o)
 .debug_ranges  0x000001c8       0x10 c:/program files (x86)/microchip/xc32/v1.22/bin/../lib/gcc/pic32mx/4.5.2/../../../../pic32mx/lib/mips16\libmchp_peripheral_32MX795F512H.a(int_restore_interrupts_lib.o)
 .debug_ranges  0x000001d8       0x10 c:/program files (x86)/microchip/xc32/v1.22/bin/../lib/gcc/pic32mx/4.5.2/../../../../pic32mx/lib/mips16\libmchp_peripheral_32MX795F512H.a(int_enable_mv_int_lib.o)
 .debug_ranges  0x000001e8       0x50 c:/program files (x86)/microchip/xc32/v1.22/bin/../lib/gcc/pic32mx/4.5.2/../../../../pic32mx/lib/mips16\libmchp_peripheral_32MX795F512H.a(int_tbl_lib.o)
 .debug_ranges  0x00000238       0x10 c:/program files (x86)/microchip/xc32/v1.22/bin/../lib/gcc/pic32mx/4.5.2/../../../../pic32mx/lib/mips16\libmchp_peripheral_32MX795F512H.a(spi_chn_close_lib.o)
 .debug_ranges  0x00000248       0x10 c:/program files (x86)/microchip/xc32/v1.22/bin/../lib/gcc/pic32mx/4.5.2/../../../../pic32mx/lib/mips16\libmchp_peripheral_32MX795F512H.a(spi_chn_open_lib.o)
 .debug_ranges  0x00000258       0x10 c:/program files (x86)/microchip/xc32/v1.22/bin/../lib/gcc/pic32mx/4.5.2/../../../../pic32mx/lib/mips16\libmchp_peripheral_32MX795F512H.a(spi_getc_spi2_lib_legacy.o)
 .debug_ranges  0x00000268       0x10 c:/program files (x86)/microchip/xc32/v1.22/bin/../lib/gcc/pic32mx/4.5.2/../../../../pic32mx/lib/mips16\libmchp_peripheral_32MX795F512H.a(nvm_erase_page_lib.o)
 .debug_ranges  0x00000278       0x10 c:/program files (x86)/microchip/xc32/v1.22/bin/../lib/gcc/pic32mx/4.5.2/../../../../pic32mx/lib/mips16\libmchp_peripheral_32MX795F512H.a(nvm_operation_lib.o)
 .debug_ranges  0x00000288       0x10 c:/program files (x86)/microchip/xc32/v1.22/bin/../lib/gcc/pic32mx/4.5.2/../../../../pic32mx/lib/mips16\libmchp_peripheral_32MX795F512H.a(nvm_write_word_lib.o)
 .debug_ranges  0x00000298       0x10 c:/program files (x86)/microchip/xc32/v1.22/bin/../lib/gcc/pic32mx/4.5.2/../../../../pic32mx/lib/mips16\libmchp_peripheral_32MX795F512H.a(port_reset_pins_lib.o)
 .debug_ranges  0x000002a8       0x10 c:/program files (x86)/microchip/xc32/v1.22/bin/../lib/gcc/pic32mx/4.5.2/../../../../pic32mx/lib/mips16\libmchp_peripheral_32MX795F512H.a(port_set_pins_digital_in_lib.o)
 .debug_ranges  0x000002b8       0x10 c:/program files (x86)/microchip/xc32/v1.22/bin/../lib/gcc/pic32mx/4.5.2/../../../../pic32mx/lib/mips16\libmchp_peripheral_32MX795F512H.a(port_set_pins_digital_out_lib.o)
 .debug_ranges  0x000002c8       0x10 c:/program files (x86)/microchip/xc32/v1.22/bin/../lib/gcc/pic32mx/4.5.2/../../../../pic32mx/lib/mips16\libmchp_peripheral_32MX795F512H.a(I2CConfigure.o)
 .debug_ranges  0x000002d8       0x10 c:/program files (x86)/microchip/xc32/v1.22/bin/../lib/gcc/pic32mx/4.5.2/../../../../pic32mx/lib/mips16\libmchp_peripheral_32MX795F512H.a(I2CEnable.o)
 .debug_ranges  0x000002e8       0x10 c:/program files (x86)/microchip/xc32/v1.22/bin/../lib/gcc/pic32mx/4.5.2/../../../../pic32mx/lib/mips16\libmchp_peripheral_32MX795F512H.a(I2CSetFrequency.o)
 .debug_ranges  0x000002f8       0x10 c:/program files (x86)/microchip/xc32/v1.22/bin/../lib/gcc/pic32mx/4.5.2/../../../../pic32mx/lib/mips16\libmchp_peripheral_32MX795F512H.a(I2CSetSlaveAddress.o)
 .debug_ranges  0x00000308       0x10 c:/program files (x86)/microchip/xc32/v1.22/bin/../lib/gcc/pic32mx/4.5.2/../../../../pic32mx/lib/mips16\libmchp_peripheral_32MX795F512H.a(int_enable_interrupts_lib.o)

.gnu.attributes
                0x00000000       0x10
 *(.gnu.attributes)
 .gnu.attributes
                0x00000000       0x10 build/default/production/_ext/454704213/analog.o
 .gnu.attributes
                0x00000010       0x10 build/default/production/_ext/454704213/iosetting.o
 .gnu.attributes
                0x00000020       0x10 build/default/production/_ext/454704213/TimeDelay.o
 .gnu.attributes
                0x00000030       0x10 build/default/production/_ext/454704213/usb_config.o
 .gnu.attributes
                0x00000040       0x10 build/default/production/_ext/454704213/usb_descriptors.o
 .gnu.attributes
                0x00000050       0x10 build/default/production/_ext/454704213/osc.o
 .gnu.attributes
                0x00000060       0x10 build/default/production/_ext/454704213/sram.o
 .gnu.attributes
                0x00000070       0x10 build/default/production/_ext/1340694758/ARP.o
 .gnu.attributes
                0x00000080       0x10 build/default/production/_ext/1340694758/DHCP.o
 .gnu.attributes
                0x00000090       0x10 build/default/production/_ext/1340694758/DHCPs.o
 .gnu.attributes
                0x000000a0       0x10 build/default/production/_ext/1340694758/ETHPIC32ExtPhy.o
 .gnu.attributes
                0x000000b0       0x10 build/default/production/_ext/1340694758/ETHPIC32ExtPhyDP83848.o
 .gnu.attributes
                0x000000c0       0x10 build/default/production/_ext/1340694758/ETHPIC32IntMac.o
 .gnu.attributes
                0x000000d0       0x10 build/default/production/_ext/1340694758/Helpers.o
 .gnu.attributes
                0x000000e0       0x10 build/default/production/_ext/1340694758/ICMP.o
 .gnu.attributes
                0x000000f0       0x10 build/default/production/_ext/1340694758/IP.o
 .gnu.attributes
                0x00000100       0x10 build/default/production/_ext/1340694758/NBNS.o
 .gnu.attributes
                0x00000110       0x10 build/default/production/_ext/1340694758/StackTsk.o
 .gnu.attributes
                0x00000120       0x10 build/default/production/_ext/1340694758/Tick.o
 .gnu.attributes
                0x00000130       0x10 build/default/production/_ext/1340694758/UDP.o
 .gnu.attributes
                0x00000140       0x10 build/default/production/_ext/1340694758/ZeroconfHelper.o
 .gnu.attributes
                0x00000150       0x10 build/default/production/_ext/1340694758/ZeroconfLinkLocal.o
 .gnu.attributes
                0x00000160       0x10 build/default/production/_ext/1340694758/ZeroconfMulticastDNS.o
 .gnu.attributes
                0x00000170       0x10 build/default/production/_ext/1798056102/usb_device.o
 .gnu.attributes
                0x00000180       0x10 build/default/production/_ext/1798056102/usb_function_hid.o
 .gnu.attributes
                0x00000190       0x10 build/default/production/_ext/1798056102/usb_host.o
 .gnu.attributes
                0x000001a0       0x10 build/default/production/_ext/1798056102/usb_host_cdc.o
 .gnu.attributes
                0x000001b0       0x10 build/default/production/_ext/1798056102/usb_host_cdc_interface.o
 .gnu.attributes
                0x000001c0       0x10 build/default/production/_ext/1798056102/usb_host_hid.o
 .gnu.attributes
                0x000001d0       0x10 build/default/production/_ext/1798056102/usb_host_hid_parser.o
 .gnu.attributes
                0x000001e0       0x10 build/default/production/_ext/1798056102/usb_host_midi.o
 .gnu.attributes
                0x000001f0       0x10 build/default/production/picrouter.o
 .gnu.attributes
                0x00000200       0x10 build/default/production/mrb_picrouter.o
 .gnu.attributes
                0x00000210       0x10 ..\mruby-1.0.0\build\PICrouter\lib\libmruby.a(class.o)
 .gnu.attributes
                0x00000220       0x10 ..\mruby-1.0.0\build\PICrouter\lib\libmruby.a(error.o)
 .gnu.attributes
                0x00000230       0x10 ..\mruby-1.0.0\build\PICrouter\lib\libmruby.a(gc.o)
 .gnu.attributes
                0x00000240       0x10 ..\mruby-1.0.0\build\PICrouter\lib\libmruby.a(hash.o)
 .gnu.attributes
                0x00000250       0x10 ..\mruby-1.0.0\build\PICrouter\lib\libmruby.a(kernel.o)
 .gnu.attributes
                0x00000260       0x10 ..\mruby-1.0.0\build\PICrouter\lib\libmruby.a(load.o)
 .gnu.attributes
                0x00000270       0x10 ..\mruby-1.0.0\build\PICrouter\lib\libmruby.a(object.o)
 .gnu.attributes
                0x00000280       0x10 ..\mruby-1.0.0\build\PICrouter\lib\libmruby.a(print.o)
 .gnu.attributes
                0x00000290       0x10 ..\mruby-1.0.0\build\PICrouter\lib\libmruby.a(proc.o)
 .gnu.attributes
                0x000002a0       0x10 ..\mruby-1.0.0\build\PICrouter\lib\libmruby.a(state.o)
 .gnu.attributes
                0x000002b0       0x10 ..\mruby-1.0.0\build\PICrouter\lib\libmruby.a(string.o)
 .gnu.attributes
                0x000002c0       0x10 ..\mruby-1.0.0\build\PICrouter\lib\libmruby.a(symbol.o)
 .gnu.attributes
                0x000002d0       0x10 ..\mruby-1.0.0\build\PICrouter\lib\libmruby.a(variable.o)
 .gnu.attributes
                0x000002e0       0x10 ..\mruby-1.0.0\build\PICrouter\lib\libmruby.a(vm.o)
 .gnu.attributes
                0x000002f0       0x10 ..\mruby-1.0.0\build\PICrouter\lib\libmruby.a(array.o)
 .gnu.attributes
                0x00000300       0x10 ..\mruby-1.0.0\build\PICrouter\lib\libmruby.a(backtrace.o)
 .gnu.attributes
                0x00000310       0x10 ..\mruby-1.0.0\build\PICrouter\lib\libmruby.a(crc.o)
 .gnu.attributes
                0x00000320       0x10 ..\mruby-1.0.0\build\PICrouter\lib\libmruby.a(debug.o)
 .gnu.attributes
                0x00000330       0x10 ..\mruby-1.0.0\build\PICrouter\lib\libmruby.a(etc.o)
 .gnu.attributes
                0x00000340       0x10 ..\mruby-1.0.0\build\PICrouter\lib\libmruby.a(init.o)
 .gnu.attributes
                0x00000350       0x10 ..\mruby-1.0.0\build\PICrouter\lib\libmruby.a(numeric.o)
 .gnu.attributes
                0x00000360       0x10 ..\mruby-1.0.0\build\PICrouter\lib\libmruby.a(range.o)
 .gnu.attributes
                0x00000370       0x10 ..\mruby-1.0.0\build\PICrouter\lib\libmruby.a(mrblib.o)
 .gnu.attributes
                0x00000380       0x10 ..\mruby-1.0.0\build\PICrouter\lib\libmruby.a(compar.o)
 .gnu.attributes
                0x00000390       0x10 ..\mruby-1.0.0\build\PICrouter\lib\libmruby.a(enum.o)
 .gnu.attributes
                0x000003a0       0x10 c:/program files (x86)/microchip/xc32/v1.22/bin/../lib/gcc/pic32mx/4.5.2/../../../../pic32mx/lib/mips16\libmchp_peripheral.a(read_core_timer_lib.o)
 .gnu.attributes
                0x000003b0       0x10 c:/program files (x86)/microchip/xc32/v1.22/bin/../lib/gcc/pic32mx/4.5.2/../../../../pic32mx/lib/mips16\libmchp_peripheral_32MX795F512H.a(eth_ack_packet_lib.o)
 .gnu.attributes
                0x000003c0       0x10 c:/program files (x86)/microchip/xc32/v1.22/bin/../lib/gcc/pic32mx/4.5.2/../../../../pic32mx/lib/mips16\libmchp_peripheral_32MX795F512H.a(eth_descriptors_add_lib.o)
 .gnu.attributes
                0x000003d0       0x10 c:/program files (x86)/microchip/xc32/v1.22/bin/../lib/gcc/pic32mx/4.5.2/../../../../pic32mx/lib/mips16\libmchp_peripheral_32MX795F512H.a(eth_init_lib.o)
 .gnu.attributes
                0x000003e0       0x10 c:/program files (x86)/microchip/xc32/v1.22/bin/../lib/gcc/pic32mx/4.5.2/../../../../pic32mx/lib/mips16\libmchp_peripheral_32MX795F512H.a(eth_mac_open_lib.o)
 .gnu.attributes
                0x000003f0       0x10 c:/program files (x86)/microchip/xc32/v1.22/bin/../lib/gcc/pic32mx/4.5.2/../../../../pic32mx/lib/mips16\libmchp_peripheral_32MX795F512H.a(eth_mac_set_address_max_lib.o)
 .gnu.attributes
                0x00000400       0x10 c:/program files (x86)/microchip/xc32/v1.22/bin/../lib/gcc/pic32mx/4.5.2/../../../../pic32mx/lib/mips16\libmchp_peripheral_32MX795F512H.a(eth_rx_buffers_append_lib.o)
 .gnu.attributes
                0x00000410       0x10 c:/program files (x86)/microchip/xc32/v1.22/bin/../lib/gcc/pic32mx/4.5.2/../../../../pic32mx/lib/mips16\libmchp_peripheral_32MX795F512H.a(eth_rx_filters_lib.o)
 .gnu.attributes
                0x00000420       0x10 c:/program files (x86)/microchip/xc32/v1.22/bin/../lib/gcc/pic32mx/4.5.2/../../../../pic32mx/lib/mips16\libmchp_peripheral_32MX795F512H.a(eth_rx_get_packet_lib.o)
 .gnu.attributes
                0x00000430       0x10 c:/program files (x86)/microchip/xc32/v1.22/bin/../lib/gcc/pic32mx/4.5.2/../../../../pic32mx/lib/mips16\libmchp_peripheral_32MX795F512H.a(eth_rx_set_buffer_size_lib.o)
 .gnu.attributes
                0x00000440       0x10 c:/program files (x86)/microchip/xc32/v1.22/bin/../lib/gcc/pic32mx/4.5.2/../../../../pic32mx/lib/mips16\libmchp_peripheral_32MX795F512H.a(eth_tx_packet_lib.o)
 .gnu.attributes
                0x00000450       0x10 c:/program files (x86)/microchip/xc32/v1.22/bin/../lib/gcc/pic32mx/4.5.2/../../../../pic32mx/lib/mips16\libmchp_peripheral_32MX795F512H.a(_eth_append_busy_list_lib.o)
 .gnu.attributes
                0x00000460       0x10 c:/program files (x86)/microchip/xc32/v1.22/bin/../lib/gcc/pic32mx/4.5.2/../../../../pic32mx/lib/mips16\libmchp_peripheral_32MX795F512H.a(eth_miim_access.o)
 .gnu.attributes
                0x00000470       0x10 c:/program files (x86)/microchip/xc32/v1.22/bin/../lib/gcc/pic32mx/4.5.2/../../../../pic32mx/lib/mips16\libmchp_peripheral_32MX795F512H.a(soft_reset_lib.o)
 .gnu.attributes
                0x00000480       0x10 c:/program files (x86)/microchip/xc32/v1.22/bin/../lib/gcc/pic32mx/4.5.2/../../../../pic32mx/lib/mips16\libmchp_peripheral_32MX795F512H.a(pcache.o)
 .gnu.attributes
                0x00000490       0x10 c:/program files (x86)/microchip/xc32/v1.22/bin/../lib/gcc/pic32mx/4.5.2/../../../../pic32mx/lib/mips16\libmchp_peripheral_32MX795F512H.a(int_disable_interrupts_lib.o)
 .gnu.attributes
                0x000004a0       0x10 c:/program files (x86)/microchip/xc32/v1.22/bin/../lib/gcc/pic32mx/4.5.2/../../../../pic32mx/lib/mips16\libmchp_peripheral_32MX795F512H.a(int_restore_interrupts_lib.o)
 .gnu.attributes
                0x000004b0       0x10 c:/program files (x86)/microchip/xc32/v1.22/bin/../lib/gcc/pic32mx/4.5.2/../../../../pic32mx/lib/mips16\libmchp_peripheral_32MX795F512H.a(int_enable_mv_int_lib.o)
 .gnu.attributes
                0x000004c0       0x10 c:/program files (x86)/microchip/xc32/v1.22/bin/../lib/gcc/pic32mx/4.5.2/../../../../pic32mx/lib/mips16\libmchp_peripheral_32MX795F512H.a(int_tbl_lib.o)
 .gnu.attributes
                0x000004d0       0x10 c:/program files (x86)/microchip/xc32/v1.22/bin/../lib/gcc/pic32mx/4.5.2/../../../../pic32mx/lib/mips16\libmchp_peripheral_32MX795F512H.a(spi_chn_close_lib.o)
 .gnu.attributes
                0x000004e0       0x10 c:/program files (x86)/microchip/xc32/v1.22/bin/../lib/gcc/pic32mx/4.5.2/../../../../pic32mx/lib/mips16\libmchp_peripheral_32MX795F512H.a(spi_chn_open_lib.o)
 .gnu.attributes
                0x000004f0       0x10 c:/program files (x86)/microchip/xc32/v1.22/bin/../lib/gcc/pic32mx/4.5.2/../../../../pic32mx/lib/mips16\libmchp_peripheral_32MX795F512H.a(spi_io_tbl_libp.o)
 .gnu.attributes
                0x00000500       0x10 c:/program files (x86)/microchip/xc32/v1.22/bin/../lib/gcc/pic32mx/4.5.2/../../../../pic32mx/lib/mips16\libmchp_peripheral_32MX795F512H.a(spi_map_tbl_libp.o)
 .gnu.attributes
                0x00000510       0x10 c:/program files (x86)/microchip/xc32/v1.22/bin/../lib/gcc/pic32mx/4.5.2/../../../../pic32mx/lib/mips16\libmchp_peripheral_32MX795F512H.a(spi_getc_spi2_lib_legacy.o)
 .gnu.attributes
                0x00000520       0x10 c:/program files (x86)/microchip/xc32/v1.22/bin/../lib/gcc/pic32mx/4.5.2/../../../../pic32mx/lib/mips16\libmchp_peripheral_32MX795F512H.a(nvm_erase_page_lib.o)
 .gnu.attributes
                0x00000530       0x10 c:/program files (x86)/microchip/xc32/v1.22/bin/../lib/gcc/pic32mx/4.5.2/../../../../pic32mx/lib/mips16\libmchp_peripheral_32MX795F512H.a(nvm_operation_lib.o)
 .gnu.attributes
                0x00000540       0x10 c:/program files (x86)/microchip/xc32/v1.22/bin/../lib/gcc/pic32mx/4.5.2/../../../../pic32mx/lib/mips16\libmchp_peripheral_32MX795F512H.a(nvm_write_word_lib.o)
 .gnu.attributes
                0x00000550       0x10 c:/program files (x86)/microchip/xc32/v1.22/bin/../lib/gcc/pic32mx/4.5.2/../../../../pic32mx/lib/mips16\libmchp_peripheral_32MX795F512H.a(port_reset_pins_lib.o)
 .gnu.attributes
                0x00000560       0x10 c:/program files (x86)/microchip/xc32/v1.22/bin/../lib/gcc/pic32mx/4.5.2/../../../../pic32mx/lib/mips16\libmchp_peripheral_32MX795F512H.a(port_set_pins_digital_in_lib.o)
 .gnu.attributes
                0x00000570       0x10 c:/program files (x86)/microchip/xc32/v1.22/bin/../lib/gcc/pic32mx/4.5.2/../../../../pic32mx/lib/mips16\libmchp_peripheral_32MX795F512H.a(port_set_pins_digital_out_lib.o)
 .gnu.attributes
                0x00000580       0x10 c:/program files (x86)/microchip/xc32/v1.22/bin/../lib/gcc/pic32mx/4.5.2/../../../../pic32mx/lib/mips16\libmchp_peripheral_32MX795F512H.a(_ports_tbl_libp.o)
 .gnu.attributes
                0x00000590       0x10 c:/program files (x86)/microchip/xc32/v1.22/bin/../lib/gcc/pic32mx/4.5.2/../../../../pic32mx/lib/mips16\libmchp_peripheral_32MX795F512H.a(I2CConfigure.o)
 .gnu.attributes
                0x000005a0       0x10 c:/program files (x86)/microchip/xc32/v1.22/bin/../lib/gcc/pic32mx/4.5.2/../../../../pic32mx/lib/mips16\libmchp_peripheral_32MX795F512H.a(I2CEnable.o)
 .gnu.attributes
                0x000005b0       0x10 c:/program files (x86)/microchip/xc32/v1.22/bin/../lib/gcc/pic32mx/4.5.2/../../../../pic32mx/lib/mips16\libmchp_peripheral_32MX795F512H.a(I2CSetFrequency.o)
 .gnu.attributes
                0x000005c0       0x10 c:/program files (x86)/microchip/xc32/v1.22/bin/../lib/gcc/pic32mx/4.5.2/../../../../pic32mx/lib/mips16\libmchp_peripheral_32MX795F512H.a(I2CSetSlaveAddress.o)
 .gnu.attributes
                0x000005d0       0x10 c:/program files (x86)/microchip/xc32/v1.22/bin/../lib/gcc/pic32mx/4.5.2/../../../../pic32mx/lib/mips16\libmchp_peripheral_32MX795F512H.a(int_enable_interrupts_lib.o)
 .gnu.attributes
                0x000005e0       0x10 c:/program files (x86)/microchip/xc32/v1.22/bin/../lib/gcc/pic32mx/4.5.2/../../../../pic32mx/lib/mips16\libmchp_peripheral_32MX795F512H.a(I2CPrivate.o)
 .gnu.attributes
                0x000005f0       0x10 c:/program files (x86)/microchip/xc32/v1.22/bin/../lib/gcc/pic32mx/4.5.2/mips16\libgcc.a(_floatdisf.o)
 .gnu.attributes
                0x00000600       0x10 c:/program files (x86)/microchip/xc32/v1.22/bin/../lib/gcc/pic32mx/4.5.2/mips16\libgcc.a(_udivdi3.o)
 .gnu.attributes
                0x00000610       0x10 c:/program files (x86)/microchip/xc32/v1.22/bin/../lib/gcc/pic32mx/4.5.2/mips16\libgcc.a(_umoddi3.o)
 .gnu.attributes
                0x00000620       0x10 c:/program files (x86)/microchip/xc32/v1.22/bin/../lib/gcc/pic32mx/4.5.2/mips16\libgcc.a(_clz.o)
 .gnu.attributes
                0x00000630       0x10 c:/program files (x86)/microchip/xc32/v1.22/bin/../lib/gcc/pic32mx/4.5.2/../../../../pic32mx/lib/mips16\libpic32.a(default-bootstrap-exception-handler.o)
 .gnu.attributes
                0x00000640       0x10 c:/program files (x86)/microchip/xc32/v1.22/bin/../lib/gcc/pic32mx/4.5.2/../../../../pic32mx/lib/mips16\libpic32.a(default-on-reset.o)
 .gnu.attributes
                0x00000650       0x10 c:/program files (x86)/microchip/xc32/v1.22/bin/../lib/gcc/pic32mx/4.5.2/../../../../pic32mx/lib/mips16\libpic32.a(default-on-bootstrap.o)
 .gnu.attributes
                0x00000660       0x10 c:/program files (x86)/microchip/xc32/v1.22/bin/../lib/gcc/pic32mx/4.5.2/../../../../pic32mx/lib/mips16\libpic32.a(errno.o)
 .gnu.attributes
                0x00000670       0x10 c:/program files (x86)/microchip/xc32/v1.22/bin/../lib/gcc/pic32mx/4.5.2/../../../../pic32mx/lib/mips16\libm.a(w_powf.o)
 .gnu.attributes
                0x00000680       0x10 c:/program files (x86)/microchip/xc32/v1.22/bin/../lib/gcc/pic32mx/4.5.2/../../../../pic32mx/lib/mips16\libm.a(w_log10f.o)
 .gnu.attributes
                0x00000690       0x10 c:/program files (x86)/microchip/xc32/v1.22/bin/../lib/gcc/pic32mx/4.5.2/../../../../pic32mx/lib/mips16\libm.a(s_lib_ver.o)
 .gnu.attributes
                0x000006a0       0x10 c:/program files (x86)/microchip/xc32/v1.22/bin/../lib/gcc/pic32mx/4.5.2/../../../../pic32mx/lib/mips16\libe.a(_unordsf2.o)
 .gnu.attributes
                0x000006b0       0x10 c:/program files (x86)/microchip/xc32/v1.22/bin/../lib/gcc/pic32mx/4.5.2/../../../../pic32mx/lib/mips16\libpic32.a(isinf.o)
 .gnu.attributes
                0x000006c0       0x10 c:/program files (x86)/microchip/xc32/v1.22/bin/../lib/gcc/pic32mx/4.5.2/../../../../pic32mx/lib/mips16\libc.a(_iob.o)
 .gnu.attributes
                0x000006d0       0x10 c:/program files (x86)/microchip/xc32/v1.22/bin/../lib/gcc/pic32mx/4.5.2/../../../../pic32mx/lib/mips16\libc.a(_fputc_simple.o)
 .gnu.attributes
                0x000006e0       0x10 c:/program files (x86)/microchip/xc32/v1.22/bin/../lib/gcc/pic32mx/4.5.2/../../../../pic32mx/lib/mips16\libc.a(fread.o)
 .gnu.attributes
                0x000006f0       0x10 c:/program files (x86)/microchip/xc32/v1.22/bin/../lib/gcc/pic32mx/4.5.2/../../../../pic32mx/lib/mips16\libc.a(fseek.o)
 .gnu.attributes
                0x00000700       0x10 c:/program files (x86)/microchip/xc32/v1.22/bin/../lib/gcc/pic32mx/4.5.2/../../../../pic32mx/lib/mips16\libc.a(fwrite.o)
 .gnu.attributes
                0x00000710       0x10 c:/program files (x86)/microchip/xc32/v1.22/bin/../lib/gcc/pic32mx/4.5.2/../../../../pic32mx/lib/mips16\libc.a(atoi.o)
 .gnu.attributes
                0x00000720       0x10 c:/program files (x86)/microchip/xc32/v1.22/bin/../lib/gcc/pic32mx/4.5.2/../../../../pic32mx/lib/mips16\libc.a(calloc.o)
 .gnu.attributes
                0x00000730       0x10 c:/program files (x86)/microchip/xc32/v1.22/bin/../lib/gcc/pic32mx/4.5.2/../../../../pic32mx/lib/mips16\libc.a(ctype.o)
 .gnu.attributes
                0x00000740       0x10 c:/program files (x86)/microchip/xc32/v1.22/bin/../lib/gcc/pic32mx/4.5.2/../../../../pic32mx/lib/mips16\libc.a(ctypef.o)
 .gnu.attributes
                0x00000750       0x10 c:/program files (x86)/microchip/xc32/v1.22/bin/../lib/gcc/pic32mx/4.5.2/../../../../pic32mx/lib/mips16\libc.a(malloc.o)
 .gnu.attributes
                0x00000760       0x10 c:/program files (x86)/microchip/xc32/v1.22/bin/../lib/gcc/pic32mx/4.5.2/../../../../pic32mx/lib/mips16\libc.a(memchr.o)
 .gnu.attributes
                0x00000770       0x10 c:/program files (x86)/microchip/xc32/v1.22/bin/../lib/gcc/pic32mx/4.5.2/../../../../pic32mx/lib/mips16\libc.a(memcmp.o)
 .gnu.attributes
                0x00000780       0x10 c:/program files (x86)/microchip/xc32/v1.22/bin/../lib/gcc/pic32mx/4.5.2/../../../../pic32mx/lib/mips16\libc.a(memcpy.o)
 .gnu.attributes
                0x00000790       0x10 c:/program files (x86)/microchip/xc32/v1.22/bin/../lib/gcc/pic32mx/4.5.2/../../../../pic32mx/lib/mips16\libc.a(memmove.o)
 .gnu.attributes
                0x000007a0       0x10 c:/program files (x86)/microchip/xc32/v1.22/bin/../lib/gcc/pic32mx/4.5.2/../../../../pic32mx/lib/mips16\libc.a(memset.o)
 .gnu.attributes
                0x000007b0       0x10 c:/program files (x86)/microchip/xc32/v1.22/bin/../lib/gcc/pic32mx/4.5.2/../../../../pic32mx/lib/mips16\libc.a(signal.o)
 .gnu.attributes
                0x000007c0       0x10 c:/program files (x86)/microchip/xc32/v1.22/bin/../lib/gcc/pic32mx/4.5.2/../../../../pic32mx/lib/mips16\libc.a(strchr.o)
 .gnu.attributes
                0x000007d0       0x10 c:/program files (x86)/microchip/xc32/v1.22/bin/../lib/gcc/pic32mx/4.5.2/../../../../pic32mx/lib/mips16\libc.a(strcmp.o)
 .gnu.attributes
                0x000007e0       0x10 c:/program files (x86)/microchip/xc32/v1.22/bin/../lib/gcc/pic32mx/4.5.2/../../../../pic32mx/lib/mips16\libc.a(strlen.o)
 .gnu.attributes
                0x000007f0       0x10 c:/program files (x86)/microchip/xc32/v1.22/bin/../lib/gcc/pic32mx/4.5.2/../../../../pic32mx/lib/mips16\libc.a(strncpy.o)
 .gnu.attributes
                0x00000800       0x10 c:/program files (x86)/microchip/xc32/v1.22/bin/../lib/gcc/pic32mx/4.5.2/../../../../pic32mx/lib/mips16\libc.a(strtod.o)
 .gnu.attributes
                0x00000810       0x10 c:/program files (x86)/microchip/xc32/v1.22/bin/../lib/gcc/pic32mx/4.5.2/../../../../pic32mx/lib/mips16\libc.a(strstr.o)
 .gnu.attributes
                0x00000820       0x10 c:/program files (x86)/microchip/xc32/v1.22/bin/../lib/gcc/pic32mx/4.5.2/../../../../pic32mx/lib/mips16\libc.a(strtok.o)
 .gnu.attributes
                0x00000830       0x10 c:/program files (x86)/microchip/xc32/v1.22/bin/../lib/gcc/pic32mx/4.5.2/../../../../pic32mx/lib/mips16\libc.a(strtol.o)
 .gnu.attributes
                0x00000840       0x10 c:/program files (x86)/microchip/xc32/v1.22/bin/../lib/gcc/pic32mx/4.5.2/../../../../pic32mx/lib/mips16\libc.a(exit.o)
 .gnu.attributes
                0x00000850       0x10 c:/program files (x86)/microchip/xc32/v1.22/bin/../lib/gcc/pic32mx/4.5.2/../../../../pic32mx/lib/mips16\libc.a(doprnt.o)
 .gnu.attributes
                0x00000860       0x10 c:/program files (x86)/microchip/xc32/v1.22/bin/../lib/gcc/pic32mx/4.5.2/../../../../pic32mx/lib/mips16\libc.a(printf_cdnopuxX.eo)
 .gnu.attributes
                0x00000870       0x10 c:/program files (x86)/microchip/xc32/v1.22/bin/../lib/gcc/pic32mx/4.5.2/../../../../pic32mx/lib/mips16\libc.a(sprintf_cdnopsuxX.eo)
 .gnu.attributes
                0x00000880       0x10 c:/program files (x86)/microchip/xc32/v1.22/bin/../lib/gcc/pic32mx/4.5.2/../../../../pic32mx/lib/mips16\libc.a(vsnprintf.o)
 .gnu.attributes
                0x00000890       0x10 c:/program files (x86)/microchip/xc32/v1.22/bin/../lib/gcc/pic32mx/4.5.2/../../../../pic32mx/lib/mips16\libc.a(_flsbuf_simple.o)
 .gnu.attributes
                0x000008a0       0x10 c:/program files (x86)/microchip/xc32/v1.22/bin/../lib/gcc/pic32mx/4.5.2/../../../../pic32mx/lib/mips16\libc.a(stdclean_simple.o)
 .gnu.attributes
                0x000008b0       0x10 c:/program files (x86)/microchip/xc32/v1.22/bin/../lib/gcc/pic32mx/4.5.2/../../../../pic32mx/lib/mips16\libc.a(fflush.o)
 .gnu.attributes
                0x000008c0       0x10 c:/program files (x86)/microchip/xc32/v1.22/bin/../lib/gcc/pic32mx/4.5.2/../../../../pic32mx/lib/mips16\libc.a(fgetc.o)
 .gnu.attributes
                0x000008d0       0x10 c:/program files (x86)/microchip/xc32/v1.22/bin/../lib/gcc/pic32mx/4.5.2/../../../../pic32mx/lib/mips16\libc.a(powersf.o)
 .gnu.attributes
                0x000008e0       0x10 c:/program files (x86)/microchip/xc32/v1.22/bin/../lib/gcc/pic32mx/4.5.2/../../../../pic32mx/lib/mips16\libc.a(strcspn.o)
 .gnu.attributes
                0x000008f0       0x10 c:/program files (x86)/microchip/xc32/v1.22/bin/../lib/gcc/pic32mx/4.5.2/../../../../pic32mx/lib/mips16\libc.a(strncmp.o)
 .gnu.attributes
                0x00000900       0x10 c:/program files (x86)/microchip/xc32/v1.22/bin/../lib/gcc/pic32mx/4.5.2/../../../../pic32mx/lib/mips16\libc.a(strspn.o)
 .gnu.attributes
                0x00000910       0x10 c:/program files (x86)/microchip/xc32/v1.22/bin/../lib/gcc/pic32mx/4.5.2/../../../../pic32mx/lib/mips16\libc.a(doprnt_cdnopsuxX.eo)
 .gnu.attributes
                0x00000920       0x10 c:/program files (x86)/microchip/xc32/v1.22/bin/../lib/gcc/pic32mx/4.5.2/../../../../pic32mx/lib/mips16\libc.a(filbuf.o)
 .gnu.attributes
                0x00000930       0x10 c:/program files (x86)/microchip/xc32/v1.22/bin/../lib/gcc/pic32mx/4.5.2/../../../../pic32mx/lib/mips16\libpic32.a(sbrk.o)
 .gnu.attributes
                0x00000940       0x10 c:/program files (x86)/microchip/xc32/v1.22/bin/../lib/gcc/pic32mx/4.5.2/../../../../pic32mx/lib/mips16\libpic32.a(read.o)
 .gnu.attributes
                0x00000950       0x10 c:/program files (x86)/microchip/xc32/v1.22/bin/../lib/gcc/pic32mx/4.5.2/../../../../pic32mx/lib/mips16\libpic32.a(write.o)
 .gnu.attributes
                0x00000960       0x10 c:/program files (x86)/microchip/xc32/v1.22/bin/../lib/gcc/pic32mx/4.5.2/../../../../pic32mx/lib/mips16\libpic32.a(lseek.o)
 .gnu.attributes
                0x00000970       0x10 c:/program files (x86)/microchip/xc32/v1.22/bin/../lib/gcc/pic32mx/4.5.2/../../../../pic32mx/lib/mips16\libpic32.a(xc32_uart.o)
 .gnu.attributes
                0x00000980       0x10 c:/program files (x86)/microchip/xc32/v1.22/bin/../lib/gcc/pic32mx/4.5.2/../../../../pic32mx/lib/mips16\libpic32.a(_mon_putc.o)
 .gnu.attributes
                0x00000990       0x10 c:/program files (x86)/microchip/xc32/v1.22/bin/../lib/gcc/pic32mx/4.5.2/../../../../pic32mx/lib/mips16\libe.a(_unorddf2.o)
 .gnu.attributes
                0x000009a0       0x10 c:/program files (x86)/microchip/xc32/v1.22/bin/../lib/gcc/pic32mx/4.5.2/../../../../pic32mx/lib/mips16\libe.a(_strtod.o)
 .gnu.attributes
                0x000009b0       0x10 c:/program files (x86)/microchip/xc32/v1.22/bin/../lib/gcc/pic32mx/4.5.2/../../../../pic32mx/lib/mips16\libe.a(_ldexp.o)
 .gnu.attributes
                0x000009c0       0x10 c:/program files (x86)/microchip/xc32/v1.22/bin/../lib/gcc/pic32mx/4.5.2/mips16\libgcc.a(_lshrdi3.o)
 .gnu.attributes
                0x000009d0       0x10 c:/program files (x86)/microchip/xc32/v1.22/bin/../lib/gcc/pic32mx/4.5.2/mips16\libgcc.a(_floatundisf.o)
 .gnu.attributes
                0x000009e0       0x10 c:/program files (x86)/microchip/xc32/v1.22/bin/../lib/gcc/pic32mx/4.5.2/mips16\libgcc.a(floatunsisf.o)
                0x00019000                _min_heap_size = 0x19000
                0x00000470                _min_stack_size = 0x470
LOAD c:/program files (x86)/microchip/xc32/v1.22/bin/../lib/gcc/pic32mx/4.5.2/mips16\libgcc.a
START GROUP
LOAD c:/program files (x86)/microchip/xc32/v1.22/bin/../lib/gcc/pic32mx/4.5.2/../../../../pic32mx/lib/mips16\libpic32.a
LOAD c:/program files (x86)/microchip/xc32/v1.22/bin/../lib/gcc/pic32mx/4.5.2/../../../../pic32mx/lib/mips16\libdebug.a
LOAD c:/program files (x86)/microchip/xc32/v1.22/bin/../lib/gcc/pic32mx/4.5.2/../../../../pic32mx/lib/mips16\libm.a
LOAD c:/program files (x86)/microchip/xc32/v1.22/bin/../lib/gcc/pic32mx/4.5.2/../../../../pic32mx/lib/mips16\libe.a
LOAD c:/program files (x86)/microchip/xc32/v1.22/bin/../lib/gcc/pic32mx/4.5.2/../../../../pic32mx/lib/mips16\libdsp.a
LOAD c:/program files (x86)/microchip/xc32/v1.22/bin/../lib/gcc/pic32mx/4.5.2/mips16\libgcc.a
LOAD c:/program files (x86)/microchip/xc32/v1.22/bin/../lib/gcc/pic32mx/4.5.2/../../../../pic32mx/lib/mips16\libpic32.a
LOAD c:/program files (x86)/microchip/xc32/v1.22/bin/../lib/gcc/pic32mx/4.5.2/../../../../pic32mx/lib/mips16\libc.a
LOAD c:/program files (x86)/microchip/xc32/v1.22/bin/../lib/gcc/pic32mx/4.5.2/../../../../pic32mx/lib/mips16\libpic32.a
END GROUP
LOAD c:/program files (x86)/microchip/xc32/v1.22/bin/../lib/gcc/pic32mx/4.5.2/mips16\libgcc.a
OUTPUT(dist/default/production/PICrouter_795_mrb.X.production.elf elf32-tradlittlemips)
LOAD stack
LOAD data_init

.reginfo        0x00000000       0x18
 .reginfo       0x00000000       0x18 c:/program files (x86)/microchip/xc32/v1.22/bin/../lib/gcc/pic32mx/4.5.2/../../../../pic32mx/lib/mips16/crt0.o

.stack          0xa001faf0      0x470
 .stack         0xa001faf0      0x470 stack

.bss.udpPacket.udpPacket
                0xa0000a90     0x2400
 .bss.udpPacket.udpPacket
                0xa0000a90     0x2400 build/default/production/_ext/454704213/osc.o

.bss._RxBuffers._RxBuffers
                0xa0002e90     0x2000
 .bss._RxBuffers._RxBuffers
                0xa0002e90     0x2000 build/default/production/_ext/1340694758/ETHPIC32IntMac.o

.bss._TxDescriptors._TxDescriptors
                0xa0004e90      0xbe0
 .bss._TxDescriptors._TxDescriptors
                0xa0004e90      0xbe0 build/default/production/_ext/1340694758/ETHPIC32IntMac.o

.bss.analog.analog
                0xa0005a70      0x380
 .bss.analog.analog
                0xa0005a70      0x380 build/default/production/_ext/454704213/analog.o

.bss.gSDCtx.gSDCtx
                0xa0005df0      0x21c
 .bss.gSDCtx.gSDCtx
                0xa0005df0      0x21c build/default/production/_ext/1340694758/ZeroconfMulticastDNS.o

.bss.bundleData.bundleData
                0xa000600c      0x200
 .bss.bundleData.bundleData
                0xa000600c      0x200 build/default/production/_ext/454704213/osc.o

.bss.name.22407.name
                0xa000620c      0x100
 .bss.name.22407.name
                0xa000620c      0x100 build/default/production/_ext/1340694758/ZeroconfMulticastDNS.o

.bss.gResponderCtx.gResponderCtx
                0xa0000304       0xcc
 .bss.gResponderCtx.gResponderCtx
                0xa0000304       0xcc build/default/production/_ext/1340694758/ZeroconfMulticastDNS.o

.bss.oscPacket.oscPacket
                0xa000630c       0xc0
 .bss.oscPacket.oscPacket
                0xa000630c       0xc0 build/default/production/_ext/454704213/osc.o

.bss.sndOSCData.sndOSCData
                0xa00063cc       0xa0
 .bss.sndOSCData.sndOSCData
                0xa00063cc       0xa0 build/default/production/_ext/454704213/osc.o

.data           0xa000646c      0x12c
 .data          0xa000646c       0xa0 c:/program files (x86)/microchip/xc32/v1.22/bin/../lib/gcc/pic32mx/4.5.2/../../../../pic32mx/lib/mips16\libc.a(_iob.o)
                0xa000646c                _iob
 .data          0xa000650c       0x8c c:/program files (x86)/microchip/xc32/v1.22/bin/../lib/gcc/pic32mx/4.5.2/../../../../pic32mx/lib/mips16\libm.a(fplog32.o)

.bss.gHostCtx.gHostCtx
                0xa0006598       0x6c
 .bss.gHostCtx.gHostCtx
                0xa0006598       0x6c build/default/production/_ext/1340694758/ZeroconfMulticastDNS.o

.bss.rcvArgumentsStartIndex.rcvArgumentsStartIndex
                0xa0006604       0x50
 .bss.rcvArgumentsStartIndex.rcvArgumentsStartIndex
                0xa0006604       0x50 build/default/production/_ext/454704213/osc.o

.bss.rcvArgumentsIndexLength.rcvArgumentsIndexLength
                0xa0006654       0x50
 .bss.rcvArgumentsIndexLength.rcvArgumentsIndexLength
                0xa0006654       0x50 build/default/production/_ext/454704213/osc.o

.bss.usbEventQueue.usbEventQueue
                0xa00066a4       0x4c
 .bss.usbEventQueue.usbEventQueue
                0xa00066a4       0x4c build/default/production/_ext/1798056102/usb_host.o

.bss.rcvAddressStrings.rcvAddressStrings
                0xa00066f0       0x40
 .bss.rcvAddressStrings.rcvAddressStrings
                0xa00066f0       0x40 build/default/production/_ext/454704213/osc.o

.bss            0xa0006730       0x40
 .bss           0xa0006730       0x40 c:/program files (x86)/microchip/xc32/v1.22/bin/../lib/gcc/pic32mx/4.5.2/../../../../pic32mx/lib/mips16\libc.a(_iob.o)
                0xa0006730                _sibuf
                0xa0006750                _sobuf

.bss.currentValue.currentValue
                0xa0006770       0x38
 .bss.currentValue.currentValue
                0xa0006770       0x38 build/default/production/_ext/454704213/analog.o

.bss.prevValue.prevValue
                0xa00067a8       0x38
 .bss.prevValue.prevValue
                0xa00067a8       0x38 build/default/production/_ext/454704213/analog.o

.bss.currentDirectionValue.currentDirectionValue
                0xa00067e0       0x38
 .bss.currentDirectionValue.currentDirectionValue
                0xa00067e0       0x38 build/default/production/_ext/454704213/analog.o

.bss.currentAnalog.currentAnalog
                0xa0006818       0x38
 .bss.currentAnalog.currentAnalog
                0xa0006818       0x38 build/default/production/_ext/454704213/analog.o

.bss.prevAnalog.prevAnalog
                0xa0006850       0x38
 .bss.prevAnalog.prevAnalog
                0xa0006850       0x38 build/default/production/_ext/454704213/analog.o

.bss.analogSendFlag.analogSendFlag
                0xa0006888       0x38
 .bss.analogSendFlag.analogSendFlag
                0xa0006888       0x38 build/default/production/_ext/454704213/analog.o

.bss.analogEnable.analogEnable
                0xa00068c0       0x38
 .bss.analogEnable.analogEnable
                0xa00068c0       0x38 build/default/production/_ext/454704213/analog.o

.bss.boundaryValue.boundaryValue
                0xa00068f8       0x38
 .bss.boundaryValue.boundaryValue
                0xa00068f8       0x38 build/default/production/_ext/454704213/analog.o

.bss.boundaryPosition.boundaryPosition
                0xa0006930       0x38
 .bss.boundaryPosition.boundaryPosition
                0xa0006930       0x38 build/default/production/_ext/454704213/analog.o

.data.usbClientDrvTable.usbClientDrvTable
                0xa00003d0       0x30
 .data.usbClientDrvTable.usbClientDrvTable
                0xa00003d0       0x30 build/default/production/_ext/454704213/usb_config.o
                0xa00003d0                usbClientDrvTable

.bss.DHCPClient.DHCPClient
                0xa0006968       0x2c
 .bss.DHCPClient.DHCPClient
                0xa0006968       0x2c build/default/production/_ext/1340694758/DHCP.o

.bss.rcvArgsTypeArray.rcvArgsTypeArray
                0xa0006994       0x28
 .bss.rcvArgsTypeArray.rcvArgsTypeArray
                0xa0006994       0x28 build/default/production/_ext/454704213/osc.o

.bss.usbDeviceInfo.usbDeviceInfo
                0xa00069bc       0x20
 .bss.usbDeviceInfo.usbDeviceInfo
                0xa00069bc       0x20 build/default/production/_ext/1798056102/usb_host.o

.data           0xa00069dc       0x1c
 .data          0xa00069dc       0x1c c:/program files (x86)/microchip/xc32/v1.22/bin/../lib/gcc/pic32mx/4.5.2/../../../../pic32mx/lib/mips16\libm.a(fpexp32.o)

.bss            0xa00069f8       0x1c
 .bss           0xa00069f8       0x1c c:/program files (x86)/microchip/xc32/v1.22/bin/../lib/gcc/pic32mx/4.5.2/../../../../pic32mx/lib/mips16\libpic32.a(sbrk.o)

.data.usbTPL.usbTPL
                0xa0006a14       0x18
 .data.usbTPL.usbTPL
                0xa0006a14       0x18 build/default/production/_ext/454704213/usb_config.o
                0xa0006a14                usbTPL

.bss            0xa0006a2c       0x18
 .bss           0xa0006a2c       0x18 c:/program files (x86)/microchip/xc32/v1.22/bin/../lib/gcc/pic32mx/4.5.2/../../../../pic32mx/lib/mips16\libc.a(signal.o)

.data.hostName.hostName
                0xa0006a44       0x14
 .data.hostName.hostName
                0xa0006a44       0x14 build/default/production/_ext/454704213/osc.o

.bss.analogType.analogType
                0xa0006a58       0x10
 .bss.analogType.analogType
                0xa0006a58       0x10 build/default/production/_ext/454704213/analog.o

.bss.count.count
                0xa0006a68       0x10
 .bss.count.count
                0xa0006a68       0x10 build/default/production/_ext/454704213/analog.o

.bss.ioAnPort.ioAnPort
                0xa0006a78       0x10
 .bss.ioAnPort.ioAnPort
                0xa0006a78       0x10 build/default/production/_ext/454704213/iosetting.o
                0xa0006a78                ioAnPort

.bss.reg_apps.reg_apps
                0xa0006a88       0x10
 .bss.reg_apps.reg_apps
                0xa0006a88       0x10 build/default/production/_ext/1340694758/ARP.o

.bss            0xa0006a98       0x10
 .bss           0xa0006a98       0x10 c:/program files (x86)/microchip/xc32/v1.22/bin/../lib/gcc/pic32mx/4.5.2/../../../../pic32mx/lib/mips16\libc.a(malloc.o)
                0xa0006a98                __allocs

.bss.Cache.Cache
                0xa0006aa8        0xc
 .bss.Cache.Cache
                0xa0006aa8        0xc build/default/production/_ext/1340694758/ARP.o

.bss.Target.22089.Target
                0xa0006ab4        0xc
 .bss.Target.22089.Target
                0xa0006ab4        0xc build/default/production/_ext/1340694758/ARP.o

.bss.mDNSRemote.mDNSRemote
                0xa0006ac0        0xc
 .bss.mDNSRemote.mDNSRemote
                0xa0006ac0        0xc build/default/production/_ext/1340694758/ZeroconfMulticastDNS.o

.data.math_errhandling_flag
                0xa0006acc        0x4
 .data.math_errhandling_flag
                0xa0006acc        0x4 c:/program files (x86)/microchip/xc32/v1.22/bin/../lib/gcc/pic32mx/4.5.2/../../../../pic32mx/lib/mips16\libm.a(s_lib_ver.o)
                0xa0006acc                math_errhandling

.bss            0xa0006ad0        0x4
 .bss           0xa0006ad0        0x4 c:/program files (x86)/microchip/xc32/v1.22/bin/../lib/gcc/pic32mx/4.5.2/../../../../pic32mx/lib/mips16\libc.a(strtok.o)

.text.mrb_receive_osc_task
                0x9d004490     0x49ac
 .text.mrb_receive_osc_task
                0x9d004490     0x49ac build/default/production/picrouter.o
                0x9d004491                mrb_receive_osc_task

.rodata.mrblib_irep.mrblib_irep
                0x9d008e3c     0x40a4
 .rodata.mrblib_irep.mrblib_irep
                0x9d008e3c     0x40a4 ..\mruby-1.0.0\build\PICrouter\lib\libmruby.a(mrblib.o)
                0x9d008e3c                mrblib_irep

.text.mrb_context_run
                0x9d00cee0     0x3a3c
 .text.mrb_context_run
                0x9d00cee0     0x3a3c ..\mruby-1.0.0\build\PICrouter\lib\libmruby.a(vm.o)
                0x9d00cee1                mrb_context_run

.text.vfprintf  0x9d01091c     0x15a0
 .text.vfprintf
                0x9d01091c     0x15a0 c:/program files (x86)/microchip/xc32/v1.22/bin/../lib/gcc/pic32mx/4.5.2/../../../../pic32mx/lib/mips16\libc.a(doprnt.o)
                0x9d01091d                vfprintf

.text.mrb_hid_ctrl_task
                0x9d011ebc     0x11d4
 .text.mrb_hid_ctrl_task
                0x9d011ebc     0x11d4 build/default/production/picrouter.o
                0x9d011ebd                mrb_hid_ctrl_task

.text           0x9d013090     0x1128
 .text          0x9d013090     0x1128 c:/program files (x86)/microchip/xc32/v1.22/bin/../lib/gcc/pic32mx/4.5.2/../../../../pic32mx/lib/mips16\libm.a(dp32.o)
                0x9d013090                dpsub
                0x9d013090                __subdf3
                0x9d013098                dpadd
                0x9d013098                __adddf3
                0x9d0134bc                __muldf3
                0x9d0134bc                dpmul
                0x9d0137e4                dpdiv
                0x9d0137e4                __divdf3
                0x9d013c98                __floatsidf
                0x9d013c98                litodp
                0x9d013d0c                ultodp
                0x9d013d5c                fptodp
                0x9d013d5c                __extendsfdf2
                0x9d013e00                dptofp
                0x9d013e00                __truncdfsf2
                0x9d013ef8                __fixdfsi
                0x9d013ef8                dptoli
                0x9d013f80                dptoul
                0x9d013f80                __fixunsdfsi
                0x9d014004                dpcmp
                0x9d014004                __eqdf2
                0x9d014004                __gedf2
                0x9d014004                __ltdf2
                0x9d014004                __ledf2
                0x9d014004                __gtdf2
                0x9d014004                __nedf2
                0x9d014128                __negdf2
                0x9d014140                dpfabs
                0x9d014140                fabs
                0x9d01415c                dpnan
                0x9d01415c                nan

.text.USBHostTasks
                0x9d0141b8      0xfb0
 .text.USBHostTasks
                0x9d0141b8      0xfb0 build/default/production/_ext/1798056102/usb_host.o
                0x9d0141b9                USBHostTasks

.dinit          0x9d015168      0xac0
 .dinit         0x9d015168      0xac0 data_init

.text._USB_FindNextToken
                0x9d015c28      0xa7c
 .text._USB_FindNextToken
                0x9d015c28      0xa7c build/default/production/_ext/1798056102/usb_host.o
                0x9d015c29                _USB_FindNextToken

.text._USB1Interrupt
                0x9d0166a4      0x9f4
 .text._USB1Interrupt
                0x9d0166a4      0x9f4 build/default/production/_ext/1798056102/usb_host.o
                0x9d0166a4                _USB1Interrupt

.rodata         0x9d017098      0x8ec
 .rodata        0x9d017098      0x8ec build/default/production/picrouter.o

.text           0x9d017984      0x8ec
 .text          0x9d017984      0x8ec c:/program files (x86)/microchip/xc32/v1.22/bin/../lib/gcc/pic32mx/4.5.2/../../../../pic32mx/lib/mips16\libm.a(fp32.o)
                0x9d017984                __subsf3
                0x9d017984                fpsub
                0x9d01798c                fpadd
                0x9d01798c                __addsf3
                0x9d017bf8                fpmul
                0x9d017bf8                __mulsf3
                0x9d017db0                __divsf3
                0x9d017db0                fpdiv
                0x9d017fdc                litofp
                0x9d017fdc                sitofp
                0x9d017fdc                __floatsisf
                0x9d018038                ultofp
                0x9d018038                uitofp
                0x9d018084                fptosi
                0x9d018084                fptoli
                0x9d018084                __fixsfsi
                0x9d0180fc                fptoui
                0x9d0180fc                fptoul
                0x9d0180fc                __fixunssfsi
                0x9d018170                __nesf2
                0x9d018170                fpcmp
                0x9d018170                __lesf2
                0x9d018170                __ltsf2
                0x9d018170                __gesf2
                0x9d018170                __eqsf2
                0x9d018170                __gtsf2
                0x9d018204                fabsf
                0x9d018204                fpfabs
                0x9d018214                __negsf2
                0x9d018224                fpnan
                0x9d018224                nanf

.rodata         0x9d018270      0x7d4
 .rodata        0x9d018270      0x7d4 c:/program files (x86)/microchip/xc32/v1.22/bin/../lib/gcc/pic32mx/4.5.2/../../../../pic32mx/lib/mips16\libmchp_peripheral_32MX795F512H.a(int_tbl_lib.o)
                0x9d018270                __IntSrcTbl
                0x9d01878c                __IntVectorTbl

.text.mrb_get_args
                0x9d018a44      0x7b0
 .text.mrb_get_args
                0x9d018a44      0x7b0 ..\mruby-1.0.0\build\PICrouter\lib\libmruby.a(class.o)
                0x9d018a45                mrb_get_args

.text._vfprintf_cdnopsuxX
                0x9d0191f4      0x774
 .text._vfprintf_cdnopsuxX
                0x9d0191f4      0x774 c:/program files (x86)/microchip/xc32/v1.22/bin/../lib/gcc/pic32mx/4.5.2/../../../../pic32mx/lib/mips16\libc.a(doprnt_cdnopsuxX.eo)
                0x9d0191f5                _vfprintf_0
                0x9d0191f5                _vfprintf_s
                0x9d0191f5                _vfprintf_cdnopsuxX
                0x9d0191f5                _vfprintf_cdnopuxX

.rodata         0x9d019968      0x720
 .rodata        0x9d019968      0x720 ..\mruby-1.0.0\build\PICrouter\lib\libmruby.a(class.o)

.text.mrb_init_class
                0x9d01a088      0x57c
 .text.mrb_init_class
                0x9d01a088      0x57c ..\mruby-1.0.0\build\PICrouter\lib\libmruby.a(class.o)
                0x9d01a089                mrb_init_class

.text.ZeroconfLLProcess
                0x9d01a604      0x538
 .text.ZeroconfLLProcess
                0x9d01a604      0x538 build/default/production/_ext/1340694758/ZeroconfLinkLocal.o
                0x9d01a605                ZeroconfLLProcess

.text           0x9d01ab3c      0x45c
 .text          0x9d01ab3c      0x45c c:/program files (x86)/microchip/xc32/v1.22/bin/../lib/gcc/pic32mx/4.5.2/../../../../pic32mx/lib/mips16\libm.a(fplog32.o)
                0x9d01ab3c                fpexlog
                0x9d01adec                fplog
                0x9d01adec                __mchp_logf
                0x9d01aeac                fplog10
                0x9d01aeac                __mchp_log10f

.text.mrb_init_kernel
                0x9d01af98      0x41c
 .text.mrb_init_kernel
                0x9d01af98      0x41c ..\mruby-1.0.0\build\PICrouter\lib\libmruby.a(kernel.o)
                0x9d01af99                mrb_init_kernel

.text           0x9d01b3b4      0x404
 .text          0x9d01b3b4      0x404 c:/program files (x86)/microchip/xc32/v1.22/bin/../lib/gcc/pic32mx/4.5.2/../../../../pic32mx/lib/mips16\libm.a(fppow32.o)
                0x9d01b3b4                __mchp_powf
                0x9d01b3b4                fppow

.text.mrb_init_string
                0x9d01b7b8      0x3f8
 .text.mrb_init_string
                0x9d01b7b8      0x3f8 ..\mruby-1.0.0\build\PICrouter\lib\libmruby.a(string.o)
                0x9d01b7b9                mrb_init_string

.text           0x9d01bbb0      0x3dc
 .text          0x9d01bbb0      0x3dc c:/program files (x86)/microchip/xc32/v1.22/bin/../lib/gcc/pic32mx/4.5.2/../../../../pic32mx/lib/mips16\libm.a(fpmod32.o)
                0x9d01bbb0                fpfmod
                0x9d01bbb0                fmodf
                0x9d01bcf4                fpfrexp
                0x9d01bcf4                frexpf
                0x9d01bd78                fpldexp
                0x9d01bd78                __mchp_ldexpf
                0x9d01bebc                modff
                0x9d01bebc                fpmodf

.text.mrb_cstr_to_inum
                0x9d01bf8c      0x3c0
 .text.mrb_cstr_to_inum
                0x9d01bf8c      0x3c0 ..\mruby-1.0.0\build\PICrouter\lib\libmruby.a(string.o)
                0x9d01bf8d                mrb_cstr_to_inum

.text.mrb_init_numeric
                0x9d01c34c      0x3b8
 .text.mrb_init_numeric
                0x9d01c34c      0x3b8 ..\mruby-1.0.0\build\PICrouter\lib\libmruby.a(numeric.o)
                0x9d01c34d                mrb_init_numeric

.rodata         0x9d01c704      0x3ac
 .rodata        0x9d01c704      0x3ac ..\mruby-1.0.0\build\PICrouter\lib\libmruby.a(kernel.o)

.text.DHCPTask  0x9d01cab0      0x3a8
 .text.DHCPTask
                0x9d01cab0      0x3a8 build/default/production/_ext/1340694758/DHCP.o
                0x9d01cab1                DHCPTask

.text.mrb_init_define_methods
                0x9d01ce58      0x3a4
 .text.mrb_init_define_methods
                0x9d01ce58      0x3a4 build/default/production/picrouter.o
                0x9d01ce59                mrb_init_define_methods

.text.mDNSProcessIncomingRR
                0x9d01d1fc      0x39c
 .text.mDNSProcessIncomingRR
                0x9d01d1fc      0x39c build/default/production/_ext/1340694758/ZeroconfMulticastDNS.o

.rodata.bytecode.bytecode
                0x9d01d598      0x390
 .rodata.bytecode.bytecode
                0x9d01d598      0x390 build/default/production/mrb_picrouter.o
                0x9d01d598                bytecode

.text.mrb_str_split_m
                0x9d01d928      0x384
 .text.mrb_str_split_m
                0x9d01d928      0x384 ..\mruby-1.0.0\build\PICrouter\lib\libmruby.a(string.o)

.text.symname_p
                0x9d01dcac      0x384
 .text.symname_p
                0x9d01dcac      0x384 ..\mruby-1.0.0\build\PICrouter\lib\libmruby.a(symbol.o)

.text.USBHostCDCEventHandler
                0x9d01e030      0x378
 .text.USBHostCDCEventHandler
                0x9d01e030      0x378 build/default/production/_ext/1798056102/usb_host_cdc.o
                0x9d01e031                USBHostCDCEventHandler

.text           0x9d01e3a8      0x6e0
 .text          0x9d01e3a8      0x370 c:/program files (x86)/microchip/xc32/v1.22/bin/../lib/gcc/pic32mx/4.5.2/mips16\libgcc.a(_udivdi3.o)
                0x9d01e3a9                __udivdi3
 .text          0x9d01e718      0x370 c:/program files (x86)/microchip/xc32/v1.22/bin/../lib/gcc/pic32mx/4.5.2/mips16\libgcc.a(_umoddi3.o)
                0x9d01e719                __umoddi3

.text.mrb_init_array
                0x9d01ea88      0x348
 .text.mrb_init_array
                0x9d01ea88      0x348 ..\mruby-1.0.0\build\PICrouter\lib\libmruby.a(array.o)
                0x9d01ea89                mrb_init_array

.rodata         0x9d01edd0      0x344
 .rodata        0x9d01edd0      0x344 ..\mruby-1.0.0\build\PICrouter\lib\libmruby.a(string.o)

.text._USB_ParseConfigurationDescriptor
                0x9d01f114      0x308
 .text._USB_ParseConfigurationDescriptor
                0x9d01f114      0x308 build/default/production/_ext/1798056102/usb_host.o
                0x9d01f115                _USB_ParseConfigurationDescriptor

.text.mrb_str_dump
                0x9d01f41c      0x2f8
 .text.mrb_str_dump
                0x9d01f41c      0x2f8 ..\mruby-1.0.0\build\PICrouter\lib\libmruby.a(string.o)
                0x9d01f41d                mrb_str_dump

.text.mrb_init_hash
                0x9d01f714      0x2f0
 .text.mrb_init_hash
                0x9d01f714      0x2f0 ..\mruby-1.0.0\build\PICrouter\lib\libmruby.a(hash.o)
                0x9d01f715                mrb_init_hash

.text.USBStdFeatureReqHandler
                0x9d01fa04      0x2e8
 .text.USBStdFeatureReqHandler
                0x9d01fa04      0x2e8 build/default/production/_ext/1798056102/usb_device.o

.text.DHCPReplyToRequest
                0x9d01fcec      0x2d8
 .text.DHCPReplyToRequest
                0x9d01fcec      0x2d8 build/default/production/_ext/1340694758/DHCPs.o

.text.mDNSProcessInternal
                0x9d01ffc4      0x2d8
 .text.mDNSProcessInternal
                0x9d01ffc4      0x2d8 build/default/production/_ext/1340694758/ZeroconfMulticastDNS.o
                0x9d01ffc5                mDNSProcessInternal

.text.inputPort
                0x9d02029c      0x2cc
 .text.inputPort
                0x9d02029c      0x2cc build/default/production/_ext/454704213/iosetting.o
                0x9d02029d                inputPort

.text.setPortIOType
                0x9d020568      0x2c0
 .text.setPortIOType
                0x9d020568      0x2c0 build/default/production/_ext/454704213/iosetting.o
                0x9d020569                setPortIOType

.text.outputPort
                0x9d020828      0x2c0
 .text.outputPort
                0x9d020828      0x2c0 build/default/production/_ext/454704213/iosetting.o
                0x9d020829                outputPort

.text.USBHostCDCInitialize
                0x9d020ae8      0x2a8
 .text.USBHostCDCInitialize
                0x9d020ae8      0x2a8 build/default/production/_ext/1798056102/usb_host_cdc.o
                0x9d020ae9                USBHostCDCInitialize

.text.sendOSCTask
                0x9d020d90      0x298
 .text.sendOSCTask
                0x9d020d90      0x298 build/default/production/picrouter.o
                0x9d020d90                sendOSCTask

.text.getPortIOType
                0x9d021028      0x290
 .text.getPortIOType
                0x9d021028      0x290 build/default/production/_ext/454704213/iosetting.o
                0x9d021029                getPortIOType

.text._DHCPReceive
                0x9d0212b8      0x288
 .text._DHCPReceive
                0x9d0212b8      0x288 build/default/production/_ext/1340694758/DHCP.o

.text.mrb_funcall_with_block
                0x9d021540      0x288
 .text.mrb_funcall_with_block
                0x9d021540      0x288 ..\mruby-1.0.0\build\PICrouter\lib\libmruby.a(vm.o)
                0x9d021541                mrb_funcall_with_block

.text.__strtod  0x9d0217c8      0x280
 .text.__strtod
                0x9d0217c8      0x280 c:/program files (x86)/microchip/xc32/v1.22/bin/../lib/gcc/pic32mx/4.5.2/../../../../pic32mx/lib/mips16\libe.a(_strtod.o)
                0x9d0217c9                __strtod

.text.mDNSResponder
                0x9d021a48      0x278
 .text.mDNSResponder
                0x9d021a48      0x278 build/default/production/_ext/1340694758/ZeroconfMulticastDNS.o

.text._DHCPSend
                0x9d021cc0      0x274
 .text._DHCPSend
                0x9d021cc0      0x274 build/default/production/_ext/1340694758/DHCP.o

.rodata         0x9d021f34      0x264
 .rodata        0x9d021f34      0x264 ..\mruby-1.0.0\build\PICrouter\lib\libmruby.a(object.o)

.text.USBDeviceTasks
                0x9d022198      0x260
 .text.USBDeviceTasks
                0x9d022198      0x260 build/default/production/_ext/1798056102/usb_device.o
                0x9d022199                USBDeviceTasks

.text.main      0x9d0223f8      0x254
 .text.main     0x9d0223f8      0x254 build/default/production/picrouter.o
                0x9d0223f9                main

.rodata         0x9d02264c      0x254
 .rodata        0x9d02264c      0x254 ..\mruby-1.0.0\build\PICrouter\lib\libmruby.a(array.o)

.text.exc_inspect
                0x9d0228a0      0x250
 .text.exc_inspect
                0x9d0228a0      0x250 ..\mruby-1.0.0\build\PICrouter\lib\libmruby.a(error.o)

.text.mrb_flo_to_str
                0x9d022af0      0x24c
 .text.mrb_flo_to_str
                0x9d022af0      0x24c ..\mruby-1.0.0\build\PICrouter\lib\libmruby.a(numeric.o)
                0x9d022af1                mrb_flo_to_str

.text.mrb_convert_midi_to_osc
                0x9d022d3c      0x248
 .text.mrb_convert_midi_to_osc
                0x9d022d3c      0x248 build/default/production/picrouter.o
                0x9d022d3d                mrb_convert_midi_to_osc

.text.read_irep_record_1
                0x9d022f84      0x238
 .text.read_irep_record_1
                0x9d022f84      0x238 ..\mruby-1.0.0\build\PICrouter\lib\libmruby.a(load.o)

.text.make_exception
                0x9d0231bc      0x21c
 .text.make_exception
                0x9d0231bc      0x21c ..\mruby-1.0.0\build\PICrouter\lib\libmruby.a(error.o)
                0x9d0231bd                make_exception

.text.join_ary  0x9d0233d8      0x21c
 .text.join_ary
                0x9d0233d8      0x21c ..\mruby-1.0.0\build\PICrouter\lib\libmruby.a(array.o)

.text.mrb_str_inspect
                0x9d0235f4      0x200
 .text.mrb_str_inspect
                0x9d0235f4      0x200 ..\mruby-1.0.0\build\PICrouter\lib\libmruby.a(string.o)
                0x9d0235f5                mrb_str_inspect

.text           0x9d0237f4      0x200
 .text          0x9d0237f4      0x200 c:/program files (x86)/microchip/xc32/v1.22/bin/../lib/gcc/pic32mx/4.5.2/../../../../pic32mx/lib/mips16\libm.a(fpexp32.o)
                0x9d0237f4                fpexexp
                0x9d02390c                fpexp
                0x9d02390c                __mchp_expf

.text.DHCPServerTask
                0x9d0239f4      0x1f8
 .text.DHCPServerTask
                0x9d0239f4      0x1f8 build/default/production/_ext/1340694758/DHCPs.o
                0x9d0239f5                DHCPServerTask

.text.mrb_output_backtrace
                0x9d023bec      0x1f8
 .text.mrb_output_backtrace
                0x9d023bec      0x1f8 ..\mruby-1.0.0\build\PICrouter\lib\libmruby.a(backtrace.o)

.text.EthPhyInit
                0x9d023de4      0x1ec
 .text.EthPhyInit
                0x9d023de4      0x1ec build/default/production/_ext/1340694758/ETHPIC32ExtPhy.o
                0x9d023de5                EthPhyInit

.text.is_special_global_name
                0x9d023fd0      0x1ec
 .text.is_special_global_name
                0x9d023fd0      0x1ec ..\mruby-1.0.0\build\PICrouter\lib\libmruby.a(symbol.o)

.rodata         0x9d0241bc      0x1ec
 .rodata        0x9d0241bc      0x1ec ..\mruby-1.0.0\build\PICrouter\lib\libmruby.a(numeric.o)

.text.mDNSSendRR
                0x9d0243a8      0x1d8
 .text.mDNSSendRR
                0x9d0243a8      0x1d8 build/default/production/_ext/1340694758/ZeroconfMulticastDNS.o

.text.comparePortNameAtIndex
                0x9d024580      0x1d4
 .text.comparePortNameAtIndex
                0x9d024580      0x1d4 build/default/production/_ext/454704213/iosetting.o
                0x9d024581                comparePortNameAtIndex

.text.mrb_mod_to_s
                0x9d024754      0x1cc
 .text.mrb_mod_to_s
                0x9d024754      0x1cc ..\mruby-1.0.0\build\PICrouter\lib\libmruby.a(class.o)

.text.inspect_ary
                0x9d024920      0x1cc
 .text.inspect_ary
                0x9d024920      0x1cc ..\mruby-1.0.0\build\PICrouter\lib\libmruby.a(array.o)

.text.mrb_str_index_m
                0x9d024aec      0x1c0
 .text.mrb_str_index_m
                0x9d024aec      0x1c0 ..\mruby-1.0.0\build\PICrouter\lib\libmruby.a(string.o)

.text.USBDeviceInit
                0x9d024cac      0x1b4
 .text.USBDeviceInit
                0x9d024cac      0x1b4 build/default/production/_ext/1798056102/usb_device.o
                0x9d024cad                USBDeviceInit

.text.gc_mark_children
                0x9d024e60      0x1b0
 .text.gc_mark_children
                0x9d024e60      0x1b0 ..\mruby-1.0.0\build\PICrouter\lib\libmruby.a(gc.o)

.text.setAnPortDioType
                0x9d025010      0x1ac
 .text.setAnPortDioType
                0x9d025010      0x1ac build/default/production/_ext/454704213/iosetting.o
                0x9d025011                setAnPortDioType

.text.mrb_str_rindex_m
                0x9d0251bc      0x1ac
 .text.mrb_str_rindex_m
                0x9d0251bc      0x1ac ..\mruby-1.0.0\build\PICrouter\lib\libmruby.a(string.o)

.text.mrb_init_range
                0x9d025368      0x1ac
 .text.mrb_init_range
                0x9d025368      0x1ac ..\mruby-1.0.0\build\PICrouter\lib\libmruby.a(range.o)
                0x9d025369                mrb_init_range

.text.DHCPReplyToDiscovery
                0x9d025514      0x1a8
 .text.DHCPReplyToDiscovery
                0x9d025514      0x1a8 build/default/production/_ext/1340694758/DHCPs.o

.text.outputAnPort
                0x9d0256bc      0x1a4
 .text.outputAnPort
                0x9d0256bc      0x1a4 build/default/production/_ext/454704213/iosetting.o
                0x9d0256bd                outputAnPort

.text.mrb_cstr_to_dbl
                0x9d025860      0x1a0
 .text.mrb_cstr_to_dbl
                0x9d025860      0x1a0 ..\mruby-1.0.0\build\PICrouter\lib\libmruby.a(string.o)
                0x9d025861                mrb_cstr_to_dbl

.text.EthRxBuffersAppend
                0x9d025a00      0x1a0
 .text.EthRxBuffersAppend
                0x9d025a00      0x1a0 c:/program files (x86)/microchip/xc32/v1.22/bin/../lib/gcc/pic32mx/4.5.2/../../../../pic32mx/lib/mips16\libmchp_peripheral_32MX795F512H.a(eth_rx_buffers_append_lib.o)
                0x9d025a01                EthRxBuffersAppend

.text.mrb_init_object
                0x9d025ba0      0x198
 .text.mrb_init_object
                0x9d025ba0      0x198 ..\mruby-1.0.0\build\PICrouter\lib\libmruby.a(object.o)
                0x9d025ba1                mrb_init_object

.rodata         0x9d025d38      0x194
 .rodata        0x9d025d38      0x194 ..\mruby-1.0.0\build\PICrouter\lib\libmruby.a(error.o)

.text.read_debug_record
                0x9d025ecc      0x194
 .text.read_debug_record
                0x9d025ecc      0x194 ..\mruby-1.0.0\build\PICrouter\lib\libmruby.a(load.o)

.text._USB_SetBDT
                0x9d026060      0x190
 .text._USB_SetBDT
                0x9d026060      0x190 build/default/production/_ext/1798056102/usb_host.o
                0x9d026061                _USB_SetBDT

.text.mrb_usb_cdc_rxtx_handler
                0x9d0261f0      0x190
 .text.mrb_usb_cdc_rxtx_handler
                0x9d0261f0      0x190 build/default/production/picrouter.o
                0x9d0261f1                mrb_usb_cdc_rxtx_handler

.rodata         0x9d026380      0x190
 .rodata        0x9d026380      0x190 ..\mruby-1.0.0\build\PICrouter\lib\libmruby.a(hash.o)

.text.hash_equal
                0x9d026510      0x190
 .text.hash_equal
                0x9d026510      0x190 ..\mruby-1.0.0\build\PICrouter\lib\libmruby.a(hash.o)

.text.USBHostMIDIInit
                0x9d0266a0      0x188
 .text.USBHostMIDIInit
                0x9d0266a0      0x188 build/default/production/_ext/1798056102/usb_host_midi.o
                0x9d0266a1                USBHostMIDIInit

.text.inspect_hash
                0x9d026828      0x188
 .text.inspect_hash
                0x9d026828      0x188 ..\mruby-1.0.0\build\PICrouter\lib\libmruby.a(hash.o)

.text.mDNSProbe
                0x9d0269b0      0x184
 .text.mDNSProbe
                0x9d0269b0      0x184 build/default/production/_ext/1340694758/ZeroconfMulticastDNS.o

.text.appendOSCMessageToBundle
                0x9d026b34      0x17c
 .text.appendOSCMessageToBundle
                0x9d026b34      0x17c build/default/production/_ext/454704213/osc.o
                0x9d026b35                appendOSCMessageToBundle

.rodata         0x9d026cb0      0x17c
 .rodata        0x9d026cb0      0x17c ..\mruby-1.0.0\build\PICrouter\lib\libmruby.a(vm.o)

.text.MACInit   0x9d026e2c      0x178
 .text.MACInit  0x9d026e2c      0x178 build/default/production/_ext/1340694758/ETHPIC32IntMac.o
                0x9d026e2d                MACInit

.text.StackTask
                0x9d026fa4      0x170
 .text.StackTask
                0x9d026fa4      0x170 build/default/production/_ext/1340694758/StackTsk.o
                0x9d026fa5                StackTask

.text.mDNSSDFillResRecords
                0x9d027114      0x170
 .text.mDNSSDFillResRecords
                0x9d027114      0x170 build/default/production/_ext/1340694758/ZeroconfMulticastDNS.o
                0x9d027115                mDNSSDFillResRecords

.text.getFloatArgumentAtIndex
                0x9d027284      0x16c
 .text.getFloatArgumentAtIndex
                0x9d027284      0x16c build/default/production/_ext/454704213/osc.o
                0x9d027285                getFloatArgumentAtIndex

.text._USB_FindDeviceLevelClientDriver
                0x9d0273f0      0x16c
 .text._USB_FindDeviceLevelClientDriver
                0x9d0273f0      0x16c build/default/production/_ext/1798056102/usb_host.o
                0x9d0273f1                _USB_FindDeviceLevelClientDriver

.text.USB_ApplicationEventHandler
                0x9d02755c      0x168
 .text.USB_ApplicationEventHandler
                0x9d02755c      0x168 build/default/production/picrouter.o
                0x9d02755d                USB_ApplicationEventHandler

.text.flo_round
                0x9d0276c4      0x168
 .text.flo_round
                0x9d0276c4      0x168 ..\mruby-1.0.0\build\PICrouter\lib\libmruby.a(numeric.o)

.text.getIntArgumentAtIndex
                0x9d02782c      0x164
 .text.getIntArgumentAtIndex
                0x9d02782c      0x164 build/default/production/_ext/454704213/osc.o
                0x9d02782d                getIntArgumentAtIndex

.text._PhyInitIo
                0x9d027990      0x164
 .text._PhyInitIo
                0x9d027990      0x164 build/default/production/_ext/1340694758/ETHPIC32ExtPhy.o

.text.mrb_hash_replace
                0x9d027af4      0x160
 .text.mrb_hash_replace
                0x9d027af4      0x160 ..\mruby-1.0.0\build\PICrouter\lib\libmruby.a(hash.o)

.text.malloc    0x9d027c54      0x160
 .text.malloc   0x9d027c54      0x160 c:/program files (x86)/microchip/xc32/v1.22/bin/../lib/gcc/pic32mx/4.5.2/../../../../pic32mx/lib/mips16\libc.a(malloc.o)
                0x9d027c55                malloc

.text.USBCtrlTrfRxService
                0x9d027db4      0x15c
 .text.USBCtrlTrfRxService
                0x9d027db4      0x15c build/default/production/_ext/1798056102/usb_device.o

.text.sendOSCMessage
                0x9d027f10      0x158
 .text.sendOSCMessage
                0x9d027f10      0x158 build/default/production/_ext/454704213/osc.o
                0x9d027f11                sendOSCMessage

.text.USBCtrlEPServiceComplete
                0x9d028068      0x158
 .text.USBCtrlEPServiceComplete
                0x9d028068      0x158 build/default/production/_ext/1798056102/usb_device.o

.text.incremental_sweep_phase
                0x9d0281c0      0x158
 .text.incremental_sweep_phase
                0x9d0281c0      0x158 ..\mruby-1.0.0\build\PICrouter\lib\libmruby.a(gc.o)

.text.mrb_convert_to_integer
                0x9d028318      0x158
 .text.mrb_convert_to_integer
                0x9d028318      0x158 ..\mruby-1.0.0\build\PICrouter\lib\libmruby.a(object.o)

.text.copyOSCPacketFromUDPPacket
                0x9d028470      0x154
 .text.copyOSCPacketFromUDPPacket
                0x9d028470      0x154 build/default/production/_ext/454704213/osc.o

.text.mrb_str_chomp_bang
                0x9d0285c4      0x154
 .text.mrb_str_chomp_bang
                0x9d0285c4      0x154 ..\mruby-1.0.0\build\PICrouter\lib\libmruby.a(string.o)

.text.USBHostIssueDeviceRequest
                0x9d028718      0x14c
 .text.USBHostIssueDeviceRequest
                0x9d028718      0x14c build/default/production/_ext/1798056102/usb_host.o
                0x9d028719                USBHostIssueDeviceRequest

.text.EthPhyGetNegotiationResult
                0x9d028864      0x148
 .text.EthPhyGetNegotiationResult
                0x9d028864      0x148 build/default/production/_ext/1340694758/ETHPIC32ExtPhy.o
                0x9d028865                EthPhyGetNegotiationResult

.text.GenerateRandomDWORD
                0x9d0289ac      0x144
 .text.GenerateRandomDWORD
                0x9d0289ac      0x144 build/default/production/_ext/1340694758/Helpers.o
                0x9d0289ad                GenerateRandomDWORD

.text.mrb_vm_define_class
                0x9d028af0      0x144
 .text.mrb_vm_define_class
                0x9d028af0      0x144 ..\mruby-1.0.0\build\PICrouter\lib\libmruby.a(class.o)
                0x9d028af1                mrb_vm_define_class

.text.obj_respond_to
                0x9d028c34      0x144
 .text.obj_respond_to
                0x9d028c34      0x144 ..\mruby-1.0.0\build\PICrouter\lib\libmruby.a(kernel.o)
                0x9d028c35                obj_respond_to

.text.kh_put_n2s
                0x9d028d78      0x144
 .text.kh_put_n2s
                0x9d028d78      0x144 ..\mruby-1.0.0\build\PICrouter\lib\libmruby.a(symbol.o)
                0x9d028d79                kh_put_n2s

.text.EthPhyNegotiationComplete
                0x9d028ebc      0x13c
 .text.EthPhyNegotiationComplete
                0x9d028ebc      0x13c build/default/production/_ext/1340694758/ETHPIC32ExtPhy.o
                0x9d028ebd                EthPhyNegotiationComplete

.text.mrb_hash_shift
                0x9d028ff8      0x134
 .text.mrb_hash_shift
                0x9d028ff8      0x134 ..\mruby-1.0.0\build\PICrouter\lib\libmruby.a(hash.o)

.rodata.optable.6483.optable
                0x9d02912c      0x130
 .rodata.optable.6483.optable
                0x9d02912c      0x130 ..\mruby-1.0.0\build\PICrouter\lib\libmruby.a(vm.o)

.text.obj_free  0x9d02925c      0x12c
 .text.obj_free
                0x9d02925c      0x12c ..\mruby-1.0.0\build\PICrouter\lib\libmruby.a(gc.o)

.text.mrb_class_path
                0x9d029388      0x128
 .text.mrb_class_path
                0x9d029388      0x128 ..\mruby-1.0.0\build\PICrouter\lib\libmruby.a(class.o)
                0x9d029389                mrb_class_path

.text.mrb_vformat
                0x9d0294b0      0x128
 .text.mrb_vformat
                0x9d0294b0      0x128 ..\mruby-1.0.0\build\PICrouter\lib\libmruby.a(error.o)
                0x9d0294b1                mrb_vformat

.text.kh_put_ht
                0x9d0295d8      0x128
 .text.kh_put_ht
                0x9d0295d8      0x128 ..\mruby-1.0.0\build\PICrouter\lib\libmruby.a(hash.o)
                0x9d0295d9                kh_put_ht

.text.mrb_init_proc
                0x9d029700      0x128
 .text.mrb_init_proc
                0x9d029700      0x128 ..\mruby-1.0.0\build\PICrouter\lib\libmruby.a(proc.o)
                0x9d029701                mrb_init_proc

.text.mrb_yield_internal
                0x9d029828      0x128
 .text.mrb_yield_internal
                0x9d029828      0x128 ..\mruby-1.0.0\build\PICrouter\lib\libmruby.a(vm.o)
                0x9d029829                mrb_yield_internal

.text.range_eql
                0x9d029950      0x124
 .text.range_eql
                0x9d029950      0x124 ..\mruby-1.0.0\build\PICrouter\lib\libmruby.a(range.o)

.text.setSpiPortDioType
                0x9d029a74      0x120
 .text.setSpiPortDioType
                0x9d029a74      0x120 build/default/production/_ext/454704213/iosetting.o
                0x9d029a75                setSpiPortDioType

.text.mrb_init_exception
                0x9d029b94      0x120
 .text.mrb_init_exception
                0x9d029b94      0x120 ..\mruby-1.0.0\build\PICrouter\lib\libmruby.a(error.o)
                0x9d029b95                mrb_init_exception

.text.mrb_ary_splice
                0x9d029cb4      0x120
 .text.mrb_ary_splice
                0x9d029cb4      0x120 ..\mruby-1.0.0\build\PICrouter\lib\libmruby.a(array.o)
                0x9d029cb5                mrb_ary_splice

.text.ARPProcess
                0x9d029dd4      0x11c
 .text.ARPProcess
                0x9d029dd4      0x11c build/default/production/_ext/1340694758/ARP.o
                0x9d029dd5                ARPProcess

.text.mrb_ary_aset
                0x9d029ef0      0x11c
 .text.mrb_ary_aset
                0x9d029ef0      0x11c ..\mruby-1.0.0\build\PICrouter\lib\libmruby.a(array.o)
                0x9d029ef1                mrb_ary_aset

.text.mrb_range_eq
                0x9d02a00c      0x11c
 .text.mrb_range_eq
                0x9d02a00c      0x11c ..\mruby-1.0.0\build\PICrouter\lib\libmruby.a(range.o)
                0x9d02a00d                mrb_range_eq

.text.EthRxGetPacket
                0x9d02a128      0x118
 .text.EthRxGetPacket
                0x9d02a128      0x118 c:/program files (x86)/microchip/xc32/v1.22/bin/../lib/gcc/pic32mx/4.5.2/../../../../pic32mx/lib/mips16\libmchp_peripheral_32MX795F512H.a(eth_rx_get_packet_lib.o)
                0x9d02a129                EthRxGetPacket

.text.mrb_check_type
                0x9d02a240      0x114
 .text.mrb_check_type
                0x9d02a240      0x114 ..\mruby-1.0.0\build\PICrouter\lib\libmruby.a(object.o)
                0x9d02a241                mrb_check_type

.text.mrb_str_times
                0x9d02a354      0x114
 .text.mrb_str_times
                0x9d02a354      0x114 ..\mruby-1.0.0\build\PICrouter\lib\libmruby.a(string.o)

.text._NVMOperation
                0x9d02a468      0x114
 .text._NVMOperation
                0x9d02a468      0x114 c:/program files (x86)/microchip/xc32/v1.22/bin/../lib/gcc/pic32mx/4.5.2/../../../../pic32mx/lib/mips16\libmchp_peripheral_32MX795F512H.a(nvm_operation_lib.o)
                0x9d02a468                _NVMOperation

.text.USBCheckStdRequest
                0x9d02a57c      0x10c
 .text.USBCheckStdRequest
                0x9d02a57c      0x10c build/default/production/_ext/1798056102/usb_device.o

.text._EthRxAckBuffer
                0x9d02a688      0x10c
 .text._EthRxAckBuffer
                0x9d02a688      0x10c c:/program files (x86)/microchip/xc32/v1.22/bin/../lib/gcc/pic32mx/4.5.2/../../../../pic32mx/lib/mips16\libmchp_peripheral_32MX795F512H.a(eth_ack_packet_lib.o)

.text.inputAnPort
                0x9d02a794      0x108
 .text.inputAnPort
                0x9d02a794      0x108 build/default/production/_ext/454704213/iosetting.o
                0x9d02a795                inputAnPort

.text.USBCtrlTrfInHandler
                0x9d02a89c      0x108
 .text.USBCtrlTrfInHandler
                0x9d02a89c      0x108 build/default/production/_ext/1798056102/usb_device.o

.text.exc_debug_info
                0x9d02a9a4      0x108
 .text.exc_debug_info
                0x9d02a9a4      0x108 ..\mruby-1.0.0\build\PICrouter\lib\libmruby.a(error.o)

.text.gc_gray_mark
                0x9d02aaac      0x108
 .text.gc_gray_mark
                0x9d02aaac      0x108 ..\mruby-1.0.0\build\PICrouter\lib\libmruby.a(gc.o)

.text           0x9d02abb4      0x108
 .text          0x9d02abb4      0x108 c:/program files (x86)/microchip/xc32/v1.22/bin/../lib/gcc/pic32mx/4.5.2/../../../../pic32mx/lib/mips16\libpic32.a(setjmp.o)
                0x9d02abb4                setjmp
                0x9d02abec                _setjmp
                0x9d02ac24                longjmp
                0x9d02ac50                _longjmp
                0x9d02ac84                sigsetjmp
                0x9d02ac94                siglongjmp
                0x9d02aca8                sigprocmask

.text.UDPFlush  0x9d02acbc      0x104
 .text.UDPFlush
                0x9d02acbc      0x104 build/default/production/_ext/1340694758/UDP.o
                0x9d02acbd                UDPFlush

.text.mrb_init_osc_config
                0x9d02adc0      0x104
 .text.mrb_init_osc_config
                0x9d02adc0      0x104 build/default/production/picrouter.o
                0x9d02adc1                mrb_init_osc_config

.text.mrb_any_to_s
                0x9d02aec4      0x104
 .text.mrb_any_to_s
                0x9d02aec4      0x104 ..\mruby-1.0.0\build\PICrouter\lib\libmruby.a(object.o)
                0x9d02aec5                mrb_any_to_s

.text.fix_divmod
                0x9d02afc8      0x104
 .text.fix_divmod
                0x9d02afc8      0x104 ..\mruby-1.0.0\build\PICrouter\lib\libmruby.a(numeric.o)

.rodata         0x9d02b0cc      0x208
 .rodata        0x9d02b0cc      0x104 ..\mruby-1.0.0\build\PICrouter\lib\libmruby.a(range.o)
 .rodata        0x9d02b1d0      0x104 c:/program files (x86)/microchip/xc32/v1.22/bin/../lib/gcc/pic32mx/4.5.2/../../../../pic32mx/lib/mips16\libc.a(ctype.o)
                0x9d02b1d0                _ctype

.text.initAnalogVariables
                0x9d02b2d4      0x100
 .text.initAnalogVariables
                0x9d02b2d4      0x100 build/default/production/_ext/454704213/analog.o
                0x9d02b2d5                initAnalogVariables

.rodata.isspacetable.isspacetable
                0x9d02b3d4      0x100
 .rodata.isspacetable.isspacetable
                0x9d02b3d4      0x100 ..\mruby-1.0.0\build\PICrouter\lib\libmruby.a(string.o)

.text.mrb_ary_equal
                0x9d02b4d4      0x100
 .text.mrb_ary_equal
                0x9d02b4d4      0x100 ..\mruby-1.0.0\build\PICrouter\lib\libmruby.a(array.o)

.rodata         0x9d02b5d4      0x100
 .rodata        0x9d02b5d4      0x100 c:/program files (x86)/microchip/xc32/v1.22/bin/../lib/gcc/pic32mx/4.5.2/mips16\libgcc.a(_clz.o)
                0x9d02b5d4                __clz_tab

.text.mrb_obj_extend
                0x9d02b6d4       0xfc
 .text.mrb_obj_extend
                0x9d02b6d4       0xfc ..\mruby-1.0.0\build\PICrouter\lib\libmruby.a(kernel.o)

.text.fwrite    0x9d02b7d0       0xfc
 .text.fwrite   0x9d02b7d0       0xfc c:/program files (x86)/microchip/xc32/v1.22/bin/../lib/gcc/pic32mx/4.5.2/../../../../pic32mx/lib/mips16\libc.a(fwrite.o)
                0x9d02b7d1                fwrite

.text.strtoul   0x9d02b8cc       0xfc
 .text.strtoul  0x9d02b8cc       0xfc c:/program files (x86)/microchip/xc32/v1.22/bin/../lib/gcc/pic32mx/4.5.2/../../../../pic32mx/lib/mips16\libc.a(strtol.o)
                0x9d02b8cd                strtoul

.text._PhyDetectReset
                0x9d02b9c8       0xf8
 .text._PhyDetectReset
                0x9d02b9c8       0xf8 build/default/production/_ext/1340694758/ETHPIC32ExtPhy.o

.text.MACGetHeader
                0x9d02bac0       0xf8
 .text.MACGetHeader
                0x9d02bac0       0xf8 build/default/production/_ext/1340694758/ETHPIC32IntMac.o
                0x9d02bac1                MACGetHeader

.text.USBCtrlEPService
                0x9d02bbb8       0xf8
 .text.USBCtrlEPService
                0x9d02bbb8       0xf8 build/default/production/_ext/1798056102/usb_device.o

.text.USBCheckHIDRequest
                0x9d02bcb0       0xf8
 .text.USBCheckHIDRequest
                0x9d02bcb0       0xf8 build/default/production/_ext/1798056102/usb_function_hid.o
                0x9d02bcb1                USBCheckHIDRequest

.text._USB_FindServiceEndpoint
                0x9d02bda8       0xf8
 .text._USB_FindServiceEndpoint
                0x9d02bda8       0xf8 build/default/production/_ext/1798056102/usb_host.o
                0x9d02bda9                _USB_FindServiceEndpoint

.text.USBHostCDCTransfer
                0x9d02bea0       0xf8
 .text.USBHostCDCTransfer
                0x9d02bea0       0xf8 build/default/production/_ext/1798056102/usb_host_cdc.o
                0x9d02bea1                USBHostCDCTransfer

.text.flodivmod
                0x9d02bf98       0xf8
 .text.flodivmod
                0x9d02bf98       0xf8 ..\mruby-1.0.0\build\PICrouter\lib\libmruby.a(numeric.o)

.text.outputSpiPort
                0x9d02c090       0xf4
 .text.outputSpiPort
                0x9d02c090       0xf4 build/default/production/_ext/454704213/iosetting.o
                0x9d02c091                outputSpiPort

.text.USBCtrlEPAllowStatusStage
                0x9d02c184       0xf4
 .text.USBCtrlEPAllowStatusStage
                0x9d02c184       0xf4 build/default/production/_ext/1798056102/usb_device.o
                0x9d02c185                USBCtrlEPAllowStatusStage

.text.mrb_mod_include
                0x9d02c278       0xf4
 .text.mrb_mod_include
                0x9d02c278       0xf4 ..\mruby-1.0.0\build\PICrouter\lib\libmruby.a(class.o)

.text.mrb_str_cmp_m
                0x9d02c36c       0xf4
 .text.mrb_str_cmp_m
                0x9d02c36c       0xf4 ..\mruby-1.0.0\build\PICrouter\lib\libmruby.a(string.o)

.text.mrb_init_gc
                0x9d02c460       0xf0
 .text.mrb_init_gc
                0x9d02c460       0xf0 ..\mruby-1.0.0\build\PICrouter\lib\libmruby.a(gc.o)
                0x9d02c461                mrb_init_gc

.text.mrb_ary_aget
                0x9d02c550       0xf0
 .text.mrb_ary_aget
                0x9d02c550       0xf0 ..\mruby-1.0.0\build\PICrouter\lib\libmruby.a(array.o)
                0x9d02c551                mrb_ary_aget

.text.mrb_str_aref
                0x9d02c640       0xec
 .text.mrb_str_aref
                0x9d02c640       0xec ..\mruby-1.0.0\build\PICrouter\lib\libmruby.a(string.o)

.text.inspect_i
                0x9d02c72c       0xec
 .text.inspect_i
                0x9d02c72c       0xec ..\mruby-1.0.0\build\PICrouter\lib\libmruby.a(variable.o)

.text.mrb_ary_cmp
                0x9d02c818       0xec
 .text.mrb_ary_cmp
                0x9d02c818       0xec ..\mruby-1.0.0\build\PICrouter\lib\libmruby.a(array.o)
                0x9d02c819                mrb_ary_cmp

.text.mrb_ary_last
                0x9d02c904       0xe8
 .text.mrb_ary_last
                0x9d02c904       0xe8 ..\mruby-1.0.0\build\PICrouter\lib\libmruby.a(array.o)
                0x9d02c905                mrb_ary_last

.text.mrb_init_core
                0x9d02c9ec       0xe8
 .text.mrb_init_core
                0x9d02c9ec       0xe8 ..\mruby-1.0.0\build\PICrouter\lib\libmruby.a(init.o)
                0x9d02c9ed                mrb_init_core

.text.scale     0x9d02cad4       0xe8
 .text.scale    0x9d02cad4       0xe8 c:/program files (x86)/microchip/xc32/v1.22/bin/../lib/gcc/pic32mx/4.5.2/../../../../pic32mx/lib/mips16\libc.a(doprnt.o)

.text.ARPResolve
                0x9d02cbbc       0xe4
 .text.ARPResolve
                0x9d02cbbc       0xe4 build/default/production/_ext/1340694758/ARP.o
                0x9d02cbbd                ARPResolve

.text.USBStdGetStatusHandler
                0x9d02cca0       0xe4
 .text.USBStdGetStatusHandler
                0x9d02cca0       0xe4 build/default/production/_ext/1798056102/usb_device.o

.text.kh_put_mt
                0x9d02cd84       0xe4
 .text.kh_put_mt
                0x9d02cd84       0xe4 ..\mruby-1.0.0\build\PICrouter\lib\libmruby.a(class.o)
                0x9d02cd85                kh_put_mt

.text.kh_put_st
                0x9d02ce68       0xe4
 .text.kh_put_st
                0x9d02ce68       0xe4 ..\mruby-1.0.0\build\PICrouter\lib\libmruby.a(kernel.o)
                0x9d02ce69                kh_put_st

.text.str_replace
                0x9d02cf4c       0xe4
 .text.str_replace
                0x9d02cf4c       0xe4 ..\mruby-1.0.0\build\PICrouter\lib\libmruby.a(string.o)

.text.iv_put    0x9d02d030       0xe4
 .text.iv_put   0x9d02d030       0xe4 ..\mruby-1.0.0\build\PICrouter\lib\libmruby.a(variable.o)

.text._EthAckPacket
                0x9d02d114       0xe4
 .text._EthAckPacket
                0x9d02d114       0xe4 c:/program files (x86)/microchip/xc32/v1.22/bin/../lib/gcc/pic32mx/4.5.2/../../../../pic32mx/lib/mips16\libmchp_peripheral_32MX795F512H.a(eth_ack_packet_lib.o)
                0x9d02d115                _EthAckPacket

.text.extractArgumentsFromOSCPacket
                0x9d02d1f8       0xe0
 .text.extractArgumentsFromOSCPacket
                0x9d02d1f8       0xe0 build/default/production/_ext/454704213/osc.o

.text.UDPProcess
                0x9d02d2d8       0xe0
 .text.UDPProcess
                0x9d02d2d8       0xe0 build/default/production/_ext/1340694758/UDP.o
                0x9d02d2d9                UDPProcess

.text.mrb_hash_init_core
                0x9d02d3b8       0xe0
 .text.mrb_hash_init_core
                0x9d02d3b8       0xe0 ..\mruby-1.0.0\build\PICrouter\lib\libmruby.a(hash.o)

.text.mrb_f_raise
                0x9d02d498       0xe0
 .text.mrb_f_raise
                0x9d02d498       0xe0 ..\mruby-1.0.0\build\PICrouter\lib\libmruby.a(kernel.o)
                0x9d02d499                mrb_f_raise

.text.mrb_str_modify
                0x9d02d578       0xe0
 .text.mrb_str_modify
                0x9d02d578       0xe0 ..\mruby-1.0.0\build\PICrouter\lib\libmruby.a(string.o)
                0x9d02d579                mrb_str_modify

.text.str_buf_cat
                0x9d02d658       0xe0
 .text.str_buf_cat
                0x9d02d658       0xe0 ..\mruby-1.0.0\build\PICrouter\lib\libmruby.a(string.o)

.text.mrb_obj_iv_inspect
                0x9d02d738       0xe0
 .text.mrb_obj_iv_inspect
                0x9d02d738       0xe0 ..\mruby-1.0.0\build\PICrouter\lib\libmruby.a(variable.o)
                0x9d02d739                mrb_obj_iv_inspect

.text.USBCtrlEPAllowDataStage
                0x9d02d818       0xdc
 .text.USBCtrlEPAllowDataStage
                0x9d02d818       0xdc build/default/production/_ext/1798056102/usb_device.o
                0x9d02d819                USBCtrlEPAllowDataStage

.text.mrb_irep_free
                0x9d02d8f4       0xdc
 .text.mrb_irep_free
                0x9d02d8f4       0xdc ..\mruby-1.0.0\build\PICrouter\lib\libmruby.a(state.o)
                0x9d02d8f5                mrb_irep_free

.text.mDNSServiceRegister
                0x9d02d9d0       0xd8
 .text.mDNSServiceRegister
                0x9d02d9d0       0xd8 build/default/production/_ext/1340694758/ZeroconfMulticastDNS.o
                0x9d02d9d1                mDNSServiceRegister

.text.USBCtrlTrfSetupHandler
                0x9d02daa8       0xd8
 .text.USBCtrlTrfSetupHandler
                0x9d02daa8       0xd8 build/default/production/_ext/1798056102/usb_device.o

.text.range_inspect
                0x9d02db80       0xd8
 .text.range_inspect
                0x9d02db80       0xd8 ..\mruby-1.0.0\build\PICrouter\lib\libmruby.a(range.o)

.text.range_to_s
                0x9d02dc58       0xd8
 .text.range_to_s
                0x9d02dc58       0xd8 ..\mruby-1.0.0\build\PICrouter\lib\libmruby.a(range.o)

.text.ieee754dp_format
                0x9d02dd30       0xd8
 .text.ieee754dp_format
                0x9d02dd30       0xd8 c:/program files (x86)/microchip/xc32/v1.22/bin/../lib/gcc/pic32mx/4.5.2/../../../../pic32mx/lib/mips16\libe.a(_ldexp.o)

.text.MACIsTxReady
                0x9d02de08       0xd4
 .text.MACIsTxReady
                0x9d02de08       0xd4 build/default/production/_ext/1340694758/ETHPIC32IntMac.o
                0x9d02de09                MACIsTxReady

.text.mDNSDeCompress
                0x9d02dedc       0xd4
 .text.mDNSDeCompress
                0x9d02dedc       0xd4 build/default/production/_ext/1340694758/ZeroconfMulticastDNS.o

.text.exc_equal
                0x9d02dfb0       0xd4
 .text.exc_equal
                0x9d02dfb0       0xd4 ..\mruby-1.0.0\build\PICrouter\lib\libmruby.a(error.o)

.text.mrb_read_irep
                0x9d02e084       0xd4
 .text.mrb_read_irep
                0x9d02e084       0xd4 ..\mruby-1.0.0\build\PICrouter\lib\libmruby.a(load.o)
                0x9d02e085                mrb_read_irep

.text._sbrk_init
                0x9d02e158       0xd4
 .text._sbrk_init
                0x9d02e158       0xd4 c:/program files (x86)/microchip/xc32/v1.22/bin/../lib/gcc/pic32mx/4.5.2/../../../../pic32mx/lib/mips16\libpic32.a(sbrk.o)
                0x9d02e159                _sbrk_init

.text._USB_FindClassDriver
                0x9d02e22c       0xd0
 .text._USB_FindClassDriver
                0x9d02e22c       0xd0 build/default/production/_ext/1798056102/usb_host.o
                0x9d02e22d                _USB_FindClassDriver

.text.mrb_obj_singleton_methods
                0x9d02e2fc       0xd0
 .text.mrb_obj_singleton_methods
                0x9d02e2fc       0xd0 ..\mruby-1.0.0\build\PICrouter\lib\libmruby.a(kernel.o)
                0x9d02e2fd                mrb_obj_singleton_methods

.text.localjump_error
                0x9d02e3cc       0xd0
 .text.localjump_error
                0x9d02e3cc       0xd0 ..\mruby-1.0.0\build\PICrouter\lib\libmruby.a(vm.o)

.text._EthAppendBusyList
                0x9d02e49c       0xd0
 .text._EthAppendBusyList
                0x9d02e49c       0xd0 c:/program files (x86)/microchip/xc32/v1.22/bin/../lib/gcc/pic32mx/4.5.2/../../../../pic32mx/lib/mips16\libmchp_peripheral_32MX795F512H.a(_eth_append_busy_list_lib.o)
                0x9d02e49d                _EthAppendBusyList

.text.general_exception
                0x9d02e56c       0xd0
 .text.general_exception
                0x9d02e56c       0xd0 c:/program files (x86)/microchip/xc32/v1.22/bin/../lib/gcc/pic32mx/4.5.2/../../../../pic32mx/lib/mips16\libpic32.a(general-exception.o)
                0x9d02e56c                _general_exception_context

.rodata         0x9d02e640      0x1a0
 .rodata        0x9d02e640       0xd0 c:/program files (x86)/microchip/xc32/v1.22/bin/../lib/gcc/pic32mx/4.5.2/../../../../pic32mx/lib/mips16\libc.a(doprnt.o)
 .rodata        0x9d02e710       0xd0 c:/program files (x86)/microchip/xc32/v1.22/bin/../lib/gcc/pic32mx/4.5.2/../../../../pic32mx/lib/mips16\libc.a(doprnt_cdnopsuxX.eo)

.text.idleI2C   0x9d02e7e0       0xcc
 .text.idleI2C  0x9d02e7e0       0xcc build/default/production/_ext/454704213/iosetting.o
                0x9d02e7e1                idleI2C

.text.getDataFromI2C
                0x9d02e8ac       0xcc
 .text.getDataFromI2C
                0x9d02e8ac       0xcc build/default/production/_ext/454704213/iosetting.o
                0x9d02e8ad                getDataFromI2C

.text.USBStdSetCfgHandler
                0x9d02e978       0xcc
 .text.USBStdSetCfgHandler
                0x9d02e978       0xcc build/default/production/_ext/1798056102/usb_device.o

.text.mrb_init_io_ports
                0x9d02ea44       0xcc
 .text.mrb_init_io_ports
                0x9d02ea44       0xcc build/default/production/picrouter.o
                0x9d02ea45                mrb_init_io_ports

.text.mrb_mod_remove_cvar
                0x9d02eb10       0xcc
 .text.mrb_mod_remove_cvar
                0x9d02eb10       0xcc ..\mruby-1.0.0\build\PICrouter\lib\libmruby.a(class.o)
                0x9d02eb11                mrb_mod_remove_cvar

.text.mrb_flo_to_fixnum
                0x9d02ebdc       0xcc
 .text.mrb_flo_to_fixnum
                0x9d02ebdc       0xcc ..\mruby-1.0.0\build\PICrouter\lib\libmruby.a(numeric.o)
                0x9d02ebdd                mrb_flo_to_fixnum

.text           0x9d02eca8       0xcc
 .text          0x9d02eca8       0xcc c:/program files (x86)/microchip/xc32/v1.22/bin/../lib/gcc/pic32mx/4.5.2/mips16\libgcc.a(_floatdisf.o)
                0x9d02eca9                __floatdisf

.text.USBTransferOnePacket
                0x9d02ed74       0xc8
 .text.USBTransferOnePacket
                0x9d02ed74       0xc8 build/default/production/_ext/1798056102/usb_device.o
                0x9d02ed75                USBTransferOnePacket

.text.sym_intern
                0x9d02ee3c       0xc8
 .text.sym_intern
                0x9d02ee3c       0xc8 ..\mruby-1.0.0\build\PICrouter\lib\libmruby.a(symbol.o)

.text.range_initialize_copy
                0x9d02ef04       0xc8
 .text.range_initialize_copy
                0x9d02ef04       0xc8 ..\mruby-1.0.0\build\PICrouter\lib\libmruby.a(range.o)
                0x9d02ef05                range_initialize_copy

.text.SpiChnOpen
                0x9d02efcc       0xc8
 .text.SpiChnOpen
                0x9d02efcc       0xc8 c:/program files (x86)/microchip/xc32/v1.22/bin/../lib/gcc/pic32mx/4.5.2/../../../../pic32mx/lib/mips16\libmchp_peripheral_32MX795F512H.a(spi_chn_open_lib.o)
                0x9d02efcd                SpiChnOpen

.text.analogInHandle
                0x9d02f094       0xc4
 .text.analogInHandle
                0x9d02f094       0xc4 build/default/production/_ext/454704213/analog.o
                0x9d02f095                analogInHandle

.text.preAssign_ToDHCPClient_FromPool
                0x9d02f158       0xc4
 .text.preAssign_ToDHCPClient_FromPool
                0x9d02f158       0xc4 build/default/production/_ext/1340694758/DHCPs.o

.text.powf      0x9d02f21c       0xc4
 .text.powf     0x9d02f21c       0xc4 c:/program files (x86)/microchip/xc32/v1.22/bin/../lib/gcc/pic32mx/4.5.2/../../../../pic32mx/lib/mips16\libm.a(w_powf.o)
                0x9d02f21d                powf

.text.fputc     0x9d02f2e0       0xc4
 .text.fputc    0x9d02f2e0       0xc4 c:/program files (x86)/microchip/xc32/v1.22/bin/../lib/gcc/pic32mx/4.5.2/../../../../pic32mx/lib/mips16\libc.a(_fputc_simple.o)
                0x9d02f2e1                fputc

.text.mrb_class_new_class
                0x9d02f3a4       0xc0
 .text.mrb_class_new_class
                0x9d02f3a4       0xc0 ..\mruby-1.0.0\build\PICrouter\lib\libmruby.a(class.o)

.text.mrb_singleton_class_clone
                0x9d02f464       0xc0
 .text.mrb_singleton_class_clone
                0x9d02f464       0xc0 ..\mruby-1.0.0\build\PICrouter\lib\libmruby.a(kernel.o)
                0x9d02f465                mrb_singleton_class_clone

.rodata         0x9d02f524       0xc0
 .rodata        0x9d02f524       0xc0 ..\mruby-1.0.0\build\PICrouter\lib\libmruby.a(variable.o)

.text.mrb_funcall
                0x9d02f5e4       0xc0
 .text.mrb_funcall
                0x9d02f5e4       0xc0 ..\mruby-1.0.0\build\PICrouter\lib\libmruby.a(vm.o)
                0x9d02f5e5                mrb_funcall

.text.fseek     0x9d02f6a4       0xc0
 .text.fseek    0x9d02f6a4       0xc0 c:/program files (x86)/microchip/xc32/v1.22/bin/../lib/gcc/pic32mx/4.5.2/../../../../pic32mx/lib/mips16\libc.a(fseek.o)
                0x9d02f6a5                fseek

.text.SetRXHashTableEntry
                0x9d02f764       0xbc
 .text.SetRXHashTableEntry
                0x9d02f764       0xbc build/default/production/_ext/1340694758/ETHPIC32IntMac.o
                0x9d02f765                SetRXHashTableEntry

.text.USBHostMIDIEventHandler
                0x9d02f820       0xbc
 .text.USBHostMIDIEventHandler
                0x9d02f820       0xbc build/default/production/_ext/1798056102/usb_host_midi.o
                0x9d02f821                USBHostMIDIEventHandler

.text.mrb_mod_ancestors
                0x9d02f8dc       0xbc
 .text.mrb_mod_ancestors
                0x9d02f8dc       0xbc ..\mruby-1.0.0\build\PICrouter\lib\libmruby.a(class.o)

.text.mrb_bob_missing
                0x9d02f998       0xbc
 .text.mrb_bob_missing
                0x9d02f998       0xbc ..\mruby-1.0.0\build\PICrouter\lib\libmruby.a(class.o)

.text.kh_resize_ht
                0x9d02fa54       0xb8
 .text.kh_resize_ht
                0x9d02fa54       0xb8 ..\mruby-1.0.0\build\PICrouter\lib\libmruby.a(hash.o)
                0x9d02fa55                kh_resize_ht

.text.kh_resize_n2s
                0x9d02fb0c       0xb8
 .text.kh_resize_n2s
                0x9d02fb0c       0xb8 ..\mruby-1.0.0\build\PICrouter\lib\libmruby.a(symbol.o)
                0x9d02fb0d                kh_resize_n2s

.text.mrb_ary_times
                0x9d02fbc4       0xb8
 .text.mrb_ary_times
                0x9d02fbc4       0xb8 ..\mruby-1.0.0\build\PICrouter\lib\libmruby.a(array.o)
                0x9d02fbc5                mrb_ary_times

.text           0x9d02fc7c       0xb8
 .text          0x9d02fc7c       0xb8 c:/program files (x86)/microchip/xc32/v1.22/bin/../lib/gcc/pic32mx/4.5.2/mips16\libgcc.a(_floatundisf.o)
                0x9d02fc7d                __floatundisf

.text.inputSpiPort
                0x9d02fd34       0xb4
 .text.inputSpiPort
                0x9d02fd34       0xb4 build/default/production/_ext/454704213/iosetting.o
                0x9d02fd35                inputSpiPort

.text.UDPOpenEx
                0x9d02fde8       0xb4
 .text.UDPOpenEx
                0x9d02fde8       0xb4 build/default/production/_ext/1340694758/UDP.o
                0x9d02fde9                UDPOpenEx

.text.mDNSSDFormatServiceInstance
                0x9d02fe9c       0xb4
 .text.mDNSSDFormatServiceInstance
                0x9d02fe9c       0xb4 build/default/production/_ext/1340694758/ZeroconfMulticastDNS.o

.text.mDNSProcess
                0x9d02ff50       0xb4
 .text.mDNSProcess
                0x9d02ff50       0xb4 build/default/production/_ext/1340694758/ZeroconfMulticastDNS.o
                0x9d02ff51                mDNSProcess

.text.read_section_debug
                0x9d030004       0xb4
 .text.read_section_debug
                0x9d030004       0xb4 ..\mruby-1.0.0\build\PICrouter\lib\libmruby.a(load.o)

.text.mrb_to_integer
                0x9d0300b8       0xb4
 .text.mrb_to_integer
                0x9d0300b8       0xb4 ..\mruby-1.0.0\build\PICrouter\lib\libmruby.a(object.o)

.text.sym_cmp   0x9d03016c       0xb4
 .text.sym_cmp  0x9d03016c       0xb4 ..\mruby-1.0.0\build\PICrouter\lib\libmruby.a(symbol.o)

.text.argnum_error
                0x9d030220       0xb4
 .text.argnum_error
                0x9d030220       0xb4 ..\mruby-1.0.0\build\PICrouter\lib\libmruby.a(vm.o)

.text.ecall     0x9d0302d4       0xb4
 .text.ecall    0x9d0302d4       0xb4 ..\mruby-1.0.0\build\PICrouter\lib\libmruby.a(vm.o)

.text.mrb_ary_unshift_m
                0x9d030388       0xb4
 .text.mrb_ary_unshift_m
                0x9d030388       0xb4 ..\mruby-1.0.0\build\PICrouter\lib\libmruby.a(array.o)
                0x9d030389                mrb_ary_unshift_m

.text.mrb_fixnum_mul
                0x9d03043c       0xb4
 .text.mrb_fixnum_mul
                0x9d03043c       0xb4 ..\mruby-1.0.0\build\PICrouter\lib\libmruby.a(numeric.o)
                0x9d03043d                mrb_fixnum_mul

.text.ZeroconfARPPktNotify
                0x9d0304f0       0xb0
 .text.ZeroconfARPPktNotify
                0x9d0304f0       0xb0 build/default/production/_ext/1340694758/ZeroconfLinkLocal.o
                0x9d0304f1                ZeroconfARPPktNotify

.text.class_instance_method_list
                0x9d0305a0       0xb0
 .text.class_instance_method_list
                0x9d0305a0       0xb0 ..\mruby-1.0.0\build\PICrouter\lib\libmruby.a(kernel.o)
                0x9d0305a1                class_instance_method_list

.text.mrb_ary_eql
                0x9d030650       0xb0
 .text.mrb_ary_eql
                0x9d030650       0xb0 ..\mruby-1.0.0\build\PICrouter\lib\libmruby.a(array.o)

.text.num_pow   0x9d030700       0xb0
 .text.num_pow  0x9d030700       0xb0 ..\mruby-1.0.0\build\PICrouter\lib\libmruby.a(numeric.o)

.text           0x9d0307b0       0xb0
 .text          0x9d0307b0       0xb0 c:/program files (x86)/microchip/xc32/v1.22/bin/../lib/gcc/pic32mx/4.5.2/../../../../pic32mx/lib/mips16\libm.a(fpfloo32.o)
                0x9d0307b0                floorf
                0x9d0307b0                fpfloor

.text.realloc   0x9d030860       0xb0
 .text.realloc  0x9d030860       0xb0 c:/program files (x86)/microchip/xc32/v1.22/bin/../lib/gcc/pic32mx/4.5.2/../../../../pic32mx/lib/mips16\libc.a(malloc.o)
                0x9d030861                realloc

.text.fround    0x9d030910       0xb0
 .text.fround   0x9d030910       0xb0 c:/program files (x86)/microchip/xc32/v1.22/bin/../lib/gcc/pic32mx/4.5.2/../../../../pic32mx/lib/mips16\libc.a(doprnt.o)

.text._flsbuf   0x9d0309c0       0xb0
 .text._flsbuf  0x9d0309c0       0xb0 c:/program files (x86)/microchip/xc32/v1.22/bin/../lib/gcc/pic32mx/4.5.2/../../../../pic32mx/lib/mips16\libc.a(_flsbuf_simple.o)
                0x9d0309c1                _flsbuf

.text.mrb_singleton_class
                0x9d030a70       0xac
 .text.mrb_singleton_class
                0x9d030a70       0xac ..\mruby-1.0.0\build\PICrouter\lib\libmruby.a(class.o)
                0x9d030a71                mrb_singleton_class

.text.mrb_hash_default
                0x9d030b1c       0xac
 .text.mrb_hash_default
                0x9d030b1c       0xac ..\mruby-1.0.0\build\PICrouter\lib\libmruby.a(hash.o)

.text.mrb_hash_get
                0x9d030bc8       0xac
 .text.mrb_hash_get
                0x9d030bc8       0xac ..\mruby-1.0.0\build\PICrouter\lib\libmruby.a(hash.o)
                0x9d030bc9                mrb_hash_get

.text.mrb_fixnum_to_str
                0x9d030c74       0xac
 .text.mrb_fixnum_to_str
                0x9d030c74       0xac ..\mruby-1.0.0\build\PICrouter\lib\libmruby.a(numeric.o)
                0x9d030c75                mrb_fixnum_to_str

.text.mrb_range_beg_len
                0x9d030d20       0xac
 .text.mrb_range_beg_len
                0x9d030d20       0xac ..\mruby-1.0.0\build\PICrouter\lib\libmruby.a(range.o)
                0x9d030d21                mrb_range_beg_len

.text           0x9d030dcc       0xac
 .text          0x9d030dcc       0xac c:/program files (x86)/microchip/xc32/v1.22/bin/../lib/gcc/pic32mx/4.5.2/../../../../pic32mx/lib/mips16\libm.a(fpceil32.o)
                0x9d030dcc                ceilf
                0x9d030dcc                fpceil

.text.read_lineno_record_1
                0x9d030e78       0xa8
 .text.read_lineno_record_1
                0x9d030e78       0xa8 ..\mruby-1.0.0\build\PICrouter\lib\libmruby.a(load.o)

.text.mrb_init_symbol
                0x9d030f20       0xa8
 .text.mrb_init_symbol
                0x9d030f20       0xa8 ..\mruby-1.0.0\build\PICrouter\lib\libmruby.a(symbol.o)
                0x9d030f21                mrb_init_symbol

.text.mrb_onboard_led
                0x9d030fc8       0xa4
 .text.mrb_onboard_led
                0x9d030fc8       0xa4 build/default/production/picrouter.o
                0x9d030fc9                mrb_onboard_led

.text.prepare_singleton_class
                0x9d03106c       0xa4
 .text.prepare_singleton_class
                0x9d03106c       0xa4 ..\mruby-1.0.0\build\PICrouter\lib\libmruby.a(class.o)

.text.mrb_include_module
                0x9d031110       0xa4
 .text.mrb_include_module
                0x9d031110       0xa4 ..\mruby-1.0.0\build\PICrouter\lib\libmruby.a(class.o)
                0x9d031111                mrb_include_module

.rodata         0x9d0311b4       0xa4
 .rodata        0x9d0311b4       0xa4 ..\mruby-1.0.0\build\PICrouter\lib\libmruby.a(gc.o)

.text.kh_get_n2s
                0x9d031258       0xa4
 .text.kh_get_n2s
                0x9d031258       0xa4 ..\mruby-1.0.0\build\PICrouter\lib\libmruby.a(symbol.o)
                0x9d031259                kh_get_n2s

.rodata         0x9d0312fc       0xa0
 .rodata        0x9d0312fc       0xa0 build/default/production/_ext/454704213/iosetting.o

.text.sendSpiFourWord
                0x9d03139c       0xa0
 .text.sendSpiFourWord
                0x9d03139c       0xa0 build/default/production/_ext/454704213/iosetting.o
                0x9d03139d                sendSpiFourWord

.text.processOSCPacket
                0x9d03143c       0xa0
 .text.processOSCPacket
                0x9d03143c       0xa0 build/default/production/_ext/454704213/osc.o
                0x9d03143d                processOSCPacket

.text.IPPutHeader
                0x9d0314dc       0xa0
 .text.IPPutHeader
                0x9d0314dc       0xa0 build/default/production/_ext/1340694758/IP.o
                0x9d0314dd                IPPutHeader

.text.FindMatchingSocket
                0x9d03157c       0xa0
 .text.FindMatchingSocket
                0x9d03157c       0xa0 build/default/production/_ext/1340694758/UDP.o

.text.USBCtrlTrfTxService
                0x9d03161c       0xa0
 .text.USBCtrlTrfTxService
                0x9d03161c       0xa0 build/default/production/_ext/1798056102/usb_device.o

.rodata         0x9d0316bc       0xa0
 .rodata        0x9d0316bc       0xa0 c:/program files (x86)/microchip/xc32/v1.22/bin/../lib/gcc/pic32mx/4.5.2/../../../../pic32mx/lib/mips16\libmchp_peripheral_32MX795F512H.a(spi_io_tbl_libp.o)
                0x9d0316bc                _SpiIoTbl

.text.getAnalogByte
                0x9d03175c       0x9c
 .text.getAnalogByte
                0x9d03175c       0x9c build/default/production/_ext/454704213/analog.o
                0x9d03175d                getAnalogByte

.text.UDPTask   0x9d0317f8       0x9c
 .text.UDPTask  0x9d0317f8       0x9c build/default/production/_ext/1340694758/UDP.o
                0x9d0317f9                UDPTask

.text.USBStdGetDscHandler
                0x9d031894       0x9c
 .text.USBStdGetDscHandler
                0x9d031894       0x9c build/default/production/_ext/1798056102/usb_device.o

.text.kh_resize_mt
                0x9d031930       0x9c
 .text.kh_resize_mt
                0x9d031930       0x9c ..\mruby-1.0.0\build\PICrouter\lib\libmruby.a(class.o)
                0x9d031931                kh_resize_mt

.text.mrb_incremental_gc
                0x9d0319cc       0x9c
 .text.mrb_incremental_gc
                0x9d0319cc       0x9c ..\mruby-1.0.0\build\PICrouter\lib\libmruby.a(gc.o)
                0x9d0319cd                mrb_incremental_gc

.text.mrb_f_block_given_p_m
                0x9d031a68       0x9c
 .text.mrb_f_block_given_p_m
                0x9d031a68       0x9c ..\mruby-1.0.0\build\PICrouter\lib\libmruby.a(kernel.o)

.text.mrb_convert_type
                0x9d031b04       0x9c
 .text.mrb_convert_type
                0x9d031b04       0x9c ..\mruby-1.0.0\build\PICrouter\lib\libmruby.a(object.o)
                0x9d031b05                mrb_convert_type

.text.mrb_str_equal
                0x9d031ba0       0x9c
 .text.mrb_str_equal
                0x9d031ba0       0x9c ..\mruby-1.0.0\build\PICrouter\lib\libmruby.a(string.o)
                0x9d031ba1                mrb_str_equal

.text.mrb_ary_shift
                0x9d031c3c       0x9c
 .text.mrb_ary_shift
                0x9d031c3c       0x9c ..\mruby-1.0.0\build\PICrouter\lib\libmruby.a(array.o)
                0x9d031c3d                mrb_ary_shift

.text.flo_truncate
                0x9d031cd8       0x9c
 .text.flo_truncate
                0x9d031cd8       0x9c ..\mruby-1.0.0\build\PICrouter\lib\libmruby.a(numeric.o)

.text.EthMACOpen
                0x9d031d74       0x9c
 .text.EthMACOpen
                0x9d031d74       0x9c c:/program files (x86)/microchip/xc32/v1.22/bin/../lib/gcc/pic32mx/4.5.2/../../../../pic32mx/lib/mips16\libmchp_peripheral_32MX795F512H.a(eth_mac_open_lib.o)
                0x9d031d75                EthMACOpen

.text.getAnalogWord
                0x9d031e10       0x98
 .text.getAnalogWord
                0x9d031e10       0x98 build/default/production/_ext/454704213/analog.o
                0x9d031e11                getAnalogWord

.text.mrb_receive_midi_datas
                0x9d031ea8       0x98
 .text.mrb_receive_midi_datas
                0x9d031ea8       0x98 build/default/production/picrouter.o
                0x9d031ea9                mrb_receive_midi_datas

.text.convert_type
                0x9d031f40       0x98
 .text.convert_type
                0x9d031f40       0x98 ..\mruby-1.0.0\build\PICrouter\lib\libmruby.a(object.o)

.text.proc_lambda
                0x9d031fd8       0x98
 .text.proc_lambda
                0x9d031fd8       0x98 ..\mruby-1.0.0\build\PICrouter\lib\libmruby.a(proc.o)

.text.mrb_memsearch_qs
                0x9d032070       0x98
 .text.mrb_memsearch_qs
                0x9d032070       0x98 ..\mruby-1.0.0\build\PICrouter\lib\libmruby.a(string.o)

.text.sym_inspect
                0x9d032108       0x98
 .text.sym_inspect
                0x9d032108       0x98 ..\mruby-1.0.0\build\PICrouter\lib\libmruby.a(symbol.o)

.text.stack_extend_alloc
                0x9d0321a0       0x98
 .text.stack_extend_alloc
                0x9d0321a0       0x98 ..\mruby-1.0.0\build\PICrouter\lib\libmruby.a(vm.o)

.text.mrb_debug_get_line
                0x9d032238       0x98
 .text.mrb_debug_get_line
                0x9d032238       0x98 ..\mruby-1.0.0\build\PICrouter\lib\libmruby.a(debug.o)
                0x9d032239                mrb_debug_get_line

.text.EthDescriptorsPoolAdd
                0x9d0322d0       0x98
 .text.EthDescriptorsPoolAdd
                0x9d0322d0       0x98 c:/program files (x86)/microchip/xc32/v1.22/bin/../lib/gcc/pic32mx/4.5.2/../../../../pic32mx/lib/mips16\libmchp_peripheral_32MX795F512H.a(eth_descriptors_add_lib.o)
                0x9d0322d1                EthDescriptorsPoolAdd

.text.kh_get_ht
                0x9d032368       0x94
 .text.kh_get_ht
                0x9d032368       0x94 ..\mruby-1.0.0\build\PICrouter\lib\libmruby.a(hash.o)
                0x9d032369                kh_get_ht

.text.mrb_obj_clone
                0x9d0323fc       0x94
 .text.mrb_obj_clone
                0x9d0323fc       0x94 ..\mruby-1.0.0\build\PICrouter\lib\libmruby.a(kernel.o)
                0x9d0323fd                mrb_obj_clone

.text.str_make_shared
                0x9d032490       0x94
 .text.str_make_shared
                0x9d032490       0x94 ..\mruby-1.0.0\build\PICrouter\lib\libmruby.a(string.o)

.text.mrb_ary_delete_at
                0x9d032524       0x94
 .text.mrb_ary_delete_at
                0x9d032524       0x94 ..\mruby-1.0.0\build\PICrouter\lib\libmruby.a(array.o)
                0x9d032525                mrb_ary_delete_at

.text.mrb_ary_set
                0x9d0325b8       0x94
 .text.mrb_ary_set
                0x9d0325b8       0x94 ..\mruby-1.0.0\build\PICrouter\lib\libmruby.a(array.o)
                0x9d0325b9                mrb_ary_set

.rodata.configDescriptor1.configDescriptor1
                0x9d03264c       0x90
 .rodata.configDescriptor1.configDescriptor1
                0x9d03264c       0x90 build/default/production/_ext/454704213/usb_descriptors.o
                0x9d03264c                configDescriptor1

.text.mDNSPutString
                0x9d0326dc       0x90
 .text.mDNSPutString
                0x9d0326dc       0x90 build/default/production/_ext/1340694758/ZeroconfMulticastDNS.o

.text.mDNSRename
                0x9d03276c       0x90
 .text.mDNSRename
                0x9d03276c       0x90 build/default/production/_ext/1340694758/ZeroconfMulticastDNS.o

.text.mrb_gc_mark_hash
                0x9d0327fc       0x90
 .text.mrb_gc_mark_hash
                0x9d0327fc       0x90 ..\mruby-1.0.0\build\PICrouter\lib\libmruby.a(hash.o)
                0x9d0327fd                mrb_gc_mark_hash

.rodata.builtin_types.builtin_types
                0x9d03288c       0x90
 .rodata.builtin_types.builtin_types
                0x9d03288c       0x90 ..\mruby-1.0.0\build\PICrouter\lib\libmruby.a(object.o)

.rodata         0x9d03291c       0x90
 .rodata        0x9d03291c       0x90 ..\mruby-1.0.0\build\PICrouter\lib\libmruby.a(proc.o)

.text.mrb_str_aref_m
                0x9d0329ac       0x90
 .text.mrb_str_aref_m
                0x9d0329ac       0x90 ..\mruby-1.0.0\build\PICrouter\lib\libmruby.a(string.o)

.text.mrb_ary_first
                0x9d032a3c       0x90
 .text.mrb_ary_first
                0x9d032a3c       0x90 ..\mruby-1.0.0\build\PICrouter\lib\libmruby.a(array.o)
                0x9d032a3d                mrb_ary_first

.text.mrb_fixnum_plus
                0x9d032acc       0x90
 .text.mrb_fixnum_plus
                0x9d032acc       0x90 ..\mruby-1.0.0\build\PICrouter\lib\libmruby.a(numeric.o)
                0x9d032acd                mrb_fixnum_plus

.text.mrb_method_search
                0x9d032b5c       0x8c
 .text.mrb_method_search
                0x9d032b5c       0x8c ..\mruby-1.0.0\build\PICrouter\lib\libmruby.a(class.o)
                0x9d032b5d                mrb_method_search

.text.mrb_obj_dup
                0x9d032be8       0x8c
 .text.mrb_obj_dup
                0x9d032be8       0x8c ..\mruby-1.0.0\build\PICrouter\lib\libmruby.a(kernel.o)
                0x9d032be9                mrb_obj_dup

.text.const_get
                0x9d032c74       0x8c
 .text.const_get
                0x9d032c74       0x8c ..\mruby-1.0.0\build\PICrouter\lib\libmruby.a(variable.o)

.text.getSpiPortDioType
                0x9d032d00       0x88
 .text.getSpiPortDioType
                0x9d032d00       0x88 build/default/production/_ext/454704213/iosetting.o
                0x9d032d01                getSpiPortDioType

.text.ICMPProcess
                0x9d032d88       0x88
 .text.ICMPProcess
                0x9d032d88       0x88 build/default/production/_ext/1340694758/ICMP.o
                0x9d032d89                ICMPProcess

.text.IPGetHeader
                0x9d032e10       0x88
 .text.IPGetHeader
                0x9d032e10       0x88 build/default/production/_ext/1340694758/IP.o
                0x9d032e11                IPGetHeader

.text.mod_define_method
                0x9d032e98       0x88
 .text.mod_define_method
                0x9d032e98       0x88 ..\mruby-1.0.0\build\PICrouter\lib\libmruby.a(class.o)

.text.exc_exception
                0x9d032f20       0x88
 .text.exc_exception
                0x9d032f20       0x88 ..\mruby-1.0.0\build\PICrouter\lib\libmruby.a(error.o)

.text.mrb_obj_instance_eval
                0x9d032fa8       0x88
 .text.mrb_obj_instance_eval
                0x9d032fa8       0x88 ..\mruby-1.0.0\build\PICrouter\lib\libmruby.a(kernel.o)
                0x9d032fa9                mrb_obj_instance_eval

.text.iv_foreach
                0x9d033030       0x88
 .text.iv_foreach
                0x9d033030       0x88 ..\mruby-1.0.0\build\PICrouter\lib\libmruby.a(variable.o)

.text.ary_expand_capa
                0x9d0330b8       0x88
 .text.ary_expand_capa
                0x9d0330b8       0x88 ..\mruby-1.0.0\build\PICrouter\lib\libmruby.a(array.o)

.text.EthInit   0x9d033140       0x88
 .text.EthInit  0x9d033140       0x88 c:/program files (x86)/microchip/xc32/v1.22/bin/../lib/gcc/pic32mx/4.5.2/../../../../pic32mx/lib/mips16\libmchp_peripheral_32MX795F512H.a(eth_init_lib.o)
                0x9d033141                EthInit

.text.sendAdc   0x9d0331c8       0x84
 .text.sendAdc  0x9d0331c8       0x84 build/default/production/_ext/454704213/analog.o
                0x9d0331c9                sendAdc

.text.setDigitalPortDioType
                0x9d03324c       0x84
 .text.setDigitalPortDioType
                0x9d03324c       0x84 build/default/production/_ext/454704213/iosetting.o
                0x9d03324d                setDigitalPortDioType

.text.openOSCSendPort
                0x9d0332d0       0x84
 .text.openOSCSendPort
                0x9d0332d0       0x84 build/default/production/_ext/454704213/osc.o
                0x9d0332d1                openOSCSendPort

.text.ARPIsResolved
                0x9d033354       0x84
 .text.ARPIsResolved
                0x9d033354       0x84 build/default/production/_ext/1340694758/ARP.o
                0x9d033355                ARPIsResolved

.text.EthPhyReset
                0x9d0333d8       0x84
 .text.EthPhyReset
                0x9d0333d8       0x84 build/default/production/_ext/1340694758/ETHPIC32ExtPhy.o
                0x9d0333d9                EthPhyReset

.text.mrb_network_tasks
                0x9d03345c       0x84
 .text.mrb_network_tasks
                0x9d03345c       0x84 build/default/production/picrouter.o
                0x9d03345d                mrb_network_tasks

.text.mrb_obj_init_copy
                0x9d0334e0       0x84
 .text.mrb_obj_init_copy
                0x9d0334e0       0x84 ..\mruby-1.0.0\build\PICrouter\lib\libmruby.a(kernel.o)
                0x9d0334e1                mrb_obj_init_copy

.text.kh_resize_st
                0x9d033564       0x84
 .text.kh_resize_st
                0x9d033564       0x84 ..\mruby-1.0.0\build\PICrouter\lib\libmruby.a(kernel.o)
                0x9d033565                kh_resize_st

.text.mrb_obj_eq
                0x9d0335e8       0x84
 .text.mrb_obj_eq
                0x9d0335e8       0x84 ..\mruby-1.0.0\build\PICrouter\lib\libmruby.a(object.o)
                0x9d0335e9                mrb_obj_eq

.text.mrb_ary_unshift
                0x9d03366c       0x84
 .text.mrb_ary_unshift
                0x9d03366c       0x84 ..\mruby-1.0.0\build\PICrouter\lib\libmruby.a(array.o)
                0x9d03366d                mrb_ary_unshift

.text.num_cmp   0x9d0336f0       0x84
 .text.num_cmp  0x9d0336f0       0x84 ..\mruby-1.0.0\build\PICrouter\lib\libmruby.a(numeric.o)

.text.mrb_range_include
                0x9d033774       0x84
 .text.mrb_range_include
                0x9d033774       0x84 ..\mruby-1.0.0\build\PICrouter\lib\libmruby.a(range.o)
                0x9d033775                mrb_range_include

.text.USBCtrlTrfOutHandler
                0x9d0337f8       0x80
 .text.USBCtrlTrfOutHandler
                0x9d0337f8       0x80 build/default/production/_ext/1798056102/usb_device.o

.text.USBHostRead
                0x9d033878       0x80
 .text.USBHostRead
                0x9d033878       0x80 build/default/production/_ext/1798056102/usb_host.o
                0x9d033879                USBHostRead

.text.USBHostWrite
                0x9d0338f8       0x80
 .text.USBHostWrite
                0x9d0338f8       0x80 build/default/production/_ext/1798056102/usb_host.o
                0x9d0338f9                USBHostWrite

.text._USB_NotifyClients
                0x9d033978       0x80
 .text._USB_NotifyClients
                0x9d033978       0x80 build/default/production/_ext/1798056102/usb_host.o
                0x9d033979                _USB_NotifyClients

.text.USBHostCDCDeviceStatus
                0x9d0339f8       0x80
 .text.USBHostCDCDeviceStatus
                0x9d0339f8       0x80 build/default/production/_ext/1798056102/usb_host_cdc.o
                0x9d0339f9                USBHostCDCDeviceStatus

.text.mrb_mod_cvar_defined
                0x9d033a78       0x80
 .text.mrb_mod_cvar_defined
                0x9d033a78       0x80 ..\mruby-1.0.0\build\PICrouter\lib\libmruby.a(class.o)

.text.mrb_mod_const_defined
                0x9d033af8       0x80
 .text.mrb_mod_const_defined
                0x9d033af8       0x80 ..\mruby-1.0.0\build\PICrouter\lib\libmruby.a(class.o)
                0x9d033af9                mrb_mod_const_defined

.text.mrb_str_to_str
                0x9d033b78       0x80
 .text.mrb_str_to_str
                0x9d033b78       0x80 ..\mruby-1.0.0\build\PICrouter\lib\libmruby.a(string.o)
                0x9d033b79                mrb_str_to_str

.text.mrb_str_to_i
                0x9d033bf8       0x80
 .text.mrb_str_to_i
                0x9d033bf8       0x80 ..\mruby-1.0.0\build\PICrouter\lib\libmruby.a(string.o)

.text.ary_modify
                0x9d033c78       0x80
 .text.ary_modify
                0x9d033c78       0x80 ..\mruby-1.0.0\build\PICrouter\lib\libmruby.a(array.o)

.text.get_backtrace_i
                0x9d033cf8       0x80
 .text.get_backtrace_i
                0x9d033cf8       0x80 ..\mruby-1.0.0\build\PICrouter\lib\libmruby.a(backtrace.o)

.text.mrb_fixnum_minus
                0x9d033d78       0x80
 .text.mrb_fixnum_minus
                0x9d033d78       0x80 ..\mruby-1.0.0\build\PICrouter\lib\libmruby.a(numeric.o)
                0x9d033d79                mrb_fixnum_minus

.text.outputDigitalPort
                0x9d033df8       0x7c
 .text.outputDigitalPort
                0x9d033df8       0x7c build/default/production/_ext/454704213/iosetting.o
                0x9d033df9                outputDigitalPort

.text.extractTypeTagFromOSCPacket
                0x9d033e74       0x7c
 .text.extractTypeTagFromOSCPacket
                0x9d033e74       0x7c build/default/production/_ext/454704213/osc.o

.text._USB_FreeConfigMemory
                0x9d033ef0       0x7c
 .text._USB_FreeConfigMemory
                0x9d033ef0       0x7c build/default/production/_ext/1798056102/usb_host.o
                0x9d033ef1                _USB_FreeConfigMemory

.text.mrb_full_gc
                0x9d033f6c       0x7c
 .text.mrb_full_gc
                0x9d033f6c       0x7c ..\mruby-1.0.0\build\PICrouter\lib\libmruby.a(gc.o)
                0x9d033f6d                mrb_full_gc

.text.mrb_str_include
                0x9d033fe8       0x7c
 .text.mrb_str_include
                0x9d033fe8       0x7c ..\mruby-1.0.0\build\PICrouter\lib\libmruby.a(string.o)

.text.mrb_ary_reverse
                0x9d034064       0x7c
 .text.mrb_ary_reverse
                0x9d034064       0x7c ..\mruby-1.0.0\build\PICrouter\lib\libmruby.a(array.o)
                0x9d034065                mrb_ary_reverse

.text.mrb_obj_id
                0x9d0340e0       0x7c
 .text.mrb_obj_id
                0x9d0340e0       0x7c ..\mruby-1.0.0\build\PICrouter\lib\libmruby.a(etc.o)
                0x9d0340e1                mrb_obj_id

.text._mon_putc
                0x9d03415c       0x7c
 .text._mon_putc
                0x9d03415c       0x7c c:/program files (x86)/microchip/xc32/v1.22/bin/../lib/gcc/pic32mx/4.5.2/../../../../pic32mx/lib/mips16\libpic32.a(_mon_putc.o)
                0x9d03415d                _mon_putc

.text.setPwmPortDioType
                0x9d0341d8       0x78
 .text.setPwmPortDioType
                0x9d0341d8       0x78 build/default/production/_ext/454704213/iosetting.o
                0x9d0341d9                setPwmPortDioType

.text.USBHostTransferIsComplete
                0x9d034250       0x78
 .text.USBHostTransferIsComplete
                0x9d034250       0x78 build/default/production/_ext/1798056102/usb_host.o
                0x9d034251                USBHostTransferIsComplete

.text._USB_SendToken
                0x9d0342c8       0x78
 .text._USB_SendToken
                0x9d0342c8       0x78 build/default/production/_ext/1798056102/usb_host.o
                0x9d0342c9                _USB_SendToken

.text._USBHostCDC_ResetStateJump
                0x9d034340       0x78
 .text._USBHostCDC_ResetStateJump
                0x9d034340       0x78 build/default/production/_ext/1798056102/usb_host_cdc.o
                0x9d034341                _USBHostCDC_ResetStateJump

.text.mrb_class_name
                0x9d0343b8       0x78
 .text.mrb_class_name
                0x9d0343b8       0x78 ..\mruby-1.0.0\build\PICrouter\lib\libmruby.a(class.o)
                0x9d0343b9                mrb_class_name

.text.mrb_hash_has_valueWithvalue
                0x9d034430       0x78
 .text.mrb_hash_has_valueWithvalue
                0x9d034430       0x78 ..\mruby-1.0.0\build\PICrouter\lib\libmruby.a(hash.o)

.text.mrb_hash_values
                0x9d0344a8       0x78
 .text.mrb_hash_values
                0x9d0344a8       0x78 ..\mruby-1.0.0\build\PICrouter\lib\libmruby.a(hash.o)

.text.mrb_hash_keys
                0x9d034520       0x78
 .text.mrb_hash_keys
                0x9d034520       0x78 ..\mruby-1.0.0\build\PICrouter\lib\libmruby.a(hash.o)
                0x9d034521                mrb_hash_keys

.text.mrb_hash_set
                0x9d034598       0x78
 .text.mrb_hash_set
                0x9d034598       0x78 ..\mruby-1.0.0\build\PICrouter\lib\libmruby.a(hash.o)
                0x9d034599                mrb_hash_set

.text.mrb_load_irep_cxt
                0x9d034610       0x78
 .text.mrb_load_irep_cxt
                0x9d034610       0x78 ..\mruby-1.0.0\build\PICrouter\lib\libmruby.a(load.o)
                0x9d034611                mrb_load_irep_cxt

.text.mrb_open_allocf
                0x9d034688       0x78
 .text.mrb_open_allocf
                0x9d034688       0x78 ..\mruby-1.0.0\build\PICrouter\lib\libmruby.a(state.o)
                0x9d034689                mrb_open_allocf

.text.mrb_str_upcase_bang
                0x9d034700       0x78
 .text.mrb_str_upcase_bang
                0x9d034700       0x78 ..\mruby-1.0.0\build\PICrouter\lib\libmruby.a(string.o)

.text.mrb_str_capitalize_bang
                0x9d034778       0x78
 .text.mrb_str_capitalize_bang
                0x9d034778       0x78 ..\mruby-1.0.0\build\PICrouter\lib\libmruby.a(string.o)

.text.mrb_mod_cv_set
                0x9d0347f0       0x78
 .text.mrb_mod_cv_set
                0x9d0347f0       0x78 ..\mruby-1.0.0\build\PICrouter\lib\libmruby.a(variable.o)
                0x9d0347f1                mrb_mod_cv_set

.text.mrb_vm_const_get
                0x9d034868       0x78
 .text.mrb_vm_const_get
                0x9d034868       0x78 ..\mruby-1.0.0\build\PICrouter\lib\libmruby.a(variable.o)
                0x9d034869                mrb_vm_const_get

.text.mrb_ary_ceqq
                0x9d0348e0       0x78
 .text.mrb_ary_ceqq
                0x9d0348e0       0x78 ..\mruby-1.0.0\build\PICrouter\lib\libmruby.a(array.o)

.text.log10f    0x9d034958       0x78
 .text.log10f   0x9d034958       0x78 c:/program files (x86)/microchip/xc32/v1.22/bin/../lib/gcc/pic32mx/4.5.2/../../../../pic32mx/lib/mips16\libm.a(w_log10f.o)
                0x9d034959                log10f

.text.setOSCAddress
                0x9d0349d0       0x74
 .text.setOSCAddress
                0x9d0349d0       0x74 build/default/production/_ext/454704213/osc.o
                0x9d0349d1                setOSCAddress

.text.mDNSServiceDeRegister
                0x9d034a44       0x74
 .text.mDNSServiceDeRegister
                0x9d034a44       0x74 build/default/production/_ext/1340694758/ZeroconfMulticastDNS.o
                0x9d034a45                mDNSServiceDeRegister

.text.mDNSInitialize
                0x9d034ab8       0x74
 .text.mDNSInitialize
                0x9d034ab8       0x74 build/default/production/_ext/1340694758/ZeroconfMulticastDNS.o
                0x9d034ab9                mDNSInitialize

.text._USB_InitControlWrite
                0x9d034b2c       0x74
 .text._USB_InitControlWrite
                0x9d034b2c       0x74 build/default/production/_ext/1798056102/usb_host.o
                0x9d034b2d                _USB_InitControlWrite

.text._USB_InitRead
                0x9d034ba0       0x74
 .text._USB_InitRead
                0x9d034ba0       0x74 build/default/production/_ext/1798056102/usb_host.o
                0x9d034ba1                _USB_InitRead

.text._USB_InitWrite
                0x9d034c14       0x74
 .text._USB_InitWrite
                0x9d034c14       0x74 build/default/production/_ext/1798056102/usb_host.o
                0x9d034c15                _USB_InitWrite

.text.check_type
                0x9d034c88       0x74
 .text.check_type
                0x9d034c88       0x74 ..\mruby-1.0.0\build\PICrouter\lib\libmruby.a(class.o)

.text.get_sym_or_str_arg
                0x9d034cfc       0x74
 .text.get_sym_or_str_arg
                0x9d034cfc       0x74 ..\mruby-1.0.0\build\PICrouter\lib\libmruby.a(class.o)

.text.mrb_check_inheritable
                0x9d034d70       0x74
 .text.mrb_check_inheritable
                0x9d034d70       0x74 ..\mruby-1.0.0\build\PICrouter\lib\libmruby.a(class.o)
                0x9d034d71                mrb_check_inheritable

.text.change_gen_gc_mode
                0x9d034de4       0x74
 .text.change_gen_gc_mode
                0x9d034de4       0x74 ..\mruby-1.0.0\build\PICrouter\lib\libmruby.a(gc.o)

.text.mrb_obj_alloc
                0x9d034e58       0x74
 .text.mrb_obj_alloc
                0x9d034e58       0x74 ..\mruby-1.0.0\build\PICrouter\lib\libmruby.a(gc.o)
                0x9d034e59                mrb_obj_alloc

.text.mrb_hash_set_default
                0x9d034ecc       0x74
 .text.mrb_hash_set_default
                0x9d034ecc       0x74 ..\mruby-1.0.0\build\PICrouter\lib\libmruby.a(hash.o)

.text.mrb_str_pool
                0x9d034f40       0x74
 .text.mrb_str_pool
                0x9d034f40       0x74 ..\mruby-1.0.0\build\PICrouter\lib\libmruby.a(state.o)
                0x9d034f41                mrb_str_pool

.text.mrb_check_intern
                0x9d034fb4       0x74
 .text.mrb_check_intern
                0x9d034fb4       0x74 ..\mruby-1.0.0\build\PICrouter\lib\libmruby.a(symbol.o)
                0x9d034fb5                mrb_check_intern

.text.mrb_f_global_variables
                0x9d035028       0x74
 .text.mrb_f_global_variables
                0x9d035028       0x74 ..\mruby-1.0.0\build\PICrouter\lib\libmruby.a(variable.o)
                0x9d035029                mrb_f_global_variables

.text.flo_divmod
                0x9d03509c       0x74
 .text.flo_divmod
                0x9d03509c       0x74 ..\mruby-1.0.0\build\PICrouter\lib\libmruby.a(numeric.o)

.text.flo_floor
                0x9d035110       0x74
 .text.flo_floor
                0x9d035110       0x74 ..\mruby-1.0.0\build\PICrouter\lib\libmruby.a(numeric.o)

.text.flo_ceil  0x9d035184       0x74
 .text.flo_ceil
                0x9d035184       0x74 ..\mruby-1.0.0\build\PICrouter\lib\libmruby.a(numeric.o)

.text.outputPwmPort
                0x9d0351f8       0x70
 .text.outputPwmPort
                0x9d0351f8       0x70 build/default/production/_ext/454704213/iosetting.o
                0x9d0351f9                outputPwmPort

.text.ARPSendPkt
                0x9d035268       0x70
 .text.ARPSendPkt
                0x9d035268       0x70 build/default/production/_ext/1340694758/ARP.o
                0x9d035269                ARPSendPkt

.text._T1Interrupt
                0x9d0352d8       0x70
 .text._T1Interrupt
                0x9d0352d8       0x70 build/default/production/_ext/1340694758/Tick.o
                0x9d0352d8                _T1Interrupt

.text.mrb_instance_new
                0x9d035348       0x70
 .text.mrb_instance_new
                0x9d035348       0x70 ..\mruby-1.0.0\build\PICrouter\lib\libmruby.a(class.o)
                0x9d035349                mrb_instance_new

.text.mark_context_stack
                0x9d0353b8       0x70
 .text.mark_context_stack
                0x9d0353b8       0x70 ..\mruby-1.0.0\build\PICrouter\lib\libmruby.a(gc.o)

.text.mrb_hash_set_default_proc
                0x9d035428       0x70
 .text.mrb_hash_set_default_proc
                0x9d035428       0x70 ..\mruby-1.0.0\build\PICrouter\lib\libmruby.a(hash.o)

.text.mrb_sym2name_len
                0x9d035498       0x70
 .text.mrb_sym2name_len
                0x9d035498       0x70 ..\mruby-1.0.0\build\PICrouter\lib\libmruby.a(symbol.o)
                0x9d035499                mrb_sym2name_len

.text.mrb_mod_cv_get
                0x9d035508       0x70
 .text.mrb_mod_cv_get
                0x9d035508       0x70 ..\mruby-1.0.0\build\PICrouter\lib\libmruby.a(variable.o)
                0x9d035509                mrb_mod_cv_get

.text.mrb_ary_rindex_m
                0x9d035578       0x70
 .text.mrb_ary_rindex_m
                0x9d035578       0x70 ..\mruby-1.0.0\build\PICrouter\lib\libmruby.a(array.o)
                0x9d035579                mrb_ary_rindex_m

.text.mrb_ary_index_m
                0x9d0355e8       0x70
 .text.mrb_ary_index_m
                0x9d0355e8       0x70 ..\mruby-1.0.0\build\PICrouter\lib\libmruby.a(array.o)
                0x9d0355e9                mrb_ary_index_m

.text.mrb_ary_plus
                0x9d035658       0x70
 .text.mrb_ary_plus
                0x9d035658       0x70 ..\mruby-1.0.0\build\PICrouter\lib\libmruby.a(array.o)
                0x9d035659                mrb_ary_plus

.text.fix_mod   0x9d0356c8       0x70
 .text.fix_mod  0x9d0356c8       0x70 ..\mruby-1.0.0\build\PICrouter\lib\libmruby.a(numeric.o)

.text.flo_eq    0x9d035738       0x70
 .text.flo_eq   0x9d035738       0x70 ..\mruby-1.0.0\build\PICrouter\lib\libmruby.a(numeric.o)

.text.EthTxSendBuffer
                0x9d0357a8       0x70
 .text.EthTxSendBuffer
                0x9d0357a8       0x70 c:/program files (x86)/microchip/xc32/v1.22/bin/../lib/gcc/pic32mx/4.5.2/../../../../pic32mx/lib/mips16\libmchp_peripheral_32MX795F512H.a(eth_tx_packet_lib.o)
                0x9d0357a9                EthTxSendBuffer

.text.mDNSHostRegister
                0x9d035818       0x6c
 .text.mDNSHostRegister
                0x9d035818       0x6c build/default/production/_ext/1340694758/ZeroconfMulticastDNS.o
                0x9d035819                mDNSHostRegister

.text._USB_InitControlRead
                0x9d035884       0x6c
 .text._USB_InitControlRead
                0x9d035884       0x6c build/default/production/_ext/1798056102/usb_host.o
                0x9d035885                _USB_InitControlRead

.text.mrb_send_cc
                0x9d0358f0       0x6c
 .text.mrb_send_cc
                0x9d0358f0       0x6c build/default/production/picrouter.o
                0x9d0358f1                mrb_send_cc

.text.mrb_send_note
                0x9d03595c       0x6c
 .text.mrb_send_note
                0x9d03595c       0x6c build/default/production/picrouter.o
                0x9d03595d                mrb_send_note

.text.root_scan_phase
                0x9d0359c8       0x6c
 .text.root_scan_phase
                0x9d0359c8       0x6c ..\mruby-1.0.0\build\PICrouter\lib\libmruby.a(gc.o)

.text.mrb_memsearch
                0x9d035a34       0x6c
 .text.mrb_memsearch
                0x9d035a34       0x6c ..\mruby-1.0.0\build\PICrouter\lib\libmruby.a(string.o)

.text.mrb_str_substr
                0x9d035aa0       0x6c
 .text.mrb_str_substr
                0x9d035aa0       0x6c ..\mruby-1.0.0\build\PICrouter\lib\libmruby.a(string.o)
                0x9d035aa1                mrb_str_substr

.text.mrb_str_to_dbl
                0x9d035b0c       0x6c
 .text.mrb_str_to_dbl
                0x9d035b0c       0x6c ..\mruby-1.0.0\build\PICrouter\lib\libmruby.a(string.o)
                0x9d035b0d                mrb_str_to_dbl

.text.mrb_free_symtbl
                0x9d035b78       0x6c
 .text.mrb_free_symtbl
                0x9d035b78       0x6c ..\mruby-1.0.0\build\PICrouter\lib\libmruby.a(symbol.o)
                0x9d035b79                mrb_free_symtbl

.text.ary_new_capa
                0x9d035be4       0x6c
 .text.ary_new_capa
                0x9d035be4       0x6c ..\mruby-1.0.0\build\PICrouter\lib\libmruby.a(array.o)

.text.flo_infinite_p
                0x9d035c50       0x6c
 .text.flo_infinite_p
                0x9d035c50       0x6c ..\mruby-1.0.0\build\PICrouter\lib\libmruby.a(numeric.o)

.text.range_check
                0x9d035cbc       0x6c
 .text.range_check
                0x9d035cbc       0x6c ..\mruby-1.0.0\build\PICrouter\lib\libmruby.a(range.o)

.text._EthTxSchedBuffer
                0x9d035d28       0x6c
 .text._EthTxSchedBuffer
                0x9d035d28       0x6c c:/program files (x86)/microchip/xc32/v1.22/bin/../lib/gcc/pic32mx/4.5.2/../../../../pic32mx/lib/mips16\libmchp_peripheral_32MX795F512H.a(eth_tx_packet_lib.o)

.text.SpiChnClose
                0x9d035d94       0x6c
 .text.SpiChnClose
                0x9d035d94       0x6c c:/program files (x86)/microchip/xc32/v1.22/bin/../lib/gcc/pic32mx/4.5.2/../../../../pic32mx/lib/mips16\libmchp_peripheral_32MX795F512H.a(spi_chn_close_lib.o)
                0x9d035d95                SpiChnClose

.text.__ldexp   0x9d035e00       0x6c
 .text.__ldexp  0x9d035e00       0x6c c:/program files (x86)/microchip/xc32/v1.22/bin/../lib/gcc/pic32mx/4.5.2/../../../../pic32mx/lib/mips16\libe.a(_ldexp.o)
                0x9d035e01                __ldexp

.text.startI2C  0x9d035e6c       0x68
 .text.startI2C
                0x9d035e6c       0x68 build/default/production/_ext/454704213/iosetting.o
                0x9d035e6d                startI2C

.text.GetTickCopy
                0x9d035ed4       0x68
 .text.GetTickCopy
                0x9d035ed4       0x68 build/default/production/_ext/1340694758/Tick.o

.text.mrb_class
                0x9d035f3c       0x68
 .text.mrb_class
                0x9d035f3c       0x68 ..\mruby-1.0.0\build\PICrouter\lib\libmruby.a(class.o)

.text.mrb_mod_remove_const
                0x9d035fa4       0x68
 .text.mrb_mod_remove_const
                0x9d035fa4       0x68 ..\mruby-1.0.0\build\PICrouter\lib\libmruby.a(class.o)
                0x9d035fa5                mrb_mod_remove_const

.text.mark_context
                0x9d03600c       0x68
 .text.mark_context
                0x9d03600c       0x68 ..\mruby-1.0.0\build\PICrouter\lib\libmruby.a(gc.o)

.text.mrb_class
                0x9d036074       0x68
 .text.mrb_class
                0x9d036074       0x68 ..\mruby-1.0.0\build\PICrouter\lib\libmruby.a(kernel.o)

.text.mrb_obj_remove_instance_variable
                0x9d0360dc       0x68
 .text.mrb_obj_remove_instance_variable
                0x9d0360dc       0x68 ..\mruby-1.0.0\build\PICrouter\lib\libmruby.a(kernel.o)
                0x9d0360dd                mrb_obj_remove_instance_variable

.text.mrb_class
                0x9d036144       0x68
 .text.mrb_class
                0x9d036144       0x68 ..\mruby-1.0.0\build\PICrouter\lib\libmruby.a(object.o)

.text.mrb_str_concat
                0x9d0361ac       0x68
 .text.mrb_str_concat
                0x9d0361ac       0x68 ..\mruby-1.0.0\build\PICrouter\lib\libmruby.a(string.o)
                0x9d0361ad                mrb_str_concat

.text.mrb_class
                0x9d036214       0x68
 .text.mrb_class
                0x9d036214       0x68 ..\mruby-1.0.0\build\PICrouter\lib\libmruby.a(vm.o)

.text.mrb_range_new
                0x9d03627c       0x68
 .text.mrb_range_new
                0x9d03627c       0x68 ..\mruby-1.0.0\build\PICrouter\lib\libmruby.a(range.o)
                0x9d03627d                mrb_range_new

.rodata         0x9d0362e4       0x68
 .rodata        0x9d0362e4       0x68 c:/program files (x86)/microchip/xc32/v1.22/bin/../lib/gcc/pic32mx/4.5.2/../../../../pic32mx/lib/mips16\libc.a(powersf.o)
                0x9d0362e4                _powers_f
                0x9d036318                _npowers_f

.text.StackInit
                0x9d03634c       0x64
 .text.StackInit
                0x9d03634c       0x64 build/default/production/_ext/1340694758/StackTsk.o
                0x9d03634d                StackInit

.text.USBStallHandler
                0x9d0363b0       0x64
 .text.USBStallHandler
                0x9d0363b0       0x64 build/default/production/_ext/1798056102/usb_device.o

.text._USB_CheckCommandAndEnumerationAttempts
                0x9d036414       0x64
 .text._USB_CheckCommandAndEnumerationAttempts
                0x9d036414       0x64 build/default/production/_ext/1798056102/usb_host.o
                0x9d036415                _USB_CheckCommandAndEnumerationAttempts

.text.USBHostInit
                0x9d036478       0x64
 .text.USBHostInit
                0x9d036478       0x64 build/default/production/_ext/1798056102/usb_host.o
                0x9d036479                USBHostInit

.text.kh_get_mt
                0x9d0364dc       0x64
 .text.kh_get_mt
                0x9d0364dc       0x64 ..\mruby-1.0.0\build\PICrouter\lib\libmruby.a(class.o)
                0x9d0364dd                kh_get_mt

.text.undef_method
                0x9d036540       0x64
 .text.undef_method
                0x9d036540       0x64 ..\mruby-1.0.0\build\PICrouter\lib\libmruby.a(class.o)

.text.mrb_obj_is_kind_of
                0x9d0365a4       0x64
 .text.mrb_obj_is_kind_of
                0x9d0365a4       0x64 ..\mruby-1.0.0\build\PICrouter\lib\libmruby.a(object.o)
                0x9d0365a5                mrb_obj_is_kind_of

.text.mrb_check_convert_type
                0x9d036608       0x64
 .text.mrb_check_convert_type
                0x9d036608       0x64 ..\mruby-1.0.0\build\PICrouter\lib\libmruby.a(object.o)
                0x9d036609                mrb_check_convert_type

.text.ary_make_shared
                0x9d03666c       0x64
 .text.ary_make_shared
                0x9d03666c       0x64 ..\mruby-1.0.0\build\PICrouter\lib\libmruby.a(array.o)

.text.fixdivmod
                0x9d0366d0       0x64
 .text.fixdivmod
                0x9d0366d0       0x64 ..\mruby-1.0.0\build\PICrouter\lib\libmruby.a(numeric.o)

.text.fix_rshift
                0x9d036734       0x64
 .text.fix_rshift
                0x9d036734       0x64 ..\mruby-1.0.0\build\PICrouter\lib\libmruby.a(numeric.o)

.text.atoi      0x9d036798       0x64
 .text.atoi     0x9d036798       0x64 c:/program files (x86)/microchip/xc32/v1.22/bin/../lib/gcc/pic32mx/4.5.2/../../../../pic32mx/lib/mips16\libc.a(atoi.o)
                0x9d036799                atoi

.text.strtok    0x9d0367fc       0x64
 .text.strtok   0x9d0367fc       0x64 c:/program files (x86)/microchip/xc32/v1.22/bin/../lib/gcc/pic32mx/4.5.2/../../../../pic32mx/lib/mips16\libc.a(strtok.o)
                0x9d0367fd                strtok

.text._sbrk     0x9d036860       0x64
 .text._sbrk    0x9d036860       0x64 c:/program files (x86)/microchip/xc32/v1.22/bin/../lib/gcc/pic32mx/4.5.2/../../../../pic32mx/lib/mips16\libpic32.a(sbrk.o)
                0x9d036861                _sbrk

.text.sendSpiTwoWord
                0x9d0368c4       0x60
 .text.sendSpiTwoWord
                0x9d0368c4       0x60 build/default/production/_ext/454704213/iosetting.o
                0x9d0368c5                sendSpiTwoWord

.text.compareOSCAddress
                0x9d036924       0x60
 .text.compareOSCAddress
                0x9d036924       0x60 build/default/production/_ext/454704213/osc.o
                0x9d036925                compareOSCAddress

.text.ARPPut    0x9d036984       0x60
 .text.ARPPut   0x9d036984       0x60 build/default/production/_ext/1340694758/ARP.o

.text.postAssign_ToDHCPClient_FromPool
                0x9d0369e4       0x60
 .text.postAssign_ToDHCPClient_FromPool
                0x9d0369e4       0x60 build/default/production/_ext/1340694758/DHCPs.o

.text.renew_dhcps_Pool
                0x9d036a44       0x60
 .text.renew_dhcps_Pool
                0x9d036a44       0x60 build/default/production/_ext/1340694758/DHCPs.o

.text._USB_FreeMemory
                0x9d036aa4       0x60
 .text._USB_FreeMemory
                0x9d036aa4       0x60 build/default/production/_ext/1798056102/usb_host.o
                0x9d036aa5                _USB_FreeMemory

.text.class_from_sym
                0x9d036b04       0x60
 .text.class_from_sym
                0x9d036b04       0x60 ..\mruby-1.0.0\build\PICrouter\lib\libmruby.a(class.o)

.text.mrb_name_error
                0x9d036b64       0x60
 .text.mrb_name_error
                0x9d036b64       0x60 ..\mruby-1.0.0\build\PICrouter\lib\libmruby.a(error.o)
                0x9d036b65                mrb_name_error

.text.mrb_ptr_to_str
                0x9d036bc4       0x60
 .text.mrb_ptr_to_str
                0x9d036bc4       0x60 ..\mruby-1.0.0\build\PICrouter\lib\libmruby.a(string.o)
                0x9d036bc5                mrb_ptr_to_str

.rodata         0x9d036c24       0x60
 .rodata        0x9d036c24       0x60 ..\mruby-1.0.0\build\PICrouter\lib\libmruby.a(symbol.o)

.text.iv_del    0x9d036c84       0x60
 .text.iv_del   0x9d036c84       0x60 ..\mruby-1.0.0\build\PICrouter\lib\libmruby.a(variable.o)

.text.iv_copy   0x9d036ce4       0x60
 .text.iv_copy  0x9d036ce4       0x60 ..\mruby-1.0.0\build\PICrouter\lib\libmruby.a(variable.o)

.text.lshift    0x9d036d44       0x60
 .text.lshift   0x9d036d44       0x60 ..\mruby-1.0.0\build\PICrouter\lib\libmruby.a(numeric.o)

.text.fix_lshift
                0x9d036da4       0x60
 .text.fix_lshift
                0x9d036da4       0x60 ..\mruby-1.0.0\build\PICrouter\lib\libmruby.a(numeric.o)

.text.mrb_range_initialize
                0x9d036e04       0x60
 .text.mrb_range_initialize
                0x9d036e04       0x60 ..\mruby-1.0.0\build\PICrouter\lib\libmruby.a(range.o)
                0x9d036e05                mrb_range_initialize

.text.SoftReset
                0x9d036e64       0x60
 .text.SoftReset
                0x9d036e64       0x60 c:/program files (x86)/microchip/xc32/v1.22/bin/../lib/gcc/pic32mx/4.5.2/../../../../pic32mx/lib/mips16\libmchp_peripheral_32MX795F512H.a(soft_reset_lib.o)
                0x9d036e65                SoftReset

.text.fflush    0x9d036ec4       0x60
 .text.fflush   0x9d036ec4       0x60 c:/program files (x86)/microchip/xc32/v1.22/bin/../lib/gcc/pic32mx/4.5.2/../../../../pic32mx/lib/mips16\libc.a(fflush.o)
                0x9d036ec5                fflush

.text.restartI2C
                0x9d036f24       0x5c
 .text.restartI2C
                0x9d036f24       0x5c build/default/production/_ext/454704213/iosetting.o
                0x9d036f25                restartI2C

.text.strncpy_m
                0x9d036f80       0x5c
 .text.strncpy_m
                0x9d036f80       0x5c build/default/production/_ext/1340694758/Helpers.o
                0x9d036f81                strncpy_m

.text.kh_copy_mt
                0x9d036fdc       0x5c
 .text.kh_copy_mt
                0x9d036fdc       0x5c ..\mruby-1.0.0\build\PICrouter\lib\libmruby.a(class.o)
                0x9d036fdd                kh_copy_mt

.text.setup_class
                0x9d037038       0x5c
 .text.setup_class
                0x9d037038       0x5c ..\mruby-1.0.0\build\PICrouter\lib\libmruby.a(class.o)

.text.mrb_mod_module_eval
                0x9d037094       0x5c
 .text.mrb_mod_module_eval
                0x9d037094       0x5c ..\mruby-1.0.0\build\PICrouter\lib\libmruby.a(class.o)
                0x9d037095                mrb_mod_module_eval

.text.mrb_obj_new
                0x9d0370f0       0x5c
 .text.mrb_obj_new
                0x9d0370f0       0x5c ..\mruby-1.0.0\build\PICrouter\lib\libmruby.a(class.o)
                0x9d0370f1                mrb_obj_new

.text.mrb_mod_method_defined
                0x9d03714c       0x5c
 .text.mrb_mod_method_defined
                0x9d03714c       0x5c ..\mruby-1.0.0\build\PICrouter\lib\libmruby.a(class.o)

.text.exc_to_s  0x9d0371a8       0x5c
 .text.exc_to_s
                0x9d0371a8       0x5c ..\mruby-1.0.0\build\PICrouter\lib\libmruby.a(error.o)

.text.closure_setup
                0x9d037204       0x5c
 .text.closure_setup
                0x9d037204       0x5c ..\mruby-1.0.0\build\PICrouter\lib\libmruby.a(proc.o)

.text.mrb_str_bytes
                0x9d037260       0x5c
 .text.mrb_str_bytes
                0x9d037260       0x5c ..\mruby-1.0.0\build\PICrouter\lib\libmruby.a(string.o)

.text.mrb_str_subseq
                0x9d0372bc       0x5c
 .text.mrb_str_subseq
                0x9d0372bc       0x5c ..\mruby-1.0.0\build\PICrouter\lib\libmruby.a(string.o)

.text.value_move
                0x9d037318       0xb8
 .text.value_move
                0x9d037318       0x5c ..\mruby-1.0.0\build\PICrouter\lib\libmruby.a(vm.o)
 .text.value_move
                0x9d037374       0x5c ..\mruby-1.0.0\build\PICrouter\lib\libmruby.a(array.o)

.text.ary_subseq
                0x9d0373d0       0x5c
 .text.ary_subseq
                0x9d0373d0       0x5c ..\mruby-1.0.0\build\PICrouter\lib\libmruby.a(array.o)

.text.mrb_ary_reverse_bang
                0x9d03742c       0x5c
 .text.mrb_ary_reverse_bang
                0x9d03742c       0x5c ..\mruby-1.0.0\build\PICrouter\lib\libmruby.a(array.o)
                0x9d03742d                mrb_ary_reverse_bang

.text.mrb_ary_splat
                0x9d037488       0x5c
 .text.mrb_ary_splat
                0x9d037488       0x5c ..\mruby-1.0.0\build\PICrouter\lib\libmruby.a(array.o)
                0x9d037489                mrb_ary_splat

.rodata         0x9d0374e4       0x5c
 .rodata        0x9d0374e4       0x5c ..\mruby-1.0.0\build\PICrouter\lib\libmruby.a(backtrace.o)

.text.get_file  0x9d037540       0x5c
 .text.get_file
                0x9d037540       0x5c ..\mruby-1.0.0\build\PICrouter\lib\libmruby.a(debug.o)

.text.fix_equal
                0x9d03759c       0x5c
 .text.fix_equal
                0x9d03759c       0x5c ..\mruby-1.0.0\build\PICrouter\lib\libmruby.a(numeric.o)

.text.bit_coerce
                0x9d0375f8       0x5c
 .text.bit_coerce
                0x9d0375f8       0x5c ..\mruby-1.0.0\build\PICrouter\lib\libmruby.a(numeric.o)

.text._EthTxSchedList
                0x9d037654       0x5c
 .text._EthTxSchedList
                0x9d037654       0x5c c:/program files (x86)/microchip/xc32/v1.22/bin/../lib/gcc/pic32mx/4.5.2/../../../../pic32mx/lib/mips16\libmchp_peripheral_32MX795F512H.a(eth_tx_packet_lib.o)

.text.getOSCPacket
                0x9d0376b0       0x58
 .text.getOSCPacket
                0x9d0376b0       0x58 build/default/production/_ext/454704213/osc.o
                0x9d0376b1                getOSCPacket

.text.mrb_set_port_io_type
                0x9d037708       0x58
 .text.mrb_set_port_io_type
                0x9d037708       0x58 build/default/production/picrouter.o
                0x9d037709                mrb_set_port_io_type

.text.mrb_output_port
                0x9d037760       0x58
 .text.mrb_output_port
                0x9d037760       0x58 build/default/production/picrouter.o
                0x9d037761                mrb_output_port

.text.remove_method
                0x9d0377b8       0x58
 .text.remove_method
                0x9d0377b8       0x58 ..\mruby-1.0.0\build\PICrouter\lib\libmruby.a(class.o)

.text.mrb_class_new
                0x9d037810       0x58
 .text.mrb_class_new
                0x9d037810       0x58 ..\mruby-1.0.0\build\PICrouter\lib\libmruby.a(class.o)
                0x9d037811                mrb_class_new

.text.incremental_gc
                0x9d037868       0x58
 .text.incremental_gc
                0x9d037868       0x58 ..\mruby-1.0.0\build\PICrouter\lib\libmruby.a(gc.o)

.text.clear_all_old
                0x9d0378c0       0x58
 .text.clear_all_old
                0x9d0378c0       0x58 ..\mruby-1.0.0\build\PICrouter\lib\libmruby.a(gc.o)

.text.mrb_realloc
                0x9d037918       0x58
 .text.mrb_realloc
                0x9d037918       0x58 ..\mruby-1.0.0\build\PICrouter\lib\libmruby.a(gc.o)
                0x9d037919                mrb_realloc

.text.read_irep_record
                0x9d037970       0x58
 .text.read_irep_record
                0x9d037970       0x58 ..\mruby-1.0.0\build\PICrouter\lib\libmruby.a(load.o)

.text.mrb_str_downcase_bang
                0x9d0379c8       0x58
 .text.mrb_str_downcase_bang
                0x9d0379c8       0x58 ..\mruby-1.0.0\build\PICrouter\lib\libmruby.a(string.o)

.text.mrb_str_chop_bang
                0x9d037a20       0x58
 .text.mrb_str_chop_bang
                0x9d037a20       0x58 ..\mruby-1.0.0\build\PICrouter\lib\libmruby.a(string.o)

.text.mrb_str_reverse
                0x9d037a78       0x58
 .text.mrb_str_reverse
                0x9d037a78       0x58 ..\mruby-1.0.0\build\PICrouter\lib\libmruby.a(string.o)

.text.mrb_obj_as_string
                0x9d037ad0       0x58
 .text.mrb_obj_as_string
                0x9d037ad0       0x58 ..\mruby-1.0.0\build\PICrouter\lib\libmruby.a(string.o)
                0x9d037ad1                mrb_obj_as_string

.text.mrb_str_to_inum
                0x9d037b28       0x58
 .text.mrb_str_to_inum
                0x9d037b28       0x58 ..\mruby-1.0.0\build\PICrouter\lib\libmruby.a(string.o)
                0x9d037b29                mrb_str_to_inum

.text.mrb_ary_push_m
                0x9d037b80       0x58
 .text.mrb_ary_push_m
                0x9d037b80       0x58 ..\mruby-1.0.0\build\PICrouter\lib\libmruby.a(array.o)
                0x9d037b81                mrb_ary_push_m

.text.EthPhyConfigureMdix
                0x9d037bd8       0x54
 .text.EthPhyConfigureMdix
                0x9d037bd8       0x54 build/default/production/_ext/1340694758/ETHPIC32ExtPhyDP83848.o
                0x9d037bd9                EthPhyConfigureMdix

.text.TickInit  0x9d037c2c       0x54
 .text.TickInit
                0x9d037c2c       0x54 build/default/production/_ext/1340694758/Tick.o
                0x9d037c2d                TickInit

.text.kh_alloc_mt
                0x9d037c80       0x54
 .text.kh_alloc_mt
                0x9d037c80       0x54 ..\mruby-1.0.0\build\PICrouter\lib\libmruby.a(class.o)
                0x9d037c81                kh_alloc_mt

.text.mrb_mod_remove_method
                0x9d037cd4       0x54
 .text.mrb_mod_remove_method
                0x9d037cd4       0x54 ..\mruby-1.0.0\build\PICrouter\lib\libmruby.a(class.o)
                0x9d037cd5                mrb_mod_remove_method

.text.mrb_gc_arena_restore
                0x9d037d28       0x54
 .text.mrb_gc_arena_restore
                0x9d037d28       0x54 ..\mruby-1.0.0\build\PICrouter\lib\libmruby.a(gc.o)
                0x9d037d29                mrb_gc_arena_restore

.text.kh_alloc_ht
                0x9d037d7c       0x54
 .text.kh_alloc_ht
                0x9d037d7c       0x54 ..\mruby-1.0.0\build\PICrouter\lib\libmruby.a(hash.o)
                0x9d037d7d                kh_alloc_ht

.text.mrb_hash_delete_key
                0x9d037dd0       0x54
 .text.mrb_hash_delete_key
                0x9d037dd0       0x54 ..\mruby-1.0.0\build\PICrouter\lib\libmruby.a(hash.o)
                0x9d037dd1                mrb_hash_delete_key

.text.init_copy
                0x9d037e24       0x54
 .text.init_copy
                0x9d037e24       0x54 ..\mruby-1.0.0\build\PICrouter\lib\libmruby.a(kernel.o)

.text.read_binary_header
                0x9d037e78       0x54
 .text.read_binary_header
                0x9d037e78       0x54 ..\mruby-1.0.0\build\PICrouter\lib\libmruby.a(load.o)

.text.mrb_proc_initialize
                0x9d037ecc       0x54
 .text.mrb_proc_initialize
                0x9d037ecc       0x54 ..\mruby-1.0.0\build\PICrouter\lib\libmruby.a(proc.o)

.text.mrb_str_rindex
                0x9d037f20       0x54
 .text.mrb_str_rindex
                0x9d037f20       0x54 ..\mruby-1.0.0\build\PICrouter\lib\libmruby.a(string.o)

.text.iv_get    0x9d037f74       0x54
 .text.iv_get   0x9d037f74       0x54 ..\mruby-1.0.0\build\PICrouter\lib\libmruby.a(variable.o)

.text.const_i   0x9d037fc8       0x54
 .text.const_i  0x9d037fc8       0x54 ..\mruby-1.0.0\build\PICrouter\lib\libmruby.a(variable.o)

.text.mrb_class_sym
                0x9d03801c       0x54
 .text.mrb_class_sym
                0x9d03801c       0x54 ..\mruby-1.0.0\build\PICrouter\lib\libmruby.a(variable.o)
                0x9d03801d                mrb_class_sym

.text.cipush    0x9d038070       0x54
 .text.cipush   0x9d038070       0x54 ..\mruby-1.0.0\build\PICrouter\lib\libmruby.a(vm.o)

.text.num_equal
                0x9d0380c4       0x54
 .text.num_equal
                0x9d0380c4       0x54 ..\mruby-1.0.0\build\PICrouter\lib\libmruby.a(numeric.o)

.text.inputDigitalPort
                0x9d038118       0x50
 .text.inputDigitalPort
                0x9d038118       0x50 build/default/production/_ext/454704213/iosetting.o
                0x9d038119                inputDigitalPort

.text.InitAppConfig
                0x9d038168       0x50
 .text.InitAppConfig
                0x9d038168       0x50 build/default/production/_ext/454704213/osc.o
                0x9d038169                InitAppConfig

.text.USBHostDeviceStatus
                0x9d0381b8       0x50
 .text.USBHostDeviceStatus
                0x9d0381b8       0x50 build/default/production/_ext/1798056102/usb_host.o
                0x9d0381b9                USBHostDeviceStatus

.text.mrb_mod_included_modules
                0x9d038208       0x50
 .text.mrb_mod_included_modules
                0x9d038208       0x50 ..\mruby-1.0.0\build\PICrouter\lib\libmruby.a(class.o)

.text.mrb_mod_undef
                0x9d038258       0x50
 .text.mrb_mod_undef
                0x9d038258       0x50 ..\mruby-1.0.0\build\PICrouter\lib\libmruby.a(class.o)
                0x9d038259                mrb_mod_undef

.text.exc_initialize
                0x9d0382a8       0x50
 .text.exc_initialize
                0x9d0382a8       0x50 ..\mruby-1.0.0\build\PICrouter\lib\libmruby.a(error.o)

.text.mrb_proc_init_copy
                0x9d0382f8       0x50
 .text.mrb_proc_init_copy
                0x9d0382f8       0x50 ..\mruby-1.0.0\build\PICrouter\lib\libmruby.a(proc.o)

.text.mrb_top_self
                0x9d038348       0x50
 .text.mrb_top_self
                0x9d038348       0x50 ..\mruby-1.0.0\build\PICrouter\lib\libmruby.a(state.o)
                0x9d038349                mrb_top_self

.text.cv_i      0x9d038398       0x50
 .text.cv_i     0x9d038398       0x50 ..\mruby-1.0.0\build\PICrouter\lib\libmruby.a(variable.o)

.text.iv_i      0x9d0383e8       0x50
 .text.iv_i     0x9d0383e8       0x50 ..\mruby-1.0.0\build\PICrouter\lib\libmruby.a(variable.o)

.text.checkAckI2C
                0x9d038438       0x4c
 .text.checkAckI2C
                0x9d038438       0x4c build/default/production/_ext/454704213/iosetting.o
                0x9d038439                checkAckI2C

.text.extractAddressFromOSCPacket
                0x9d038484       0x4c
 .text.extractAddressFromOSCPacket
                0x9d038484       0x4c build/default/production/_ext/454704213/osc.o

.text.setOSCTypeTag
                0x9d0384d0       0x4c
 .text.setOSCTypeTag
                0x9d0384d0       0x4c build/default/production/_ext/454704213/osc.o
                0x9d0384d1                setOSCTypeTag

.text.DHCPServerInit
                0x9d03851c       0x4c
 .text.DHCPServerInit
                0x9d03851c       0x4c build/default/production/_ext/1340694758/DHCPs.o

.text.EthPhyGetLinkStatus
                0x9d038568       0x4c
 .text.EthPhyGetLinkStatus
                0x9d038568       0x4c build/default/production/_ext/1340694758/ETHPIC32ExtPhy.o
                0x9d038569                EthPhyGetLinkStatus

.text.mDNSTieBreaker
                0x9d0385b4       0x4c
 .text.mDNSTieBreaker
                0x9d0385b4       0x4c build/default/production/_ext/1340694758/ZeroconfMulticastDNS.o

.text._USB_ResetDATA0
                0x9d038600       0x4c
 .text._USB_ResetDATA0
                0x9d038600       0x4c build/default/production/_ext/1798056102/usb_host.o
                0x9d038601                _USB_ResetDATA0

.text.check_const_name_str
                0x9d03864c       0x4c
 .text.check_const_name_str
                0x9d03864c       0x4c ..\mruby-1.0.0\build\PICrouter\lib\libmruby.a(class.o)

.text.mrb_instance_alloc
                0x9d038698       0x4c
 .text.mrb_instance_alloc
                0x9d038698       0x4c ..\mruby-1.0.0\build\PICrouter\lib\libmruby.a(class.o)

.text.mrb_mod_include_p
                0x9d0386e4       0x4c
 .text.mrb_mod_include_p
                0x9d0386e4       0x4c ..\mruby-1.0.0\build\PICrouter\lib\libmruby.a(class.o)

.text.mrb_mod_cvar_set
                0x9d038730       0x4c
 .text.mrb_mod_cvar_set
                0x9d038730       0x4c ..\mruby-1.0.0\build\PICrouter\lib\libmruby.a(class.o)

.text.mrb_mod_const_set
                0x9d03877c       0x4c
 .text.mrb_mod_const_set
                0x9d03877c       0x4c ..\mruby-1.0.0\build\PICrouter\lib\libmruby.a(class.o)
                0x9d03877d                mrb_mod_const_set

.text.mrb_free_heap
                0x9d0387c8       0x4c
 .text.mrb_free_heap
                0x9d0387c8       0x4c ..\mruby-1.0.0\build\PICrouter\lib\libmruby.a(gc.o)
                0x9d0387c9                mrb_free_heap

.text.mrb_f_send
                0x9d038814       0x4c
 .text.mrb_f_send
                0x9d038814       0x4c ..\mruby-1.0.0\build\PICrouter\lib\libmruby.a(kernel.o)

.text.mrb_obj_ivar_set
                0x9d038860       0x4c
 .text.mrb_obj_ivar_set
                0x9d038860       0x4c ..\mruby-1.0.0\build\PICrouter\lib\libmruby.a(kernel.o)
                0x9d038861                mrb_obj_ivar_set

.text.mrb_obj_basic_to_s_p
                0x9d0388ac       0x4c
 .text.mrb_obj_basic_to_s_p
                0x9d0388ac       0x4c ..\mruby-1.0.0\build\PICrouter\lib\libmruby.a(kernel.o)
                0x9d0388ad                mrb_obj_basic_to_s_p

.text.mrb_equal
                0x9d0388f8       0x4c
 .text.mrb_equal
                0x9d0388f8       0x4c ..\mruby-1.0.0\build\PICrouter\lib\libmruby.a(object.o)
                0x9d0388f9                mrb_equal

.text.mrb_eql   0x9d038944       0x4c
 .text.mrb_eql  0x9d038944       0x4c ..\mruby-1.0.0\build\PICrouter\lib\libmruby.a(object.o)
                0x9d038945                mrb_eql

.text.mrb_str_resize
                0x9d038990       0x4c
 .text.mrb_str_resize
                0x9d038990       0x4c ..\mruby-1.0.0\build\PICrouter\lib\libmruby.a(string.o)
                0x9d038991                mrb_str_resize

.text.mrb_string_value_cstr
                0x9d0389dc       0x4c
 .text.mrb_string_value_cstr
                0x9d0389dc       0x4c ..\mruby-1.0.0\build\PICrouter\lib\libmruby.a(string.o)
                0x9d0389dd                mrb_string_value_cstr

.text.kh_alloc_n2s
                0x9d038a28       0x4c
 .text.kh_alloc_n2s
                0x9d038a28       0x4c ..\mruby-1.0.0\build\PICrouter\lib\libmruby.a(symbol.o)
                0x9d038a29                kh_alloc_n2s

.text.mrb_debug_info_free
                0x9d038a74       0x4c
 .text.mrb_debug_info_free
                0x9d038a74       0x4c ..\mruby-1.0.0\build\PICrouter\lib\libmruby.a(debug.o)
                0x9d038a75                mrb_debug_info_free

.text.flo_hash  0x9d038ac0       0x4c
 .text.flo_hash
                0x9d038ac0       0x4c ..\mruby-1.0.0\build\PICrouter\lib\libmruby.a(numeric.o)

.text.flo_finite_p
                0x9d038b0c       0x4c
 .text.flo_finite_p
                0x9d038b0c       0x4c ..\mruby-1.0.0\build\PICrouter\lib\libmruby.a(numeric.o)

.text.range_init
                0x9d038b58       0x4c
 .text.range_init
                0x9d038b58       0x4c ..\mruby-1.0.0\build\PICrouter\lib\libmruby.a(range.o)

.text.EthMIIMConfig
                0x9d038ba4       0x4c
 .text.EthMIIMConfig
                0x9d038ba4       0x4c c:/program files (x86)/microchip/xc32/v1.22/bin/../lib/gcc/pic32mx/4.5.2/../../../../pic32mx/lib/mips16\libmchp_peripheral_32MX795F512H.a(eth_miim_access.o)
                0x9d038ba5                EthMIIMConfig

.text.inputPwmPort
                0x9d038bf0       0x48
 .text.inputPwmPort
                0x9d038bf0       0x48 build/default/production/_ext/454704213/iosetting.o
                0x9d038bf1                inputPwmPort

.text.compareOSCPrefix
                0x9d038c38       0x48
 .text.compareOSCPrefix
                0x9d038c38       0x48 build/default/production/_ext/454704213/osc.o
                0x9d038c39                compareOSCPrefix

.text.DHCPInit  0x9d038c80       0x48
 .text.DHCPInit
                0x9d038c80       0x48 build/default/production/_ext/1340694758/DHCP.o
                0x9d038c81                DHCPInit

.text.MACPutHeader
                0x9d038cc8       0x48
 .text.MACPutHeader
                0x9d038cc8       0x48 build/default/production/_ext/1340694758/ETHPIC32IntMac.o
                0x9d038cc9                MACPutHeader

.text.CalcIPChecksum
                0x9d038d10       0x48
 .text.CalcIPChecksum
                0x9d038d10       0x48 build/default/production/_ext/1340694758/Helpers.o
                0x9d038d11                CalcIPChecksum

.text.UDPGetArray
                0x9d038d58       0x48
 .text.UDPGetArray
                0x9d038d58       0x48 build/default/production/_ext/1340694758/UDP.o
                0x9d038d59                UDPGetArray

.text.mDNSMulticastFilterRegister
                0x9d038da0       0x48
 .text.mDNSMulticastFilterRegister
                0x9d038da0       0x48 build/default/production/_ext/1340694758/ZeroconfMulticastDNS.o
                0x9d038da1                mDNSMulticastFilterRegister

.text.USBConfigureEndpoint
                0x9d038de8       0x48
 .text.USBConfigureEndpoint
                0x9d038de8       0x48 build/default/production/_ext/1798056102/usb_device.o

.text.USBHostSetNAKTimeout
                0x9d038e30       0x48
 .text.USBHostSetNAKTimeout
                0x9d038e30       0x48 build/default/production/_ext/1798056102/usb_host.o
                0x9d038e31                USBHostSetNAKTimeout

.text.mrb_get_port_io_type
                0x9d038e78       0x48
 .text.mrb_get_port_io_type
                0x9d038e78       0x48 build/default/production/picrouter.o
                0x9d038e79                mrb_get_port_io_type

.text.mrb_input_port
                0x9d038ec0       0x48
 .text.mrb_input_port
                0x9d038ec0       0x48 build/default/production/picrouter.o
                0x9d038ec1                mrb_input_port

.text.check_const_name_sym
                0x9d038f08       0x48
 .text.check_const_name_sym
                0x9d038f08       0x48 ..\mruby-1.0.0\build\PICrouter\lib\libmruby.a(class.o)

.text.check_cv_name_str
                0x9d038f50       0x48
 .text.check_cv_name_str
                0x9d038f50       0x48 ..\mruby-1.0.0\build\PICrouter\lib\libmruby.a(class.o)

.text.mrb_mod_const_missing
                0x9d038f98       0x48
 .text.mrb_mod_const_missing
                0x9d038f98       0x48 ..\mruby-1.0.0\build\PICrouter\lib\libmruby.a(class.o)
                0x9d038f99                mrb_mod_const_missing

.text.mrb_mod_extend_object
                0x9d038fe0       0x48
 .text.mrb_mod_extend_object
                0x9d038fe0       0x48 ..\mruby-1.0.0\build\PICrouter\lib\libmruby.a(class.o)

.text.mrb_exc_new
                0x9d039028       0x48
 .text.mrb_exc_new
                0x9d039028       0x48 ..\mruby-1.0.0\build\PICrouter\lib\libmruby.a(error.o)
                0x9d039029                mrb_exc_new

.text.gc_protect
                0x9d039070       0x48
 .text.gc_protect
                0x9d039070       0x48 ..\mruby-1.0.0\build\PICrouter\lib\libmruby.a(gc.o)

.text.add_heap  0x9d0390b8       0x48
 .text.add_heap
                0x9d0390b8       0x48 ..\mruby-1.0.0\build\PICrouter\lib\libmruby.a(gc.o)

.text.mrb_hash_aset
                0x9d039100       0x48
 .text.mrb_hash_aset
                0x9d039100       0x48 ..\mruby-1.0.0\build\PICrouter\lib\libmruby.a(hash.o)
                0x9d039101                mrb_hash_aset

.text.mrb_str_index
                0x9d039148       0x48
 .text.mrb_str_index
                0x9d039148       0x48 ..\mruby-1.0.0\build\PICrouter\lib\libmruby.a(string.o)

.text.mrb_str_new_cstr
                0x9d039190       0x48
 .text.mrb_str_new_cstr
                0x9d039190       0x48 ..\mruby-1.0.0\build\PICrouter\lib\libmruby.a(string.o)
                0x9d039191                mrb_str_new_cstr

.text.mrb_str_cat
                0x9d0391d8       0x48
 .text.mrb_str_cat
                0x9d0391d8       0x48 ..\mruby-1.0.0\build\PICrouter\lib\libmruby.a(string.o)
                0x9d0391d9                mrb_str_cat

.text.mrb_sym2name
                0x9d039220       0x48
 .text.mrb_sym2name
                0x9d039220       0x48 ..\mruby-1.0.0\build\PICrouter\lib\libmruby.a(symbol.o)
                0x9d039221                mrb_sym2name

.text.mrb_obj_iv_ifnone
                0x9d039268       0x48
 .text.mrb_obj_iv_ifnone
                0x9d039268       0x48 ..\mruby-1.0.0\build\PICrouter\lib\libmruby.a(variable.o)
                0x9d039269                mrb_obj_iv_ifnone

.text.mrb_iv_set
                0x9d0392b0       0x48
 .text.mrb_iv_set
                0x9d0392b0       0x48 ..\mruby-1.0.0\build\PICrouter\lib\libmruby.a(variable.o)
                0x9d0392b1                mrb_iv_set

.text.mrb_obj_instance_variables
                0x9d0392f8       0x48
 .text.mrb_obj_instance_variables
                0x9d0392f8       0x48 ..\mruby-1.0.0\build\PICrouter\lib\libmruby.a(variable.o)
                0x9d0392f9                mrb_obj_instance_variables

.text.mrb_mod_constants
                0x9d039340       0x48
 .text.mrb_mod_constants
                0x9d039340       0x48 ..\mruby-1.0.0\build\PICrouter\lib\libmruby.a(variable.o)
                0x9d039341                mrb_mod_constants

.text.ary_concat
                0x9d039388       0x48
 .text.ary_concat
                0x9d039388       0x48 ..\mruby-1.0.0\build\PICrouter\lib\libmruby.a(array.o)

.text.r_gt      0x9d0393d0       0x48
 .text.r_gt     0x9d0393d0       0x48 ..\mruby-1.0.0\build\PICrouter\lib\libmruby.a(range.o)

.rodata         0x9d039418       0x48
 .rodata        0x9d039418       0x48 c:/program files (x86)/microchip/xc32/v1.22/bin/../lib/gcc/pic32mx/4.5.2/../../../../pic32mx/lib/mips16\libmchp_peripheral_32MX795F512H.a(_ports_tbl_libp.o)
                0x9d039418                PortRegTbl

.rodata.f5pow.f5pow
                0x9d039460       0x48
 .rodata.f5pow.f5pow
                0x9d039460       0x48 c:/program files (x86)/microchip/xc32/v1.22/bin/../lib/gcc/pic32mx/4.5.2/../../../../pic32mx/lib/mips16\libe.a(_strtod.o)

.text.ARPProcessRxPkt
                0x9d0394a8       0x44
 .text.ARPProcessRxPkt
                0x9d0394a8       0x44 build/default/production/_ext/1340694758/ARP.o
                0x9d0394a9                ARPProcessRxPkt

.text._LinkReconfigure
                0x9d0394ec       0x44
 .text._LinkReconfigure
                0x9d0394ec       0x44 build/default/production/_ext/1340694758/ETHPIC32IntMac.o

.text.UDPIsGetReady
                0x9d039530       0x44
 .text.UDPIsGetReady
                0x9d039530       0x44 build/default/production/_ext/1340694758/UDP.o
                0x9d039531                UDPIsGetReady

.text.check_cv_name_sym
                0x9d039574       0x44
 .text.check_cv_name_sym
                0x9d039574       0x44 ..\mruby-1.0.0\build\PICrouter\lib\libmruby.a(class.o)

.text.mrb_gc_mark_mt
                0x9d0395b8       0x44
 .text.mrb_gc_mark_mt
                0x9d0395b8       0x44 ..\mruby-1.0.0\build\PICrouter\lib\libmruby.a(class.o)
                0x9d0395b9                mrb_gc_mark_mt

.text.mrb_vm_define_module
                0x9d0395fc       0x44
 .text.mrb_vm_define_module
                0x9d0395fc       0x44 ..\mruby-1.0.0\build\PICrouter\lib\libmruby.a(class.o)
                0x9d0395fd                mrb_vm_define_module

.text.mrb_exc_new_str
                0x9d039640       0x44
 .text.mrb_exc_new_str
                0x9d039640       0x44 ..\mruby-1.0.0\build\PICrouter\lib\libmruby.a(error.o)
                0x9d039641                mrb_exc_new_str

.text.kh_alloc_st
                0x9d039684       0x44
 .text.kh_alloc_st
                0x9d039684       0x44 ..\mruby-1.0.0\build\PICrouter\lib\libmruby.a(kernel.o)
                0x9d039685                kh_alloc_st

.text.method_entry_loop
                0x9d0396c8       0x44
 .text.method_entry_loop
                0x9d0396c8       0x44 ..\mruby-1.0.0\build\PICrouter\lib\libmruby.a(kernel.o)

.text.read_lineno_record
                0x9d03970c       0x44
 .text.read_lineno_record
                0x9d03970c       0x44 ..\mruby-1.0.0\build\PICrouter\lib\libmruby.a(load.o)

.text.mrb_proc_new
                0x9d039750       0x44
 .text.mrb_proc_new
                0x9d039750       0x44 ..\mruby-1.0.0\build\PICrouter\lib\libmruby.a(proc.o)
                0x9d039751                mrb_proc_new

.text.mrb_str_eql
                0x9d039794       0x44
 .text.mrb_str_eql
                0x9d039794       0x44 ..\mruby-1.0.0\build\PICrouter\lib\libmruby.a(string.o)

.text.mrb_iv_remove
                0x9d0397d8       0x44
 .text.mrb_iv_remove
                0x9d0397d8       0x44 ..\mruby-1.0.0\build\PICrouter\lib\libmruby.a(variable.o)
                0x9d0397d9                mrb_iv_remove

.text.ary_shrink_capa
                0x9d03981c       0x44
 .text.ary_shrink_capa
                0x9d03981c       0x44 ..\mruby-1.0.0\build\PICrouter\lib\libmruby.a(array.o)

.text.mrb_ary_join
                0x9d039860       0x44
 .text.mrb_ary_join
                0x9d039860       0x44 ..\mruby-1.0.0\build\PICrouter\lib\libmruby.a(array.o)
                0x9d039861                mrb_ary_join

.text.num_eql   0x9d0398a4       0x44
 .text.num_eql  0x9d0398a4       0x44 ..\mruby-1.0.0\build\PICrouter\lib\libmruby.a(numeric.o)

.text.r_le      0x9d0398e8       0x44
 .text.r_le     0x9d0398e8       0x44 ..\mruby-1.0.0\build\PICrouter\lib\libmruby.a(range.o)

.text.r_ge      0x9d03992c       0x44
 .text.r_ge     0x9d03992c       0x44 ..\mruby-1.0.0\build\PICrouter\lib\libmruby.a(range.o)

.text.write     0x9d039970       0x44
 .text.write    0x9d039970       0x44 c:/program files (x86)/microchip/xc32/v1.22/bin/../lib/gcc/pic32mx/4.5.2/../../../../pic32mx/lib/mips16\libpic32.a(write.o)
                0x9d039971                write

.text.sendSpiOneWord
                0x9d0399b4       0x40
 .text.sendSpiOneWord
                0x9d0399b4       0x40 build/default/production/_ext/454704213/iosetting.o
                0x9d0399b5                sendSpiOneWord

.text.setAddressToI2C
                0x9d0399f4       0x40
 .text.setAddressToI2C
                0x9d0399f4       0x40 build/default/production/_ext/454704213/iosetting.o
                0x9d0399f5                setAddressToI2C

.text.DelayMs   0x9d039a34       0x40
 .text.DelayMs  0x9d039a34       0x40 build/default/production/_ext/454704213/TimeDelay.o
                0x9d039a35                DelayMs

.text.addOSCStringArgument
                0x9d039a74       0x40
 .text.addOSCStringArgument
                0x9d039a74       0x40 build/default/production/_ext/454704213/osc.o
                0x9d039a75                addOSCStringArgument

.text.swapl     0x9d039ab4       0x40
 .text.swapl    0x9d039ab4       0x40 build/default/production/_ext/1340694758/Helpers.o
                0x9d039ab4                swapl

.text.UDPIsPutReady
                0x9d039af4       0x40
 .text.UDPIsPutReady
                0x9d039af4       0x40 build/default/production/_ext/1340694758/UDP.o
                0x9d039af5                UDPIsPutReady

.text.UDPPutArray
                0x9d039b34       0x40
 .text.UDPPutArray
                0x9d039b34       0x40 build/default/production/_ext/1340694758/UDP.o
                0x9d039b35                UDPPutArray

.text.strcmp_local_ignore_case
                0x9d039b74       0x40
 .text.strcmp_local_ignore_case
                0x9d039b74       0x40 build/default/production/_ext/1340694758/ZeroconfMulticastDNS.o

.rodata         0x9d039bb4       0x40
 .rodata        0x9d039bb4       0x40 build/default/production/_ext/1340694758/ZeroconfMulticastDNS.o

.text.mDNSFillHostRecord
                0x9d039bf4       0x40
 .text.mDNSFillHostRecord
                0x9d039bf4       0x40 build/default/production/_ext/1340694758/ZeroconfMulticastDNS.o
                0x9d039bf5                mDNSFillHostRecord

.text.USBHostShutdown
                0x9d039c34       0x40
 .text.USBHostShutdown
                0x9d039c34       0x40 build/default/production/_ext/1798056102/usb_host.o
                0x9d039c35                USBHostShutdown

.text.USBHostCDC_Api_Get_IN_Data
                0x9d039c74       0x40
 .text.USBHostCDC_Api_Get_IN_Data
                0x9d039c74       0x40 build/default/production/_ext/1798056102/usb_host_cdc_interface.o
                0x9d039c75                USBHostCDC_Api_Get_IN_Data

.text.USBHostCDC_Api_Send_OUT_Data
                0x9d039cb4       0x40
 .text.USBHostCDC_Api_Send_OUT_Data
                0x9d039cb4       0x40 build/default/production/_ext/1798056102/usb_host_cdc_interface.o
                0x9d039cb5                USBHostCDC_Api_Send_OUT_Data

.text.USBCBInitEP
                0x9d039cf4       0x40
 .text.USBCBInitEP
                0x9d039cf4       0x40 build/default/production/picrouter.o
                0x9d039cf5                USBCBInitEP

.text.kh_init_mt_size
                0x9d039d34       0x40
 .text.kh_init_mt_size
                0x9d039d34       0x40 ..\mruby-1.0.0\build\PICrouter\lib\libmruby.a(class.o)
                0x9d039d35                kh_init_mt_size

.text.mrb_obj_respond_to
                0x9d039d74       0x40
 .text.mrb_obj_respond_to
                0x9d039d74       0x40 ..\mruby-1.0.0\build\PICrouter\lib\libmruby.a(class.o)
                0x9d039d75                mrb_obj_respond_to

.text.mrb_define_class_id
                0x9d039db4       0x40
 .text.mrb_define_class_id
                0x9d039db4       0x40 ..\mruby-1.0.0\build\PICrouter\lib\libmruby.a(class.o)
                0x9d039db5                mrb_define_class_id

.text.gc_generational_mode_set
                0x9d039df4       0x40
 .text.gc_generational_mode_set
                0x9d039df4       0x40 ..\mruby-1.0.0\build\PICrouter\lib\libmruby.a(gc.o)

.text.mrb_field_write_barrier
                0x9d039e34       0x40
 .text.mrb_field_write_barrier
                0x9d039e34       0x40 ..\mruby-1.0.0\build\PICrouter\lib\libmruby.a(gc.o)
                0x9d039e35                mrb_field_write_barrier

.text.mrb_hash_default_proc
                0x9d039e74       0x40
 .text.mrb_hash_default_proc
                0x9d039e74       0x40 ..\mruby-1.0.0\build\PICrouter\lib\libmruby.a(hash.o)

.text.kh_init_ht_size
                0x9d039eb4       0x40
 .text.kh_init_ht_size
                0x9d039eb4       0x40 ..\mruby-1.0.0\build\PICrouter\lib\libmruby.a(hash.o)
                0x9d039eb5                kh_init_ht_size

.text.kh_init_st_size
                0x9d039ef4       0x40
 .text.kh_init_st_size
                0x9d039ef4       0x40 ..\mruby-1.0.0\build\PICrouter\lib\libmruby.a(kernel.o)
                0x9d039ef5                kh_init_st_size

.text.mrb_obj_methods
                0x9d039f34       0x40
 .text.mrb_obj_methods
                0x9d039f34       0x40 ..\mruby-1.0.0\build\PICrouter\lib\libmruby.a(kernel.o)
                0x9d039f35                mrb_obj_methods

.text.mrb_str_reverse_bang
                0x9d039f74       0x40
 .text.mrb_str_reverse_bang
                0x9d039f74       0x40 ..\mruby-1.0.0\build\PICrouter\lib\libmruby.a(string.o)

.text.mrb_str_plus
                0x9d039fb4       0x40
 .text.mrb_str_plus
                0x9d039fb4       0x40 ..\mruby-1.0.0\build\PICrouter\lib\libmruby.a(string.o)
                0x9d039fb5                mrb_str_plus

.text.mrb_str_cmp
                0x9d039ff4       0x40
 .text.mrb_str_cmp
                0x9d039ff4       0x40 ..\mruby-1.0.0\build\PICrouter\lib\libmruby.a(string.o)
                0x9d039ff5                mrb_str_cmp

.text.kh_init_n2s_size
                0x9d03a034       0x40
 .text.kh_init_n2s_size
                0x9d03a034       0x40 ..\mruby-1.0.0\build\PICrouter\lib\libmruby.a(symbol.o)
                0x9d03a035                kh_init_n2s_size

.text.mrb_mod_class_variables
                0x9d03a074       0x40
 .text.mrb_mod_class_variables
                0x9d03a074       0x40 ..\mruby-1.0.0\build\PICrouter\lib\libmruby.a(variable.o)
                0x9d03a075                mrb_mod_class_variables

.text.mrb_ary_push
                0x9d03a0b4       0x40
 .text.mrb_ary_push
                0x9d03a0b4       0x40 ..\mruby-1.0.0\build\PICrouter\lib\libmruby.a(array.o)
                0x9d03a0b5                mrb_ary_push

.text.mrb_get_backtrace
                0x9d03a0f4       0x40
 .text.mrb_get_backtrace
                0x9d03a0f4       0x40 ..\mruby-1.0.0\build\PICrouter\lib\libmruby.a(backtrace.o)
                0x9d03a0f5                mrb_get_backtrace

.text.mrb_to_flo
                0x9d03a134       0x40
 .text.mrb_to_flo
                0x9d03a134       0x40 ..\mruby-1.0.0\build\PICrouter\lib\libmruby.a(numeric.o)

.text.flo_mod   0x9d03a174       0x40
 .text.flo_mod  0x9d03a174       0x40 ..\mruby-1.0.0\build\PICrouter\lib\libmruby.a(numeric.o)

.text.fix_xor   0x9d03a1b4       0x40
 .text.fix_xor  0x9d03a1b4       0x40 ..\mruby-1.0.0\build\PICrouter\lib\libmruby.a(numeric.o)

.text.fix_or    0x9d03a1f4       0x40
 .text.fix_or   0x9d03a1f4       0x40 ..\mruby-1.0.0\build\PICrouter\lib\libmruby.a(numeric.o)

.text.fix_and   0x9d03a234       0x40
 .text.fix_and  0x9d03a234       0x40 ..\mruby-1.0.0\build\PICrouter\lib\libmruby.a(numeric.o)

.text.strstr    0x9d03a274       0x40
 .text.strstr   0x9d03a274       0x40 c:/program files (x86)/microchip/xc32/v1.22/bin/../lib/gcc/pic32mx/4.5.2/../../../../pic32mx/lib/mips16\libc.a(strstr.o)
                0x9d03a275                strstr

.text.setOSCHostName
                0x9d03a2b4       0x3c
 .text.setOSCHostName
                0x9d03a2b4       0x3c build/default/production/_ext/454704213/osc.o
                0x9d03a2b5                setOSCHostName

.text.clearOSCBundle
                0x9d03a2f0       0x3c
 .text.clearOSCBundle
                0x9d03a2f0       0x3c build/default/production/_ext/454704213/osc.o
                0x9d03a2f1                clearOSCBundle

.text.getStringArgumentAtIndex
                0x9d03a32c       0x3c
 .text.getStringArgumentAtIndex
                0x9d03a32c       0x3c build/default/production/_ext/454704213/osc.o
                0x9d03a32d                getStringArgumentAtIndex

.text.EthPhyConfigureMII
                0x9d03a368       0x3c
 .text.EthPhyConfigureMII
                0x9d03a368       0x3c build/default/production/_ext/1340694758/ETHPIC32ExtPhyDP83848.o
                0x9d03a369                EthPhyConfigureMII

.text.UDPGet    0x9d03a3a4       0x3c
 .text.UDPGet   0x9d03a3a4       0x3c build/default/production/_ext/1340694758/UDP.o
                0x9d03a3a5                UDPGet

.text.zgzc_wait_for
                0x9d03a3e0       0x3c
 .text.zgzc_wait_for
                0x9d03a3e0       0x3c build/default/production/_ext/1340694758/ZeroconfHelper.o
                0x9d03a3e1                zgzc_wait_for

.text._USB_FindEndpoint
                0x9d03a41c       0x3c
 .text._USB_FindEndpoint
                0x9d03a41c       0x3c build/default/production/_ext/1798056102/usb_host.o
                0x9d03a41d                _USB_FindEndpoint

.text.mrb_compare_typetag_at_index
                0x9d03a458       0x3c
 .text.mrb_compare_typetag_at_index
                0x9d03a458       0x3c build/default/production/picrouter.o
                0x9d03a459                mrb_compare_typetag_at_index

.text.mrb_define_method_raw
                0x9d03a494       0x3c
 .text.mrb_define_method_raw
                0x9d03a494       0x3c ..\mruby-1.0.0\build\PICrouter\lib\libmruby.a(class.o)
                0x9d03a495                mrb_define_method_raw

.text.mrb_define_method_vm
                0x9d03a4d0       0x3c
 .text.mrb_define_method_vm
                0x9d03a4d0       0x3c ..\mruby-1.0.0\build\PICrouter\lib\libmruby.a(class.o)
                0x9d03a4d1                mrb_define_method_vm

.text.mrb_mod_append_features
                0x9d03a50c       0x3c
 .text.mrb_mod_append_features
                0x9d03a50c       0x3c ..\mruby-1.0.0\build\PICrouter\lib\libmruby.a(class.o)

.text.mrb_method_search_vm
                0x9d03a548       0x3c
 .text.mrb_method_search_vm
                0x9d03a548       0x3c ..\mruby-1.0.0\build\PICrouter\lib\libmruby.a(class.o)
                0x9d03a549                mrb_method_search_vm

.text.mrb_define_module_id
                0x9d03a584       0x3c
 .text.mrb_define_module_id
                0x9d03a584       0x3c ..\mruby-1.0.0\build\PICrouter\lib\libmruby.a(class.o)
                0x9d03a585                mrb_define_module_id

.text.mrb_hash_new_capa
                0x9d03a5c0       0x3c
 .text.mrb_hash_new_capa
                0x9d03a5c0       0x3c ..\mruby-1.0.0\build\PICrouter\lib\libmruby.a(hash.o)
                0x9d03a5c1                mrb_hash_new_capa

.text.valid_iv_name
                0x9d03a5fc       0x3c
 .text.valid_iv_name
                0x9d03a5fc       0x3c ..\mruby-1.0.0\build\PICrouter\lib\libmruby.a(kernel.o)

.text.mrb_obj_public_methods
                0x9d03a638       0x3c
 .text.mrb_obj_public_methods
                0x9d03a638       0x3c ..\mruby-1.0.0\build\PICrouter\lib\libmruby.a(kernel.o)
                0x9d03a639                mrb_obj_public_methods

.text.mrb_obj_protected_methods
                0x9d03a674       0x3c
 .text.mrb_obj_protected_methods
                0x9d03a674       0x3c ..\mruby-1.0.0\build\PICrouter\lib\libmruby.a(kernel.o)
                0x9d03a675                mrb_obj_protected_methods

.text.mrb_obj_private_methods
                0x9d03a6b0       0x3c
 .text.mrb_obj_private_methods
                0x9d03a6b0       0x3c ..\mruby-1.0.0\build\PICrouter\lib\libmruby.a(kernel.o)
                0x9d03a6b1                mrb_obj_private_methods

.text.mrb_obj_methods_m
                0x9d03a6ec       0x3c
 .text.mrb_obj_methods_m
                0x9d03a6ec       0x3c ..\mruby-1.0.0\build\PICrouter\lib\libmruby.a(kernel.o)
                0x9d03a6ed                mrb_obj_methods_m

.rodata         0x9d03a728       0x3c
 .rodata        0x9d03a728       0x3c ..\mruby-1.0.0\build\PICrouter\lib\libmruby.a(load.o)

.text.mrb_p     0x9d03a764       0x3c
 .text.mrb_p    0x9d03a764       0x3c ..\mruby-1.0.0\build\PICrouter\lib\libmruby.a(print.o)
                0x9d03a765                mrb_p

.text.mrb_close
                0x9d03a7a0       0x3c
 .text.mrb_close
                0x9d03a7a0       0x3c ..\mruby-1.0.0\build\PICrouter\lib\libmruby.a(state.o)
                0x9d03a7a1                mrb_close

.text.str_new   0x9d03a7dc       0x3c
 .text.str_new  0x9d03a7dc       0x3c ..\mruby-1.0.0\build\PICrouter\lib\libmruby.a(string.o)

.text.mrb_str_buf_new
                0x9d03a818       0x3c
 .text.mrb_str_buf_new
                0x9d03a818       0x3c ..\mruby-1.0.0\build\PICrouter\lib\libmruby.a(string.o)
                0x9d03a819                mrb_str_buf_new

.text.mrb_str_new_static
                0x9d03a854       0x3c
 .text.mrb_str_new_static
                0x9d03a854       0x3c ..\mruby-1.0.0\build\PICrouter\lib\libmruby.a(string.o)
                0x9d03a855                mrb_str_new_static

.text.mod_const_check
                0x9d03a890       0x3c
 .text.mod_const_check
                0x9d03a890       0x3c ..\mruby-1.0.0\build\PICrouter\lib\libmruby.a(variable.o)

.text.mrb_obj_iv_set
                0x9d03a8cc       0x3c
 .text.mrb_obj_iv_set
                0x9d03a8cc       0x3c ..\mruby-1.0.0\build\PICrouter\lib\libmruby.a(variable.o)
                0x9d03a8cd                mrb_obj_iv_set

.text.cipop     0x9d03a908       0x3c
 .text.cipop    0x9d03a908       0x3c ..\mruby-1.0.0\build\PICrouter\lib\libmruby.a(vm.o)

.text.stack_extend
                0x9d03a944       0x3c
 .text.stack_extend
                0x9d03a944       0x3c ..\mruby-1.0.0\build\PICrouter\lib\libmruby.a(vm.o)

.text.mrb_funcall_argv
                0x9d03a980       0x3c
 .text.mrb_funcall_argv
                0x9d03a980       0x3c ..\mruby-1.0.0\build\PICrouter\lib\libmruby.a(vm.o)
                0x9d03a981                mrb_funcall_argv

.text.mrb_ary_new_from_values
                0x9d03a9bc       0x3c
 .text.mrb_ary_new_from_values
                0x9d03a9bc       0x3c ..\mruby-1.0.0\build\PICrouter\lib\libmruby.a(array.o)
                0x9d03a9bd                mrb_ary_new_from_values

.text.mrb_ary_inspect
                0x9d03a9f8       0x3c
 .text.mrb_ary_inspect
                0x9d03a9f8       0x3c ..\mruby-1.0.0\build\PICrouter\lib\libmruby.a(array.o)

.text.flo_mul   0x9d03aa34       0x3c
 .text.flo_mul  0x9d03aa34       0x3c ..\mruby-1.0.0\build\PICrouter\lib\libmruby.a(numeric.o)

.text.flo_minus
                0x9d03aa70       0x3c
 .text.flo_minus
                0x9d03aa70       0x3c ..\mruby-1.0.0\build\PICrouter\lib\libmruby.a(numeric.o)

.text.memcmp    0x9d03aaac       0x3c
 .text.memcmp   0x9d03aaac       0x3c c:/program files (x86)/microchip/xc32/v1.22/bin/../lib/gcc/pic32mx/4.5.2/../../../../pic32mx/lib/mips16\libc.a(memcmp.o)
                0x9d03aaad                memcmp

.text.raise     0x9d03aae8       0x3c
 .text.raise    0x9d03aae8       0x3c c:/program files (x86)/microchip/xc32/v1.22/bin/../lib/gcc/pic32mx/4.5.2/../../../../pic32mx/lib/mips16\libc.a(signal.o)
                0x9d03aae9                raise

.text.strncmp   0x9d03ab24       0x3c
 .text.strncmp  0x9d03ab24       0x3c c:/program files (x86)/microchip/xc32/v1.22/bin/../lib/gcc/pic32mx/4.5.2/../../../../pic32mx/lib/mips16\libc.a(strncmp.o)
                0x9d03ab25                strncmp

.text.getIndexByMacaddr_DhcpPool
                0x9d03ab60       0x38
 .text.getIndexByMacaddr_DhcpPool
                0x9d03ab60       0x38 build/default/production/_ext/1340694758/DHCPs.o

.text.UDPPut    0x9d03ab98       0x38
 .text.UDPPut   0x9d03ab98       0x38 build/default/production/_ext/1340694758/UDP.o
                0x9d03ab99                UDPPut

.text.ZeroconfLLInitialize
                0x9d03abd0       0x38
 .text.ZeroconfLLInitialize
                0x9d03abd0       0x38 build/default/production/_ext/1340694758/ZeroconfLinkLocal.o
                0x9d03abd1                ZeroconfLLInitialize

.text.USBEnableEndpoint
                0x9d03ac08       0x38
 .text.USBEnableEndpoint
                0x9d03ac08       0x38 build/default/production/_ext/1798056102/usb_device.o
                0x9d03ac09                USBEnableEndpoint

.text.USBHostClearEndpointErrors
                0x9d03ac40       0x38
 .text.USBHostClearEndpointErrors
                0x9d03ac40       0x38 build/default/production/_ext/1798056102/usb_host.o
                0x9d03ac41                USBHostClearEndpointErrors

.text.USBHostCDCTransferIsComplete
                0x9d03ac78       0x38
 .text.USBHostCDCTransferIsComplete
                0x9d03ac78       0x38 build/default/production/_ext/1798056102/usb_host_cdc.o
                0x9d03ac79                USBHostCDCTransferIsComplete

.text.mrb_name_class
                0x9d03acb0       0x38
 .text.mrb_name_class
                0x9d03acb0       0x38 ..\mruby-1.0.0\build\PICrouter\lib\libmruby.a(class.o)
                0x9d03acb1                mrb_name_class

.text.mrb_mod_instance_methods
                0x9d03ace8       0x38
 .text.mrb_mod_instance_methods
                0x9d03ace8       0x38 ..\mruby-1.0.0\build\PICrouter\lib\libmruby.a(class.o)

.text.mrb_mod_cvar_get
                0x9d03ad20       0x38
 .text.mrb_mod_cvar_get
                0x9d03ad20       0x38 ..\mruby-1.0.0\build\PICrouter\lib\libmruby.a(class.o)

.text.mrb_mod_const_get
                0x9d03ad58       0x38
 .text.mrb_mod_const_get
                0x9d03ad58       0x38 ..\mruby-1.0.0\build\PICrouter\lib\libmruby.a(class.o)
                0x9d03ad59                mrb_mod_const_get

.text.mrb_mod_alias
                0x9d03ad90       0x38
 .text.mrb_mod_alias
                0x9d03ad90       0x38 ..\mruby-1.0.0\build\PICrouter\lib\libmruby.a(class.o)
                0x9d03ad91                mrb_mod_alias

.text.mrb_raisef
                0x9d03adc8       0x38
 .text.mrb_raisef
                0x9d03adc8       0x38 ..\mruby-1.0.0\build\PICrouter\lib\libmruby.a(error.o)
                0x9d03adc9                mrb_raisef

.text.incremental_gc_step
                0x9d03ae00       0x38
 .text.incremental_gc_step
                0x9d03ae00       0x38 ..\mruby-1.0.0\build\PICrouter\lib\libmruby.a(gc.o)

.text.mrb_calloc
                0x9d03ae38       0x38
 .text.mrb_calloc
                0x9d03ae38       0x38 ..\mruby-1.0.0\build\PICrouter\lib\libmruby.a(gc.o)
                0x9d03ae39                mrb_calloc

.text.mrb_hash_eql
                0x9d03ae70       0x38
 .text.mrb_hash_eql
                0x9d03ae70       0x38 ..\mruby-1.0.0\build\PICrouter\lib\libmruby.a(hash.o)

.text.mrb_hash_equal
                0x9d03aea8       0x38
 .text.mrb_hash_equal
                0x9d03aea8       0x38 ..\mruby-1.0.0\build\PICrouter\lib\libmruby.a(hash.o)

.text.mrb_hash_has_keyWithKey
                0x9d03aee0       0x38
 .text.mrb_hash_has_keyWithKey
                0x9d03aee0       0x38 ..\mruby-1.0.0\build\PICrouter\lib\libmruby.a(hash.o)

.text.mrb_equal_m
                0x9d03af18       0x38
 .text.mrb_equal_m
                0x9d03af18       0x38 ..\mruby-1.0.0\build\PICrouter\lib\libmruby.a(kernel.o)

.text.mrb_obj_not_equal_m
                0x9d03af50       0x38
 .text.mrb_obj_not_equal_m
                0x9d03af50       0x38 ..\mruby-1.0.0\build\PICrouter\lib\libmruby.a(kernel.o)

.text.mrb_obj_equal_m
                0x9d03af88       0x38
 .text.mrb_obj_equal_m
                0x9d03af88       0x38 ..\mruby-1.0.0\build\PICrouter\lib\libmruby.a(kernel.o)

.text.get_valid_iv_sym
                0x9d03afc0       0x38
 .text.get_valid_iv_sym
                0x9d03afc0       0x38 ..\mruby-1.0.0\build\PICrouter\lib\libmruby.a(kernel.o)

.text.mrb_obj_ivar_defined
                0x9d03aff8       0x38
 .text.mrb_obj_ivar_defined
                0x9d03aff8       0x38 ..\mruby-1.0.0\build\PICrouter\lib\libmruby.a(kernel.o)
                0x9d03aff9                mrb_obj_ivar_defined

.text.mrb_obj_extend_m
                0x9d03b030       0x38
 .text.mrb_obj_extend_m
                0x9d03b030       0x38 ..\mruby-1.0.0\build\PICrouter\lib\libmruby.a(kernel.o)
                0x9d03b031                mrb_obj_extend_m

.text.mrb_obj_inspect
                0x9d03b068       0x38
 .text.mrb_obj_inspect
                0x9d03b068       0x38 ..\mruby-1.0.0\build\PICrouter\lib\libmruby.a(kernel.o)
                0x9d03b069                mrb_obj_inspect

.text.mrb_obj_singleton_methods_m
                0x9d03b0a0       0x38
 .text.mrb_obj_singleton_methods_m
                0x9d03b0a0       0x38 ..\mruby-1.0.0\build\PICrouter\lib\libmruby.a(kernel.o)
                0x9d03b0a1                mrb_obj_singleton_methods_m

.text.inspect_type
                0x9d03b0d8       0x38
 .text.inspect_type
                0x9d03b0d8       0x38 ..\mruby-1.0.0\build\PICrouter\lib\libmruby.a(object.o)

.text.mrb_proc_arity
                0x9d03b110       0x38
 .text.mrb_proc_arity
                0x9d03b110       0x38 ..\mruby-1.0.0\build\PICrouter\lib\libmruby.a(proc.o)

.text.mrb_str_init
                0x9d03b148       0x38
 .text.mrb_str_init
                0x9d03b148       0x38 ..\mruby-1.0.0\build\PICrouter\lib\libmruby.a(string.o)

.text.mrb_str_equal_m
                0x9d03b180       0x38
 .text.mrb_str_equal_m
                0x9d03b180       0x38 ..\mruby-1.0.0\build\PICrouter\lib\libmruby.a(string.o)

.text.mrb_str_to_s
                0x9d03b1b8       0x38
 .text.mrb_str_to_s
                0x9d03b1b8       0x38 ..\mruby-1.0.0\build\PICrouter\lib\libmruby.a(string.o)

.text.sym_equal
                0x9d03b1f0       0x38
 .text.sym_equal
                0x9d03b1f0       0x38 ..\mruby-1.0.0\build\PICrouter\lib\libmruby.a(symbol.o)

.text.mrb_vm_iv_set
                0x9d03b228       0x38
 .text.mrb_vm_iv_set
                0x9d03b228       0x38 ..\mruby-1.0.0\build\PICrouter\lib\libmruby.a(variable.o)
                0x9d03b229                mrb_vm_iv_set

.text.mrb_gv_get
                0x9d03b260       0x38
 .text.mrb_gv_get
                0x9d03b260       0x38 ..\mruby-1.0.0\build\PICrouter\lib\libmruby.a(variable.o)
                0x9d03b261                mrb_gv_get

.text.ary_elt   0x9d03b298       0x38
 .text.ary_elt  0x9d03b298       0x38 ..\mruby-1.0.0\build\PICrouter\lib\libmruby.a(array.o)

.text.mrb_ary_ref
                0x9d03b2d0       0x38
 .text.mrb_ary_ref
                0x9d03b2d0       0x38 ..\mruby-1.0.0\build\PICrouter\lib\libmruby.a(array.o)
                0x9d03b2d1                mrb_ary_ref

.text.mrb_ary_replace_m
                0x9d03b308       0x38
 .text.mrb_ary_replace_m
                0x9d03b308       0x38 ..\mruby-1.0.0\build\PICrouter\lib\libmruby.a(array.o)
                0x9d03b309                mrb_ary_replace_m

.text.mrb_ary_join_m
                0x9d03b340       0x38
 .text.mrb_ary_join_m
                0x9d03b340       0x38 ..\mruby-1.0.0\build\PICrouter\lib\libmruby.a(array.o)

.text.num_div   0x9d03b378       0x38
 .text.num_div  0x9d03b378       0x38 ..\mruby-1.0.0\build\PICrouter\lib\libmruby.a(numeric.o)

.text           0x9d03b3b0       0x34
 .text          0x9d03b3b0       0x34 c:/program files (x86)/microchip/xc32/v1.22/bin/../lib/gcc/pic32mx/4.5.2/../../../../pic32mx/lib/mips16/crt0.o
                0x9d03b3dc                __crt0_exit

.text.stopI2C   0x9d03b3e4       0x34
 .text.stopI2C  0x9d03b3e4       0x34 build/default/production/_ext/454704213/iosetting.o
                0x9d03b3e5                stopI2C

.text.ARPRegisterCallbacks
                0x9d03b418       0x34
 .text.ARPRegisterCallbacks
                0x9d03b418       0x34 build/default/production/_ext/1340694758/ARP.o
                0x9d03b419                ARPRegisterCallbacks

.text.EthPhyRestartNegotiation
                0x9d03b44c       0x34
 .text.EthPhyRestartNegotiation
                0x9d03b44c       0x34 build/default/production/_ext/1340694758/ETHPIC32ExtPhy.o
                0x9d03b44d                EthPhyRestartNegotiation

.text.UDPDiscard
                0x9d03b480       0x34
 .text.UDPDiscard
                0x9d03b480       0x34 build/default/production/_ext/1340694758/UDP.o
                0x9d03b481                UDPDiscard

.text.USBWakeFromSuspend
                0x9d03b4b4       0x34
 .text.USBWakeFromSuspend
                0x9d03b4b4       0x34 build/default/production/_ext/1798056102/usb_device.o

.text.mrb_compare_osc_address
                0x9d03b4e8       0x34
 .text.mrb_compare_osc_address
                0x9d03b4e8       0x34 build/default/production/picrouter.o
                0x9d03b4e9                mrb_compare_osc_address

.text.mrb_compare_osc_prefix
                0x9d03b51c       0x34
 .text.mrb_compare_osc_prefix
                0x9d03b51c       0x34 build/default/production/picrouter.o
                0x9d03b51d                mrb_compare_osc_prefix

.text.mrb_define_method_id
                0x9d03b550       0x34
 .text.mrb_define_method_id
                0x9d03b550       0x34 ..\mruby-1.0.0\build\PICrouter\lib\libmruby.a(class.o)
                0x9d03b551                mrb_define_method_id

.text.mrb_hash_has_value
                0x9d03b584       0x34
 .text.mrb_hash_has_value
                0x9d03b584       0x34 ..\mruby-1.0.0\build\PICrouter\lib\libmruby.a(hash.o)

.text.mrb_hash_has_key
                0x9d03b5b8       0x34
 .text.mrb_hash_has_key
                0x9d03b5b8       0x34 ..\mruby-1.0.0\build\PICrouter\lib\libmruby.a(hash.o)

.text.mrb_hash_aget
                0x9d03b5ec       0x34
 .text.mrb_hash_aget
                0x9d03b5ec       0x34 ..\mruby-1.0.0\build\PICrouter\lib\libmruby.a(hash.o)
                0x9d03b5ed                mrb_hash_aget

.text.mrb_hash_delete
                0x9d03b620       0x34
 .text.mrb_hash_delete
                0x9d03b620       0x34 ..\mruby-1.0.0\build\PICrouter\lib\libmruby.a(hash.o)
                0x9d03b621                mrb_hash_delete

.text.mrb_obj_ivar_get
                0x9d03b654       0x34
 .text.mrb_obj_ivar_get
                0x9d03b654       0x34 ..\mruby-1.0.0\build\PICrouter\lib\libmruby.a(kernel.o)
                0x9d03b655                mrb_obj_ivar_get

.text.mrb_proc_copy
                0x9d03b688       0x34
 .text.mrb_proc_copy
                0x9d03b688       0x34 ..\mruby-1.0.0\build\PICrouter\lib\libmruby.a(proc.o)
                0x9d03b689                mrb_proc_copy

.text.mrb_free_context
                0x9d03b6bc       0x34
 .text.mrb_free_context
                0x9d03b6bc       0x34 ..\mruby-1.0.0\build\PICrouter\lib\libmruby.a(state.o)
                0x9d03b6bd                mrb_free_context

.text.mrb_str_plus_m
                0x9d03b6f0       0x34
 .text.mrb_str_plus_m
                0x9d03b6f0       0x34 ..\mruby-1.0.0\build\PICrouter\lib\libmruby.a(string.o)

.text.mrb_str_upcase
                0x9d03b724       0x34
 .text.mrb_str_upcase
                0x9d03b724       0x34 ..\mruby-1.0.0\build\PICrouter\lib\libmruby.a(string.o)

.text.mrb_str_downcase
                0x9d03b758       0x34
 .text.mrb_str_downcase
                0x9d03b758       0x34 ..\mruby-1.0.0\build\PICrouter\lib\libmruby.a(string.o)

.text.mrb_str_chop
                0x9d03b78c       0x34
 .text.mrb_str_chop
                0x9d03b78c       0x34 ..\mruby-1.0.0\build\PICrouter\lib\libmruby.a(string.o)

.text.mrb_str_chomp
                0x9d03b7c0       0x34
 .text.mrb_str_chomp
                0x9d03b7c0       0x34 ..\mruby-1.0.0\build\PICrouter\lib\libmruby.a(string.o)

.text.mrb_str_capitalize
                0x9d03b7f4       0x34
 .text.mrb_str_capitalize
                0x9d03b7f4       0x34 ..\mruby-1.0.0\build\PICrouter\lib\libmruby.a(string.o)

.text.gv_i      0x9d03b828       0x34
 .text.gv_i     0x9d03b828       0x34 ..\mruby-1.0.0\build\PICrouter\lib\libmruby.a(variable.o)

.text.stack_init
                0x9d03b85c       0x34
 .text.stack_init
                0x9d03b85c       0x34 ..\mruby-1.0.0\build\PICrouter\lib\libmruby.a(vm.o)

.text.ary_replace
                0x9d03b890       0x34
 .text.ary_replace
                0x9d03b890       0x34 ..\mruby-1.0.0\build\PICrouter\lib\libmruby.a(array.o)

.text.mrb_ary_concat_m
                0x9d03b8c4       0x34
 .text.mrb_ary_concat_m
                0x9d03b8c4       0x34 ..\mruby-1.0.0\build\PICrouter\lib\libmruby.a(array.o)
                0x9d03b8c5                mrb_ary_concat_m

.text.calc_crc_16_ccitt
                0x9d03b8f8       0x34
 .text.calc_crc_16_ccitt
                0x9d03b8f8       0x34 ..\mruby-1.0.0\build\PICrouter\lib\libmruby.a(crc.o)
                0x9d03b8f9                calc_crc_16_ccitt

.text.fix_mul   0x9d03b92c       0x34
 .text.fix_mul  0x9d03b92c       0x34 ..\mruby-1.0.0\build\PICrouter\lib\libmruby.a(numeric.o)

.text.fix_plus  0x9d03b960       0x34
 .text.fix_plus
                0x9d03b960       0x34 ..\mruby-1.0.0\build\PICrouter\lib\libmruby.a(numeric.o)

.text.fix_minus
                0x9d03b994       0x34
 .text.fix_minus
                0x9d03b994       0x34 ..\mruby-1.0.0\build\PICrouter\lib\libmruby.a(numeric.o)

.text.EthMACSetAddress
                0x9d03b9c8       0x34
 .text.EthMACSetAddress
                0x9d03b9c8       0x34 c:/program files (x86)/microchip/xc32/v1.22/bin/../lib/gcc/pic32mx/4.5.2/../../../../pic32mx/lib/mips16\libmchp_peripheral_32MX795F512H.a(eth_mac_set_address_max_lib.o)
                0x9d03b9c9                EthMACSetAddress

.text.INTEnableSystemMultiVectoredInt
                0x9d03b9fc       0x34
 .text.INTEnableSystemMultiVectoredInt
                0x9d03b9fc       0x34 c:/program files (x86)/microchip/xc32/v1.22/bin/../lib/gcc/pic32mx/4.5.2/../../../../pic32mx/lib/mips16\libmchp_peripheral_32MX795F512H.a(int_enable_mv_int_lib.o)
                0x9d03b9fc                INTEnableSystemMultiVectoredInt

.text.ftell     0x9d03ba30       0x34
 .text.ftell    0x9d03ba30       0x34 c:/program files (x86)/microchip/xc32/v1.22/bin/../lib/gcc/pic32mx/4.5.2/../../../../pic32mx/lib/mips16\libc.a(fseek.o)
                0x9d03ba31                ftell

.text.memmove   0x9d03ba64       0x34
 .text.memmove  0x9d03ba64       0x34 c:/program files (x86)/microchip/xc32/v1.22/bin/../lib/gcc/pic32mx/4.5.2/../../../../pic32mx/lib/mips16\libc.a(memmove.o)
                0x9d03ba65                memmove

.text.exit      0x9d03ba98       0x34
 .text.exit     0x9d03ba98       0x34 c:/program files (x86)/microchip/xc32/v1.22/bin/../lib/gcc/pic32mx/4.5.2/../../../../pic32mx/lib/mips16\libc.a(exit.o)
                0x9d03ba98                exit

.text.setDataToI2C
                0x9d03bacc       0x30
 .text.setDataToI2C
                0x9d03bacc       0x30 build/default/production/_ext/454704213/iosetting.o
                0x9d03bacd                setDataToI2C

.text.Delay10us
                0x9d03bafc       0x30
 .text.Delay10us
                0x9d03bafc       0x30 build/default/production/_ext/454704213/TimeDelay.o
                0x9d03bafd                Delay10us

.text.flushOSCMessage
                0x9d03bb2c       0x30
 .text.flushOSCMessage
                0x9d03bb2c       0x30 build/default/production/_ext/454704213/osc.o
                0x9d03bb2d                flushOSCMessage

.text.isIpAddrInPool
                0x9d03bb5c       0x30
 .text.isIpAddrInPool
                0x9d03bb5c       0x30 build/default/production/_ext/1340694758/DHCPs.o

.text.USBSuspend
                0x9d03bb8c       0x30
 .text.USBSuspend
                0x9d03bb8c       0x30 build/default/production/_ext/1798056102/usb_device.o

.text.mrb_get_string_arg_at_index
                0x9d03bbbc       0x30
 .text.mrb_get_string_arg_at_index
                0x9d03bbbc       0x30 build/default/production/picrouter.o
                0x9d03bbbd                mrb_get_string_arg_at_index

.text.mrb_get_float_arg_at_index
                0x9d03bbec       0x30
 .text.mrb_get_float_arg_at_index
                0x9d03bbec       0x30 build/default/production/picrouter.o
                0x9d03bbed                mrb_get_float_arg_at_index

.text.mrb_set_osc_address
                0x9d03bc1c       0x30
 .text.mrb_set_osc_address
                0x9d03bc1c       0x30 build/default/production/picrouter.o
                0x9d03bc1d                mrb_set_osc_address

.text.mrb_class_superclass
                0x9d03bc4c       0x30
 .text.mrb_class_superclass
                0x9d03bc4c       0x30 ..\mruby-1.0.0\build\PICrouter\lib\libmruby.a(class.o)
                0x9d03bc4d                mrb_class_superclass

.text.boot_defclass
                0x9d03bc7c       0x30
 .text.boot_defclass
                0x9d03bc7c       0x30 ..\mruby-1.0.0\build\PICrouter\lib\libmruby.a(class.o)

.text.mrb_class_outer_module
                0x9d03bcac       0x30
 .text.mrb_class_outer_module
                0x9d03bcac       0x30 ..\mruby-1.0.0\build\PICrouter\lib\libmruby.a(class.o)
                0x9d03bcad                mrb_class_outer_module

.text.mrb_mod_s_constants
                0x9d03bcdc       0x30
 .text.mrb_mod_s_constants
                0x9d03bcdc       0x30 ..\mruby-1.0.0\build\PICrouter\lib\libmruby.a(class.o)

.text.mrb_mod_eqq
                0x9d03bd0c       0x30
 .text.mrb_mod_eqq
                0x9d03bd0c       0x30 ..\mruby-1.0.0\build\PICrouter\lib\libmruby.a(class.o)

.text.mrb_alias_method
                0x9d03bd3c       0x30
 .text.mrb_alias_method
                0x9d03bd3c       0x30 ..\mruby-1.0.0\build\PICrouter\lib\libmruby.a(class.o)
                0x9d03bd3d                mrb_alias_method

.text.set_backtrace
                0x9d03bd6c       0x30
 .text.set_backtrace
                0x9d03bd6c       0x30 ..\mruby-1.0.0\build\PICrouter\lib\libmruby.a(error.o)

.text.mrb_raise
                0x9d03bd9c       0x30
 .text.mrb_raise
                0x9d03bd9c       0x30 ..\mruby-1.0.0\build\PICrouter\lib\libmruby.a(error.o)
                0x9d03bd9d                mrb_raise

.text.mrb_realloc_simple
                0x9d03bdcc       0x30
 .text.mrb_realloc_simple
                0x9d03bdcc       0x30 ..\mruby-1.0.0\build\PICrouter\lib\libmruby.a(gc.o)
                0x9d03bdcd                mrb_realloc_simple

.text.mrb_hash_inspect
                0x9d03bdfc       0x30
 .text.mrb_hash_inspect
                0x9d03bdfc       0x30 ..\mruby-1.0.0\build\PICrouter\lib\libmruby.a(hash.o)

.text.mrb_hash_ht_hash_func
                0x9d03be2c       0x30
 .text.mrb_hash_ht_hash_func
                0x9d03be2c       0x30 ..\mruby-1.0.0\build\PICrouter\lib\libmruby.a(hash.o)

.text.mrb_obj_is_kind_of_m
                0x9d03be5c       0x30
 .text.mrb_obj_is_kind_of_m
                0x9d03be5c       0x30 ..\mruby-1.0.0\build\PICrouter\lib\libmruby.a(kernel.o)
                0x9d03be5d                mrb_obj_is_kind_of_m

.text.obj_is_instance_of
                0x9d03be8c       0x30
 .text.obj_is_instance_of
                0x9d03be8c       0x30 ..\mruby-1.0.0\build\PICrouter\lib\libmruby.a(kernel.o)

.text.mrb_inspect
                0x9d03bebc       0x30
 .text.mrb_inspect
                0x9d03bebc       0x30 ..\mruby-1.0.0\build\PICrouter\lib\libmruby.a(object.o)
                0x9d03bebd                mrb_inspect

.text.noregexp  0x9d03beec       0x30
 .text.noregexp
                0x9d03beec       0x30 ..\mruby-1.0.0\build\PICrouter\lib\libmruby.a(string.o)

.text.mrb_str_buf_cat
                0x9d03bf1c       0x30
 .text.mrb_str_buf_cat
                0x9d03bf1c       0x30 ..\mruby-1.0.0\build\PICrouter\lib\libmruby.a(string.o)
                0x9d03bf1d                mrb_str_buf_cat

.text.mrb_str_append
                0x9d03bf4c       0x30
 .text.mrb_str_append
                0x9d03bf4c       0x30 ..\mruby-1.0.0\build\PICrouter\lib\libmruby.a(string.o)
                0x9d03bf4d                mrb_str_append

.text.mrb_sym2str
                0x9d03bf7c       0x30
 .text.mrb_sym2str
                0x9d03bf7c       0x30 ..\mruby-1.0.0\build\PICrouter\lib\libmruby.a(symbol.o)
                0x9d03bf7d                mrb_sym2str

.text.mrb_obj_iv_get
                0x9d03bfac       0x30
 .text.mrb_obj_iv_get
                0x9d03bfac       0x30 ..\mruby-1.0.0\build\PICrouter\lib\libmruby.a(variable.o)
                0x9d03bfad                mrb_obj_iv_get

.text.mrb_iv_get
                0x9d03bfdc       0x30
 .text.mrb_iv_get
                0x9d03bfdc       0x30 ..\mruby-1.0.0\build\PICrouter\lib\libmruby.a(variable.o)
                0x9d03bfdd                mrb_iv_get

.text.mrb_vm_iv_get
                0x9d03c00c       0x30
 .text.mrb_vm_iv_get
                0x9d03c00c       0x30 ..\mruby-1.0.0\build\PICrouter\lib\libmruby.a(variable.o)
                0x9d03c00d                mrb_vm_iv_get

.text.mrb_gv_set
                0x9d03c03c       0x30
 .text.mrb_gv_set
                0x9d03c03c       0x30 ..\mruby-1.0.0\build\PICrouter\lib\libmruby.a(variable.o)
                0x9d03c03d                mrb_gv_set

.text.is_strict
                0x9d03c06c       0x30
 .text.is_strict
                0x9d03c06c       0x30 ..\mruby-1.0.0\build\PICrouter\lib\libmruby.a(vm.o)

.text.mrb_ary_clear
                0x9d03c09c       0x30
 .text.mrb_ary_clear
                0x9d03c09c       0x30 ..\mruby-1.0.0\build\PICrouter\lib\libmruby.a(array.o)
                0x9d03c09d                mrb_ary_clear

.text.flo_plus  0x9d03c0cc       0x30
 .text.flo_plus
                0x9d03c0cc       0x30 ..\mruby-1.0.0\build\PICrouter\lib\libmruby.a(numeric.o)

.text.fix_shift_get_width
                0x9d03c0fc       0x30
 .text.fix_shift_get_width
                0x9d03c0fc       0x30 ..\mruby-1.0.0\build\PICrouter\lib\libmruby.a(numeric.o)

.text.fix_to_s  0x9d03c12c       0x30
 .text.fix_to_s
                0x9d03c12c       0x30 ..\mruby-1.0.0\build\PICrouter\lib\libmruby.a(numeric.o)

.text._ssize.clone.0
                0x9d03c15c       0x30
 .text._ssize.clone.0
                0x9d03c15c       0x30 c:/program files (x86)/microchip/xc32/v1.22/bin/../lib/gcc/pic32mx/4.5.2/../../../../pic32mx/lib/mips16\libc.a(fseek.o)

.text.strncpy   0x9d03c18c       0x30
 .text.strncpy  0x9d03c18c       0x30 c:/program files (x86)/microchip/xc32/v1.22/bin/../lib/gcc/pic32mx/4.5.2/../../../../pic32mx/lib/mips16\libc.a(strncpy.o)
                0x9d03c18d                strncpy

.text._sprintf_cdnopsuxX
                0x9d03c1bc       0x30
 .text._sprintf_cdnopsuxX
                0x9d03c1bc       0x30 c:/program files (x86)/microchip/xc32/v1.22/bin/../lib/gcc/pic32mx/4.5.2/../../../../pic32mx/lib/mips16\libc.a(sprintf_cdnopsuxX.eo)
                0x9d03c1bd                _sprintf_0
                0x9d03c1bd                _sprintf_cdnopuxX
                0x9d03c1bd                _sprintf_s
                0x9d03c1bd                _sprintf_cdnopsuxX

.text.vsnprintf
                0x9d03c1ec       0x30
 .text.vsnprintf
                0x9d03c1ec       0x30 c:/program files (x86)/microchip/xc32/v1.22/bin/../lib/gcc/pic32mx/4.5.2/../../../../pic32mx/lib/mips16\libc.a(vsnprintf.o)
                0x9d03c1ed                vsnprintf

.text.setOSCPrefix
                0x9d03c21c       0x2c
 .text.setOSCPrefix
                0x9d03c21c       0x2c build/default/production/_ext/454704213/osc.o
                0x9d03c21d                setOSCPrefix

.text.addOSCIntArgument
                0x9d03c248       0x2c
 .text.addOSCIntArgument
                0x9d03c248       0x2c build/default/production/_ext/454704213/osc.o
                0x9d03c249                addOSCIntArgument

.text.addOSCFloatArgument
                0x9d03c274       0x2c
 .text.addOSCFloatArgument
                0x9d03c274       0x2c build/default/production/_ext/454704213/osc.o
                0x9d03c275                addOSCFloatArgument

.text.MACDiscardRx
                0x9d03c2a0       0x2c
 .text.MACDiscardRx
                0x9d03c2a0       0x2c build/default/production/_ext/1340694758/ETHPIC32IntMac.o
                0x9d03c2a1                MACDiscardRx

.text.LFSRRand  0x9d03c2cc       0x2c
 .text.LFSRRand
                0x9d03c2cc       0x2c build/default/production/_ext/1340694758/Helpers.o
                0x9d03c2cd                LFSRRand

.text.USBHostCDC_ApiDeviceDetect
                0x9d03c2f8       0x2c
 .text.USBHostCDC_ApiDeviceDetect
                0x9d03c2f8       0x2c build/default/production/_ext/1798056102/usb_host_cdc_interface.o
                0x9d03c2f9                USBHostCDC_ApiDeviceDetect

.text.mrb_get_int_arg_at_index
                0x9d03c324       0x2c
 .text.mrb_get_int_arg_at_index
                0x9d03c324       0x2c build/default/production/picrouter.o
                0x9d03c325                mrb_get_int_arg_at_index

.text.USER_USB_CALLBACK_EVENT_HANDLER
                0x9d03c350       0x2c
 .text.USER_USB_CALLBACK_EVENT_HANDLER
                0x9d03c350       0x2c build/default/production/picrouter.o
                0x9d03c351                USER_USB_CALLBACK_EVENT_HANDLER

.text.mrb_define_singleton_method
                0x9d03c37c       0x2c
 .text.mrb_define_singleton_method
                0x9d03c37c       0x2c ..\mruby-1.0.0\build\PICrouter\lib\libmruby.a(class.o)
                0x9d03c37d                mrb_define_singleton_method

.text.mrb_exc_raise
                0x9d03c3a8       0x2c
 .text.mrb_exc_raise
                0x9d03c3a8       0x2c ..\mruby-1.0.0\build\PICrouter\lib\libmruby.a(error.o)
                0x9d03c3a9                mrb_exc_raise

.text.mrb_init_heap
                0x9d03c3d4       0x2c
 .text.mrb_init_heap
                0x9d03c3d4       0x2c ..\mruby-1.0.0\build\PICrouter\lib\libmruby.a(gc.o)
                0x9d03c3d5                mrb_init_heap

.text.irep_error
                0x9d03c400       0x2c
 .text.irep_error
                0x9d03c400       0x2c ..\mruby-1.0.0\build\PICrouter\lib\libmruby.a(load.o)

.text.mrb_proc_new_cfunc
                0x9d03c42c       0x2c
 .text.mrb_proc_new_cfunc
                0x9d03c42c       0x2c ..\mruby-1.0.0\build\PICrouter\lib\libmruby.a(proc.o)
                0x9d03c42d                mrb_proc_new_cfunc

.text.mrb_add_irep
                0x9d03c458       0x2c
 .text.mrb_add_irep
                0x9d03c458       0x2c ..\mruby-1.0.0\build\PICrouter\lib\libmruby.a(state.o)
                0x9d03c459                mrb_add_irep

.text.regexp_check
                0x9d03c484       0x2c
 .text.regexp_check
                0x9d03c484       0x2c ..\mruby-1.0.0\build\PICrouter\lib\libmruby.a(string.o)

.text.mrb_str_new_empty
                0x9d03c4b0       0x2c
 .text.mrb_str_new_empty
                0x9d03c4b0       0x2c ..\mruby-1.0.0\build\PICrouter\lib\libmruby.a(string.o)

.text.mrb_iv_copy
                0x9d03c4dc       0x2c
 .text.mrb_iv_copy
                0x9d03c4dc       0x2c ..\mruby-1.0.0\build\PICrouter\lib\libmruby.a(variable.o)
                0x9d03c4dd                mrb_iv_copy

.text.mrb_mod_cv_defined
                0x9d03c508       0x2c
 .text.mrb_mod_cv_defined
                0x9d03c508       0x2c ..\mruby-1.0.0\build\PICrouter\lib\libmruby.a(variable.o)
                0x9d03c509                mrb_mod_cv_defined

.text.mrb_const_set
                0x9d03c534       0x2c
 .text.mrb_const_set
                0x9d03c534       0x2c ..\mruby-1.0.0\build\PICrouter\lib\libmruby.a(variable.o)
                0x9d03c535                mrb_const_set

.text.mrb_ary_pop
                0x9d03c560       0x2c
 .text.mrb_ary_pop
                0x9d03c560       0x2c ..\mruby-1.0.0\build\PICrouter\lib\libmruby.a(array.o)
                0x9d03c561                mrb_ary_pop

.text.mrb_ary_s_create
                0x9d03c58c       0x2c
 .text.mrb_ary_s_create
                0x9d03c58c       0x2c ..\mruby-1.0.0\build\PICrouter\lib\libmruby.a(array.o)
                0x9d03c58d                mrb_ary_s_create

.text.mrb_assoc_new
                0x9d03c5b8       0x2c
 .text.mrb_assoc_new
                0x9d03c5b8       0x2c ..\mruby-1.0.0\build\PICrouter\lib\libmruby.a(array.o)
                0x9d03c5b9                mrb_assoc_new

.text.EthMIIMReadStart
                0x9d03c5e4       0x2c
 .text.EthMIIMReadStart
                0x9d03c5e4       0x2c c:/program files (x86)/microchip/xc32/v1.22/bin/../lib/gcc/pic32mx/4.5.2/../../../../pic32mx/lib/mips16\libmchp_peripheral_32MX795F512H.a(eth_miim_access.o)
                0x9d03c5e5                EthMIIMReadStart

.text.EthMIIMWriteStart
                0x9d03c610       0x2c
 .text.EthMIIMWriteStart
                0x9d03c610       0x2c c:/program files (x86)/microchip/xc32/v1.22/bin/../lib/gcc/pic32mx/4.5.2/../../../../pic32mx/lib/mips16\libmchp_peripheral_32MX795F512H.a(eth_miim_access.o)
                0x9d03c611                EthMIIMWriteStart

.text.INTEnable
                0x9d03c63c       0x2c
 .text.INTEnable
                0x9d03c63c       0x2c c:/program files (x86)/microchip/xc32/v1.22/bin/../lib/gcc/pic32mx/4.5.2/../../../../pic32mx/lib/mips16\libmchp_peripheral_32MX795F512H.a(int_tbl_lib.o)
                0x9d03c63d                INTEnable

.text.I2CSetFrequency
                0x9d03c668       0x2c
 .text.I2CSetFrequency
                0x9d03c668       0x2c c:/program files (x86)/microchip/xc32/v1.22/bin/../lib/gcc/pic32mx/4.5.2/../../../../pic32mx/lib/mips16\libmchp_peripheral_32MX795F512H.a(I2CSetFrequency.o)
                0x9d03c669                I2CSetFrequency

.text           0x9d03c694       0x2c
 .text          0x9d03c694       0x2c c:/program files (x86)/microchip/xc32/v1.22/bin/../lib/gcc/pic32mx/4.5.2/mips16\libgcc.a(_lshrdi3.o)
                0x9d03c695                __lshrdi3

.text.receiveSpiOneWord
                0x9d03c6c0       0x28
 .text.receiveSpiOneWord
                0x9d03c6c0       0x28 build/default/production/_ext/454704213/iosetting.o
                0x9d03c6c1                receiveSpiOneWord

.text.openDiscoverPort
                0x9d03c6e8       0x28
 .text.openDiscoverPort
                0x9d03c6e8       0x28 build/default/production/_ext/454704213/osc.o
                0x9d03c6e9                openDiscoverPort

.text.sendOSCBundle
                0x9d03c710       0x28
 .text.sendOSCBundle
                0x9d03c710       0x28 build/default/production/_ext/454704213/osc.o
                0x9d03c711                sendOSCBundle

.text.DHCPDisable
                0x9d03c738       0x28
 .text.DHCPDisable
                0x9d03c738       0x28 build/default/production/_ext/1340694758/DHCP.o
                0x9d03c739                DHCPDisable

.text.Compare_MAC_addr
                0x9d03c760       0x28
 .text.Compare_MAC_addr
                0x9d03c760       0x28 build/default/production/_ext/1340694758/DHCPs.o

.text.EthPhyGetHwConfigFlags
                0x9d03c788       0x28
 .text.EthPhyGetHwConfigFlags
                0x9d03c788       0x28 build/default/production/_ext/1340694758/ETHPIC32ExtPhy.o
                0x9d03c789                EthPhyGetHwConfigFlags

.text.MACFlush  0x9d03c7b0       0x28
 .text.MACFlush
                0x9d03c7b0       0x28 build/default/production/_ext/1340694758/ETHPIC32IntMac.o
                0x9d03c7b1                MACFlush

.text.TickGet   0x9d03c7d8       0x28
 .text.TickGet  0x9d03c7d8       0x28 build/default/production/_ext/1340694758/Tick.o
                0x9d03c7d9                TickGet

.text.TickGetDiv256
                0x9d03c800       0x28
 .text.TickGetDiv256
                0x9d03c800       0x28 build/default/production/_ext/1340694758/Tick.o
                0x9d03c801                TickGetDiv256

.text.mrb_add_osc_string_arg
                0x9d03c828       0x28
 .text.mrb_add_osc_string_arg
                0x9d03c828       0x28 build/default/production/picrouter.o
                0x9d03c829                mrb_add_osc_string_arg

.text.mrb_add_osc_float_arg
                0x9d03c850       0x28
 .text.mrb_add_osc_float_arg
                0x9d03c850       0x28 build/default/production/picrouter.o
                0x9d03c851                mrb_add_osc_float_arg

.text.mrb_add_osc_int_arg
                0x9d03c878       0x28
 .text.mrb_add_osc_int_arg
                0x9d03c878       0x28 build/default/production/picrouter.o
                0x9d03c879                mrb_add_osc_int_arg

.text.mrb_set_osc_typetag
                0x9d03c8a0       0x28
 .text.mrb_set_osc_typetag
                0x9d03c8a0       0x28 build/default/production/picrouter.o
                0x9d03c8a1                mrb_set_osc_typetag

.text.mrb_delay_1ms
                0x9d03c8c8       0x28
 .text.mrb_delay_1ms
                0x9d03c8c8       0x28 build/default/production/picrouter.o
                0x9d03c8c9                mrb_delay_1ms

.text.mrb_delay_10us
                0x9d03c8f0       0x28
 .text.mrb_delay_10us
                0x9d03c8f0       0x28 build/default/production/picrouter.o
                0x9d03c8f1                mrb_delay_10us

.text.mrb_define_alias
                0x9d03c918       0x28
 .text.mrb_define_alias
                0x9d03c918       0x28 ..\mruby-1.0.0\build\PICrouter\lib\libmruby.a(class.o)
                0x9d03c919                mrb_define_alias

.text.mrb_undef_class_method
                0x9d03c940       0x28
 .text.mrb_undef_class_method
                0x9d03c940       0x28 ..\mruby-1.0.0\build\PICrouter\lib\libmruby.a(class.o)
                0x9d03c941                mrb_undef_class_method

.text.gc_step_ratio_set
                0x9d03c968       0x28
 .text.gc_step_ratio_set
                0x9d03c968       0x28 ..\mruby-1.0.0\build\PICrouter\lib\libmruby.a(gc.o)

.text.gc_interval_ratio_set
                0x9d03c990       0x28
 .text.gc_interval_ratio_set
                0x9d03c990       0x28 ..\mruby-1.0.0\build\PICrouter\lib\libmruby.a(gc.o)

.text.incremental_marking_phase
                0x9d03c9b8       0x28
 .text.incremental_marking_phase
                0x9d03c9b8       0x28 ..\mruby-1.0.0\build\PICrouter\lib\libmruby.a(gc.o)

.text.true_xor  0x9d03c9e0       0x28
 .text.true_xor
                0x9d03c9e0       0x28 ..\mruby-1.0.0\build\PICrouter\lib\libmruby.a(object.o)

.text.mrb_str_replace
                0x9d03ca08       0x28
 .text.mrb_str_replace
                0x9d03ca08       0x28 ..\mruby-1.0.0\build\PICrouter\lib\libmruby.a(string.o)

.text.mrb_gc_free_str
                0x9d03ca30       0x28
 .text.mrb_gc_free_str
                0x9d03ca30       0x28 ..\mruby-1.0.0\build\PICrouter\lib\libmruby.a(string.o)
                0x9d03ca31                mrb_gc_free_str

.text.mrb_str_hash
                0x9d03ca58       0x28
 .text.mrb_str_hash
                0x9d03ca58       0x28 ..\mruby-1.0.0\build\PICrouter\lib\libmruby.a(string.o)
                0x9d03ca59                mrb_str_hash

.text.mrb_str_buf_append
                0x9d03ca80       0x28
 .text.mrb_str_buf_append
                0x9d03ca80       0x28 ..\mruby-1.0.0\build\PICrouter\lib\libmruby.a(string.o)
                0x9d03ca81                mrb_str_buf_append

.text.mrb_str_cat_cstr
                0x9d03caa8       0x28
 .text.mrb_str_cat_cstr
                0x9d03caa8       0x28 ..\mruby-1.0.0\build\PICrouter\lib\libmruby.a(string.o)
                0x9d03caa9                mrb_str_cat_cstr

.rodata.mrb_digitmap.mrb_digitmap
                0x9d03cad0       0x28
 .rodata.mrb_digitmap.mrb_digitmap
                0x9d03cad0       0x28 ..\mruby-1.0.0\build\PICrouter\lib\libmruby.a(string.o)
                0x9d03cad0                mrb_digitmap

.text.sym_hash_func
                0x9d03caf8       0x28
 .text.sym_hash_func
                0x9d03caf8       0x28 ..\mruby-1.0.0\build\PICrouter\lib\libmruby.a(symbol.o)

.text.mrb_sym_to_s
                0x9d03cb20       0x28
 .text.mrb_sym_to_s
                0x9d03cb20       0x28 ..\mruby-1.0.0\build\PICrouter\lib\libmruby.a(symbol.o)
                0x9d03cb21                mrb_sym_to_s

.text.mrb_vm_cv_set
                0x9d03cb48       0x28
 .text.mrb_vm_cv_set
                0x9d03cb48       0x28 ..\mruby-1.0.0\build\PICrouter\lib\libmruby.a(variable.o)
                0x9d03cb49                mrb_vm_cv_set

.text.mrb_const_get
                0x9d03cb70       0x28
 .text.mrb_const_get
                0x9d03cb70       0x28 ..\mruby-1.0.0\build\PICrouter\lib\libmruby.a(variable.o)
                0x9d03cb71                mrb_const_get

.text.mrb_vm_const_set
                0x9d03cb98       0x28
 .text.mrb_vm_const_set
                0x9d03cb98       0x28 ..\mruby-1.0.0\build\PICrouter\lib\libmruby.a(variable.o)
                0x9d03cb99                mrb_vm_const_set

.text.mrb_define_const
                0x9d03cbc0       0x28
 .text.mrb_define_const
                0x9d03cbc0       0x28 ..\mruby-1.0.0\build\PICrouter\lib\libmruby.a(variable.o)
                0x9d03cbc1                mrb_define_const

.text.stack_clear
                0x9d03cbe8       0x28
 .text.stack_clear
                0x9d03cbe8       0x28 ..\mruby-1.0.0\build\PICrouter\lib\libmruby.a(vm.o)

.text.stack_copy
                0x9d03cc10       0x28
 .text.stack_copy
                0x9d03cc10       0x28 ..\mruby-1.0.0\build\PICrouter\lib\libmruby.a(vm.o)

.text.envadjust
                0x9d03cc38       0x28
 .text.envadjust
                0x9d03cc38       0x28 ..\mruby-1.0.0\build\PICrouter\lib\libmruby.a(vm.o)

.text.array_copy
                0x9d03cc60       0x28
 .text.array_copy
                0x9d03cc60       0x28 ..\mruby-1.0.0\build\PICrouter\lib\libmruby.a(array.o)

.text.ary_fill_with_nil
                0x9d03cc88       0x28
 .text.ary_fill_with_nil
                0x9d03cc88       0x28 ..\mruby-1.0.0\build\PICrouter\lib\libmruby.a(array.o)

.text.mrb_debug_get_filename
                0x9d03ccb0       0x28
 .text.mrb_debug_get_filename
                0x9d03ccb0       0x28 ..\mruby-1.0.0\build\PICrouter\lib\libmruby.a(debug.o)
                0x9d03ccb1                mrb_debug_get_filename

.text.NVMWriteWord
                0x9d03ccd8       0x28
 .text.NVMWriteWord
                0x9d03ccd8       0x28 c:/program files (x86)/microchip/xc32/v1.22/bin/../lib/gcc/pic32mx/4.5.2/../../../../pic32mx/lib/mips16\libmchp_peripheral_32MX795F512H.a(nvm_write_word_lib.o)
                0x9d03ccd9                NVMWriteWord

.text.I2CSetSlaveAddress
                0x9d03cd00       0x28
 .text.I2CSetSlaveAddress
                0x9d03cd00       0x28 c:/program files (x86)/microchip/xc32/v1.22/bin/../lib/gcc/pic32mx/4.5.2/../../../../pic32mx/lib/mips16\libmchp_peripheral_32MX795F512H.a(I2CSetSlaveAddress.o)
                0x9d03cd01                I2CSetSlaveAddress

.text.calloc    0x9d03cd28       0x28
 .text.calloc   0x9d03cd28       0x28 c:/program files (x86)/microchip/xc32/v1.22/bin/../lib/gcc/pic32mx/4.5.2/../../../../pic32mx/lib/mips16\libc.a(calloc.o)
                0x9d03cd29                calloc

.text.memchr    0x9d03cd50       0x28
 .text.memchr   0x9d03cd50       0x28 c:/program files (x86)/microchip/xc32/v1.22/bin/../lib/gcc/pic32mx/4.5.2/../../../../pic32mx/lib/mips16\libc.a(memchr.o)
                0x9d03cd51                memchr

.text.strcspn   0x9d03cd78       0x28
 .text.strcspn  0x9d03cd78       0x28 c:/program files (x86)/microchip/xc32/v1.22/bin/../lib/gcc/pic32mx/4.5.2/../../../../pic32mx/lib/mips16\libc.a(strcspn.o)
                0x9d03cd79                strcspn

.text.strspn    0x9d03cda0       0x28
 .text.strspn   0x9d03cda0       0x28 c:/program files (x86)/microchip/xc32/v1.22/bin/../lib/gcc/pic32mx/4.5.2/../../../../pic32mx/lib/mips16\libc.a(strspn.o)
                0x9d03cda1                strspn

.text           0x9d03cdc8       0x28
 .text          0x9d03cdc8       0x28 c:/program files (x86)/microchip/xc32/v1.22/bin/../lib/gcc/pic32mx/4.5.2/mips16\libgcc.a(floatunsisf.o)
                0x9d03cdc9                __floatunsisf

.text.openOSCReceivePort
                0x9d03cdf0       0x24
 .text.openOSCReceivePort
                0x9d03cdf0       0x24 build/default/production/_ext/454704213/osc.o
                0x9d03cdf1                openOSCReceivePort

.text.compareTypeTagAtIndex
                0x9d03ce14       0x24
 .text.compareTypeTagAtIndex
                0x9d03ce14       0x24 build/default/production/_ext/454704213/osc.o
                0x9d03ce15                compareTypeTagAtIndex

.text.MACPutArray
                0x9d03ce38       0x24
 .text.MACPutArray
                0x9d03ce38       0x24 build/default/production/_ext/1340694758/ETHPIC32IntMac.o
                0x9d03ce39                MACPutArray

.text.MACGetArray
                0x9d03ce5c       0x24
 .text.MACGetArray
                0x9d03ce5c       0x24 build/default/production/_ext/1340694758/ETHPIC32IntMac.o
                0x9d03ce5d                MACGetArray

.text.MACMemCopyAsync
                0x9d03ce80       0x24
 .text.MACMemCopyAsync
                0x9d03ce80       0x24 build/default/production/_ext/1340694758/ETHPIC32IntMac.o
                0x9d03ce81                MACMemCopyAsync

.text.LFSRSeedRand
                0x9d03cea4       0x24
 .text.LFSRSeedRand
                0x9d03cea4       0x24 build/default/production/_ext/1340694758/Helpers.o
                0x9d03cea5                LFSRSeedRand

.text.UDPClose  0x9d03cec8       0x24
 .text.UDPClose
                0x9d03cec8       0x24 build/default/production/_ext/1340694758/UDP.o
                0x9d03cec9                UDPClose

.text.UDPInit   0x9d03ceec       0x24
 .text.UDPInit  0x9d03ceec       0x24 build/default/production/_ext/1340694758/UDP.o
                0x9d03ceed                UDPInit

.text.FindARPPktType
                0x9d03cf10       0x24
 .text.FindARPPktType
                0x9d03cf10       0x24 build/default/production/_ext/1340694758/ZeroconfLinkLocal.o
                0x9d03cf11                FindARPPktType

.text.USBHostMIDIRead
                0x9d03cf34       0x24
 .text.USBHostMIDIRead
                0x9d03cf34       0x24 build/default/production/_ext/1798056102/usb_host_midi.o
                0x9d03cf35                USBHostMIDIRead

.text.USBHostMIDIWrite
                0x9d03cf58       0x24
 .text.USBHostMIDIWrite
                0x9d03cf58       0x24 build/default/production/_ext/1798056102/usb_host_midi.o
                0x9d03cf59                USBHostMIDIWrite

.text.kh_del_mt
                0x9d03cf7c       0x24
 .text.kh_del_mt
                0x9d03cf7c       0x24 ..\mruby-1.0.0\build\PICrouter\lib\libmruby.a(class.o)
                0x9d03cf7d                kh_del_mt

.text.to_hash   0x9d03cfa0       0x24
 .text.to_hash  0x9d03cfa0       0x24 ..\mruby-1.0.0\build\PICrouter\lib\libmruby.a(class.o)

.text.to_ary    0x9d03cfc4       0x24
 .text.to_ary   0x9d03cfc4       0x24 ..\mruby-1.0.0\build\PICrouter\lib\libmruby.a(class.o)

.text.to_str    0x9d03cfe8       0x24
 .text.to_str   0x9d03cfe8       0x24 ..\mruby-1.0.0\build\PICrouter\lib\libmruby.a(class.o)

.text.mrb_define_method
                0x9d03d00c       0x24
 .text.mrb_define_method
                0x9d03d00c       0x24 ..\mruby-1.0.0\build\PICrouter\lib\libmruby.a(class.o)
                0x9d03d00d                mrb_define_method

.text.unlink_heap_page
                0x9d03d030       0x24
 .text.unlink_heap_page
                0x9d03d030       0x24 ..\mruby-1.0.0\build\PICrouter\lib\libmruby.a(gc.o)

.text.unlink_free_heap_page
                0x9d03d054       0x24
 .text.unlink_free_heap_page
                0x9d03d054       0x24 ..\mruby-1.0.0\build\PICrouter\lib\libmruby.a(gc.o)

.text.gc_enable
                0x9d03d078       0x24
 .text.gc_enable
                0x9d03d078       0x24 ..\mruby-1.0.0\build\PICrouter\lib\libmruby.a(gc.o)

.text.gc_mark_gray_list
                0x9d03d09c       0x24
 .text.gc_mark_gray_list
                0x9d03d09c       0x24 ..\mruby-1.0.0\build\PICrouter\lib\libmruby.a(gc.o)

.text.final_marking_phase
                0x9d03d0c0       0x24
 .text.final_marking_phase
                0x9d03d0c0       0x24 ..\mruby-1.0.0\build\PICrouter\lib\libmruby.a(gc.o)

.text.mrb_hash_empty_p
                0x9d03d0e4       0x24
 .text.mrb_hash_empty_p
                0x9d03d0e4       0x24 ..\mruby-1.0.0\build\PICrouter\lib\libmruby.a(hash.o)
                0x9d03d0e5                mrb_hash_empty_p

.text.to_hash   0x9d03d108       0x24
 .text.to_hash  0x9d03d108       0x24 ..\mruby-1.0.0\build\PICrouter\lib\libmruby.a(hash.o)

.text.mrb_hash_ht_key
                0x9d03d12c       0x24
 .text.mrb_hash_ht_key
                0x9d03d12c       0x24 ..\mruby-1.0.0\build\PICrouter\lib\libmruby.a(hash.o)

.text.mrb_hash_clear
                0x9d03d150       0x24
 .text.mrb_hash_clear
                0x9d03d150       0x24 ..\mruby-1.0.0\build\PICrouter\lib\libmruby.a(hash.o)
                0x9d03d151                mrb_hash_clear

.text.kh_del_ht
                0x9d03d174       0x24
 .text.kh_del_ht
                0x9d03d174       0x24 ..\mruby-1.0.0\build\PICrouter\lib\libmruby.a(hash.o)
                0x9d03d175                kh_del_ht

.text.true_and  0x9d03d198       0x24
 .text.true_and
                0x9d03d198       0x24 ..\mruby-1.0.0\build\PICrouter\lib\libmruby.a(object.o)

.text.false_or  0x9d03d1bc       0x24
 .text.false_or
                0x9d03d1bc       0x24 ..\mruby-1.0.0\build\PICrouter\lib\libmruby.a(object.o)

.text.false_xor
                0x9d03d1e0       0x24
 .text.false_xor
                0x9d03d1e0       0x24 ..\mruby-1.0.0\build\PICrouter\lib\libmruby.a(object.o)

.text.mrb_closure_new
                0x9d03d204       0x24
 .text.mrb_closure_new
                0x9d03d204       0x24 ..\mruby-1.0.0\build\PICrouter\lib\libmruby.a(proc.o)
                0x9d03d205                mrb_closure_new

.text.str_decref
                0x9d03d228       0x24
 .text.str_decref
                0x9d03d228       0x24 ..\mruby-1.0.0\build\PICrouter\lib\libmruby.a(string.o)

.text.mrb_check_string_type
                0x9d03d24c       0x24
 .text.mrb_check_string_type
                0x9d03d24c       0x24 ..\mruby-1.0.0\build\PICrouter\lib\libmruby.a(string.o)
                0x9d03d24d                mrb_check_string_type

.text.mrb_str_to_f
                0x9d03d270       0x24
 .text.mrb_str_to_f
                0x9d03d270       0x24 ..\mruby-1.0.0\build\PICrouter\lib\libmruby.a(string.o)

.text.iv_free   0x9d03d294       0x24
 .text.iv_free  0x9d03d294       0x24 ..\mruby-1.0.0\build\PICrouter\lib\libmruby.a(variable.o)

.text.top_env   0x9d03d2b8       0x24
 .text.top_env  0x9d03d2b8       0x24 ..\mruby-1.0.0\build\PICrouter\lib\libmruby.a(vm.o)

.text.mrb_run   0x9d03d2dc       0x24
 .text.mrb_run  0x9d03d2dc       0x24 ..\mruby-1.0.0\build\PICrouter\lib\libmruby.a(vm.o)
                0x9d03d2dd                mrb_run

.text.float_id  0x9d03d300       0x24
 .text.float_id
                0x9d03d300       0x24 ..\mruby-1.0.0\build\PICrouter\lib\libmruby.a(etc.o)

.text.EthMIIMReadResult
                0x9d03d324       0x24
 .text.EthMIIMReadResult
                0x9d03d324       0x24 c:/program files (x86)/microchip/xc32/v1.22/bin/../lib/gcc/pic32mx/4.5.2/../../../../pic32mx/lib/mips16\libmchp_peripheral_32MX795F512H.a(eth_miim_access.o)
                0x9d03d325                EthMIIMReadResult

.text.I2CEnable
                0x9d03d348       0x24
 .text.I2CEnable
                0x9d03d348       0x24 c:/program files (x86)/microchip/xc32/v1.22/bin/../lib/gcc/pic32mx/4.5.2/../../../../pic32mx/lib/mips16\libmchp_peripheral_32MX795F512H.a(I2CEnable.o)
                0x9d03d349                I2CEnable

.text.__unordsf2
                0x9d03d36c       0x24
 .text.__unordsf2
                0x9d03d36c       0x24 c:/program files (x86)/microchip/xc32/v1.22/bin/../lib/gcc/pic32mx/4.5.2/../../../../pic32mx/lib/mips16\libe.a(_unordsf2.o)
                0x9d03d36d                __unordsf2

.text.isinfl    0x9d03d390       0x24
 .text.isinfl   0x9d03d390       0x24 c:/program files (x86)/microchip/xc32/v1.22/bin/../lib/gcc/pic32mx/4.5.2/../../../../pic32mx/lib/mips16\libpic32.a(isinf.o)
                0x9d03d391                isinfl

.text.sbrk      0x9d03d3b4       0x24
 .text.sbrk     0x9d03d3b4       0x24 c:/program files (x86)/microchip/xc32/v1.22/bin/../lib/gcc/pic32mx/4.5.2/../../../../pic32mx/lib/mips16\libpic32.a(sbrk.o)
                0x9d03d3b5                sbrk

.rodata.hid_rpt01.hid_rpt01
                0x9d03d3d8       0x20
 .rodata.hid_rpt01.hid_rpt01
                0x9d03d3d8       0x20 build/default/production/_ext/454704213/usb_descriptors.o
                0x9d03d3d8                hid_rpt01

.text.ARPInit   0x9d03d3f8       0x20
 .text.ARPInit  0x9d03d3f8       0x20 build/default/production/_ext/1340694758/ARP.o
                0x9d03d3f9                ARPInit

.text.SwapARPPacket
                0x9d03d418       0x20
 .text.SwapARPPacket
                0x9d03d418       0x20 build/default/production/_ext/1340694758/ARP.o
                0x9d03d419                SwapARPPacket

.text.DHCPEnable
                0x9d03d438       0x20
 .text.DHCPEnable
                0x9d03d438       0x20 build/default/production/_ext/1340694758/DHCP.o
                0x9d03d439                DHCPEnable

.text.DHCPTempIPAddr
                0x9d03d458       0x20
 .text.DHCPTempIPAddr
                0x9d03d458       0x20 build/default/production/_ext/1340694758/DHCP.o
                0x9d03d459                DHCPTempIPAddr

.text.GetIPAddrFromIndex_DhcpPool
                0x9d03d478       0x20
 .text.GetIPAddrFromIndex_DhcpPool
                0x9d03d478       0x20 build/default/production/_ext/1340694758/DHCPs.o

.text.SwapIPHeader
                0x9d03d498       0x20
 .text.SwapIPHeader
                0x9d03d498       0x20 build/default/production/_ext/1340694758/IP.o

.text.UDPSetTxBuffer
                0x9d03d4b8       0x20
 .text.UDPSetTxBuffer
                0x9d03d4b8       0x20 build/default/production/_ext/1340694758/UDP.o
                0x9d03d4b9                UDPSetTxBuffer

.text.USBHostCDC_Init_CDC_Buffers
                0x9d03d4d8       0x20
 .text.USBHostCDC_Init_CDC_Buffers
                0x9d03d4d8       0x20 build/default/production/_ext/1798056102/usb_host_cdc.o
                0x9d03d4d9                USBHostCDC_Init_CDC_Buffers

.text.mrb_process_osc_packet
                0x9d03d4f8       0x20
 .text.mrb_process_osc_packet
                0x9d03d4f8       0x20 build/default/production/picrouter.o
                0x9d03d4f9                mrb_process_osc_packet

.text.gc_disable
                0x9d03d518       0x20
 .text.gc_disable
                0x9d03d518       0x20 ..\mruby-1.0.0\build\PICrouter\lib\libmruby.a(gc.o)

.text.mrb_hash_size_m
                0x9d03d538       0x20
 .text.mrb_hash_size_m
                0x9d03d538       0x20 ..\mruby-1.0.0\build\PICrouter\lib\libmruby.a(hash.o)

.text.kh_clear_ht
                0x9d03d558       0x20
 .text.kh_clear_ht
                0x9d03d558       0x20 ..\mruby-1.0.0\build\PICrouter\lib\libmruby.a(hash.o)
                0x9d03d559                kh_clear_ht

.text.mrb_obj_class_m
                0x9d03d578       0x20
 .text.mrb_obj_class_m
                0x9d03d578       0x20 ..\mruby-1.0.0\build\PICrouter\lib\libmruby.a(kernel.o)

.text.printstr  0x9d03d598       0x20
 .text.printstr
                0x9d03d598       0x20 ..\mruby-1.0.0\build\PICrouter\lib\libmruby.a(print.o)

.text.mrb_alloca_free
                0x9d03d5b8       0x20
 .text.mrb_alloca_free
                0x9d03d5b8       0x20 ..\mruby-1.0.0\build\PICrouter\lib\libmruby.a(state.o)

.text.str_eql   0x9d03d5d8       0x20
 .text.str_eql  0x9d03d5d8       0x20 ..\mruby-1.0.0\build\PICrouter\lib\libmruby.a(string.o)

.text.mrb_str_intern
                0x9d03d5f8       0x20
 .text.mrb_str_intern
                0x9d03d5f8       0x20 ..\mruby-1.0.0\build\PICrouter\lib\libmruby.a(string.o)
                0x9d03d5f9                mrb_str_intern

.text.mrb_str_hash_m
                0x9d03d618       0x20
 .text.mrb_str_hash_m
                0x9d03d618       0x20 ..\mruby-1.0.0\build\PICrouter\lib\libmruby.a(string.o)

.text.iv_size   0x9d03d638       0x20
 .text.iv_size  0x9d03d638       0x20 ..\mruby-1.0.0\build\PICrouter\lib\libmruby.a(variable.o)

.text.obj_iv_p  0x9d03d658       0x20
 .text.obj_iv_p
                0x9d03d658       0x20 ..\mruby-1.0.0\build\PICrouter\lib\libmruby.a(variable.o)

.text.csym_i    0x9d03d678       0x20
 .text.csym_i   0x9d03d678       0x20 ..\mruby-1.0.0\build\PICrouter\lib\libmruby.a(variable.o)

.text.mrb_vm_cv_get
                0x9d03d698       0x20
 .text.mrb_vm_cv_get
                0x9d03d698       0x20 ..\mruby-1.0.0\build\PICrouter\lib\libmruby.a(variable.o)
                0x9d03d699                mrb_vm_cv_get

.rodata.m.6616.m
                0x9d03d6b8       0x20
 .rodata.m.6616.m
                0x9d03d6b8       0x20 ..\mruby-1.0.0\build\PICrouter\lib\libmruby.a(vm.o)

.text.mrb_ary_decref
                0x9d03d6d8       0x20
 .text.mrb_ary_decref
                0x9d03d6d8       0x20 ..\mruby-1.0.0\build\PICrouter\lib\libmruby.a(array.o)
                0x9d03d6d9                mrb_ary_decref

.text.fix_to_f  0x9d03d6f8       0x20
 .text.fix_to_f
                0x9d03d6f8       0x20 ..\mruby-1.0.0\build\PICrouter\lib\libmruby.a(numeric.o)

.text.EthRxSetBufferSize
                0x9d03d718       0x20
 .text.EthRxSetBufferSize
                0x9d03d718       0x20 c:/program files (x86)/microchip/xc32/v1.22/bin/../lib/gcc/pic32mx/4.5.2/../../../../pic32mx/lib/mips16\libmchp_peripheral_32MX795F512H.a(eth_rx_set_buffer_size_lib.o)
                0x9d03d719                EthRxSetBufferSize

.text.NVMErasePage
                0x9d03d738       0x20
 .text.NVMErasePage
                0x9d03d738       0x20 c:/program files (x86)/microchip/xc32/v1.22/bin/../lib/gcc/pic32mx/4.5.2/../../../../pic32mx/lib/mips16\libmchp_peripheral_32MX795F512H.a(nvm_erase_page_lib.o)
                0x9d03d739                NVMErasePage

.text.PORTSetPinsDigitalIn
                0x9d03d758       0x20
 .text.PORTSetPinsDigitalIn
                0x9d03d758       0x20 c:/program files (x86)/microchip/xc32/v1.22/bin/../lib/gcc/pic32mx/4.5.2/../../../../pic32mx/lib/mips16\libmchp_peripheral_32MX795F512H.a(port_set_pins_digital_in_lib.o)
                0x9d03d759                PORTSetPinsDigitalIn

.text.PORTSetPinsDigitalOut
                0x9d03d778       0x20
 .text.PORTSetPinsDigitalOut
                0x9d03d778       0x20 c:/program files (x86)/microchip/xc32/v1.22/bin/../lib/gcc/pic32mx/4.5.2/../../../../pic32mx/lib/mips16\libmchp_peripheral_32MX795F512H.a(port_set_pins_digital_out_lib.o)
                0x9d03d779                PORTSetPinsDigitalOut

.text.free      0x9d03d798       0x20
 .text.free     0x9d03d798       0x20 c:/program files (x86)/microchip/xc32/v1.22/bin/../lib/gcc/pic32mx/4.5.2/../../../../pic32mx/lib/mips16\libc.a(malloc.o)
                0x9d03d799                free

.rodata         0x9d03d7b8       0x1c
 .rodata        0x9d03d7b8       0x1c build/default/production/_ext/454704213/osc.o

.text.closeOSCSendPort
                0x9d03d7d4       0x1c
 .text.closeOSCSendPort
                0x9d03d7d4       0x1c build/default/production/_ext/454704213/osc.o
                0x9d03d7d5                closeOSCSendPort

.text.closeOSCReceivePort
                0x9d03d7f0       0x1c
 .text.closeOSCReceivePort
                0x9d03d7f0       0x1c build/default/production/_ext/454704213/osc.o
                0x9d03d7f1                closeOSCReceivePort

.text.closeDiscoverPort
                0x9d03d80c       0x1c
 .text.closeDiscoverPort
                0x9d03d80c       0x1c build/default/production/_ext/454704213/osc.o
                0x9d03d80d                closeDiscoverPort

.text.clearOSCMessage
                0x9d03d828       0x1c
 .text.clearOSCMessage
                0x9d03d828       0x1c build/default/production/_ext/454704213/osc.o
                0x9d03d829                clearOSCMessage

.text.isMacAddr_Effective
                0x9d03d844       0x1c
 .text.isMacAddr_Effective
                0x9d03d844       0x1c build/default/production/_ext/1340694758/DHCPs.o

.text.UDPSetRxBuffer
                0x9d03d860       0x1c
 .text.UDPSetRxBuffer
                0x9d03d860       0x1c build/default/production/_ext/1340694758/UDP.o
                0x9d03d861                UDPSetRxBuffer

.text.ZeroconfStateMachineReset
                0x9d03d87c       0x1c
 .text.ZeroconfStateMachineReset
                0x9d03d87c       0x1c build/default/production/_ext/1340694758/ZeroconfLinkLocal.o

.text.mrb_usb_host_tasks
                0x9d03d898       0x1c
 .text.mrb_usb_host_tasks
                0x9d03d898       0x1c build/default/production/picrouter.o
                0x9d03d899                mrb_usb_host_tasks

.text.mrb_usb_host_init
                0x9d03d8b4       0x1c
 .text.mrb_usb_host_init
                0x9d03d8b4       0x1c build/default/production/picrouter.o
                0x9d03d8b5                mrb_usb_host_init

.text.kh_destroy_mt
                0x9d03d8d0       0x1c
 .text.kh_destroy_mt
                0x9d03d8d0       0x1c ..\mruby-1.0.0\build\PICrouter\lib\libmruby.a(class.o)
                0x9d03d8d1                kh_destroy_mt

.text.mrb_class_get_under
                0x9d03d8ec       0x1c
 .text.mrb_class_get_under
                0x9d03d8ec       0x1c ..\mruby-1.0.0\build\PICrouter\lib\libmruby.a(class.o)
                0x9d03d8ed                mrb_class_get_under

.text.mrb_respond_to
                0x9d03d908       0x1c
 .text.mrb_respond_to
                0x9d03d908       0x1c ..\mruby-1.0.0\build\PICrouter\lib\libmruby.a(class.o)
                0x9d03d909                mrb_respond_to

.text.mrb_class_real
                0x9d03d924       0x1c
 .text.mrb_class_real
                0x9d03d924       0x1c ..\mruby-1.0.0\build\PICrouter\lib\libmruby.a(class.o)
                0x9d03d925                mrb_class_real

.text.mrb_module_new
                0x9d03d940       0x1c
 .text.mrb_module_new
                0x9d03d940       0x1c ..\mruby-1.0.0\build\PICrouter\lib\libmruby.a(class.o)
                0x9d03d941                mrb_module_new

.text.mrb_undef_method
                0x9d03d95c       0x1c
 .text.mrb_undef_method
                0x9d03d95c       0x1c ..\mruby-1.0.0\build\PICrouter\lib\libmruby.a(class.o)
                0x9d03d95d                mrb_undef_method

.text.exc_message
                0x9d03d978       0x1c
 .text.exc_message
                0x9d03d978       0x1c ..\mruby-1.0.0\build\PICrouter\lib\libmruby.a(error.o)

.text.gc_generational_mode_get
                0x9d03d994       0x1c
 .text.gc_generational_mode_get
                0x9d03d994       0x1c ..\mruby-1.0.0\build\PICrouter\lib\libmruby.a(gc.o)

.text.incremental_gc_until
                0x9d03d9b0       0x1c
 .text.incremental_gc_until
                0x9d03d9b0       0x1c ..\mruby-1.0.0\build\PICrouter\lib\libmruby.a(gc.o)

.text.kh_destroy_ht
                0x9d03d9cc       0x1c
 .text.kh_destroy_ht
                0x9d03d9cc       0x1c ..\mruby-1.0.0\build\PICrouter\lib\libmruby.a(hash.o)
                0x9d03d9cd                kh_destroy_ht

.text.mrb_obj_id_m
                0x9d03d9e8       0x1c
 .text.mrb_obj_id_m
                0x9d03d9e8       0x1c ..\mruby-1.0.0\build\PICrouter\lib\libmruby.a(kernel.o)

.text.mrb_obj_hash
                0x9d03da04       0x1c
 .text.mrb_obj_hash
                0x9d03da04       0x1c ..\mruby-1.0.0\build\PICrouter\lib\libmruby.a(kernel.o)
                0x9d03da05                mrb_obj_hash

.text.check_iv_name
                0x9d03da20       0x1c
 .text.check_iv_name
                0x9d03da20       0x1c ..\mruby-1.0.0\build\PICrouter\lib\libmruby.a(kernel.o)

.text.kh_destroy_st
                0x9d03da3c       0x1c
 .text.kh_destroy_st
                0x9d03da3c       0x1c ..\mruby-1.0.0\build\PICrouter\lib\libmruby.a(kernel.o)
                0x9d03da3d                kh_destroy_st

.text.bin_to_uint32
                0x9d03da58       0x1c
 .text.bin_to_uint32
                0x9d03da58       0x1c ..\mruby-1.0.0\build\PICrouter\lib\libmruby.a(load.o)

.text.allocf    0x9d03da74       0x1c
 .text.allocf   0x9d03da74       0x1c ..\mruby-1.0.0\build\PICrouter\lib\libmruby.a(state.o)

.text.mrb_str_new
                0x9d03da90       0x1c
 .text.mrb_str_new
                0x9d03da90       0x1c ..\mruby-1.0.0\build\PICrouter\lib\libmruby.a(string.o)
                0x9d03da91                mrb_str_new

.text.kh_destroy_n2s
                0x9d03daac       0x1c
 .text.kh_destroy_n2s
                0x9d03daac       0x1c ..\mruby-1.0.0\build\PICrouter\lib\libmruby.a(symbol.o)
                0x9d03daad                kh_destroy_n2s

.text.mrb_intern_cstr
                0x9d03dac8       0x1c
 .text.mrb_intern_cstr
                0x9d03dac8       0x1c ..\mruby-1.0.0\build\PICrouter\lib\libmruby.a(symbol.o)
                0x9d03dac9                mrb_intern_cstr

.text.mrb_cv_set
                0x9d03dae4       0x1c
 .text.mrb_cv_set
                0x9d03dae4       0x1c ..\mruby-1.0.0\build\PICrouter\lib\libmruby.a(variable.o)
                0x9d03dae5                mrb_cv_set

.text.uvenv     0x9d03db00       0x1c
 .text.uvenv    0x9d03db00       0x1c ..\mruby-1.0.0\build\PICrouter\lib\libmruby.a(vm.o)

.rodata.msg.6824.msg
                0x9d03db1c       0x1c
 .rodata.msg.6824.msg
                0x9d03db1c       0x1c ..\mruby-1.0.0\build\PICrouter\lib\libmruby.a(vm.o)

.text.mrb_ary_new_capa
                0x9d03db38       0x1c
 .text.mrb_ary_new_capa
                0x9d03db38       0x1c ..\mruby-1.0.0\build\PICrouter\lib\libmruby.a(array.o)
                0x9d03db39                mrb_ary_new_capa

.text.rshift    0x9d03db54       0x1c
 .text.rshift   0x9d03db54       0x1c ..\mruby-1.0.0\build\PICrouter\lib\libmruby.a(numeric.o)

.text.EthTxAcknowledgeBuffer
                0x9d03db70       0x1c
 .text.EthTxAcknowledgeBuffer
                0x9d03db70       0x1c c:/program files (x86)/microchip/xc32/v1.22/bin/../lib/gcc/pic32mx/4.5.2/../../../../pic32mx/lib/mips16\libmchp_peripheral_32MX795F512H.a(eth_ack_packet_lib.o)
                0x9d03db71                EthTxAcknowledgeBuffer

.text.EthRxGetBuffer
                0x9d03db8c       0x1c
 .text.EthRxGetBuffer
                0x9d03db8c       0x1c c:/program files (x86)/microchip/xc32/v1.22/bin/../lib/gcc/pic32mx/4.5.2/../../../../pic32mx/lib/mips16\libmchp_peripheral_32MX795F512H.a(eth_rx_get_packet_lib.o)
                0x9d03db8d                EthRxGetBuffer

.text.INTRestoreInterrupts
                0x9d03dba8       0x1c
 .text.INTRestoreInterrupts
                0x9d03dba8       0x1c c:/program files (x86)/microchip/xc32/v1.22/bin/../lib/gcc/pic32mx/4.5.2/../../../../pic32mx/lib/mips16\libmchp_peripheral_32MX795F512H.a(int_restore_interrupts_lib.o)
                0x9d03dba8                INTRestoreInterrupts

.text._stub_sbd_memlayout
                0x9d03dbc4       0x1c
 .text._stub_sbd_memlayout
                0x9d03dbc4       0x1c c:/program files (x86)/microchip/xc32/v1.22/bin/../lib/gcc/pic32mx/4.5.2/../../../../pic32mx/lib/mips16\libpic32.a(sbrk.o)
                0x9d03dbc5                _sbd_memlayout
                0x9d03dbc5                _stub_sbd_memlayout

.rodata         0x9d03dbe0       0x18
 .rodata        0x9d03dbe0       0x18 build/default/production/_ext/454704213/analog.o

.text.getcSPI4  0x9d03dbf8       0x18
 .text.getcSPI4
                0x9d03dbf8       0x18 build/default/production/_ext/454704213/iosetting.o
                0x9d03dbf9                getcSPI4

.text.clearOSCPrefix
                0x9d03dc10       0x18
 .text.clearOSCPrefix
                0x9d03dc10       0x18 build/default/production/_ext/454704213/osc.o
                0x9d03dc11                clearOSCPrefix

.text.isOSCGetReady
                0x9d03dc28       0x18
 .text.isOSCGetReady
                0x9d03dc28       0x18 build/default/production/_ext/454704213/osc.o
                0x9d03dc29                isOSCGetReady

.text.isOSCPutReady
                0x9d03dc40       0x18
 .text.isOSCPutReady
                0x9d03dc40       0x18 build/default/production/_ext/454704213/osc.o
                0x9d03dc41                isOSCPutReady

.text.isDiscoverPutReady
                0x9d03dc58       0x18
 .text.isDiscoverPutReady
                0x9d03dc58       0x18 build/default/production/_ext/454704213/osc.o
                0x9d03dc59                isDiscoverPutReady

.rodata.msgSetI2cSlaveAddress.msgSetI2cSlaveAddress
                0x9d03dc70       0x18
 .rodata.msgSetI2cSlaveAddress.msgSetI2cSlaveAddress
                0x9d03dc70       0x18 build/default/production/_ext/454704213/osc.o
                0x9d03dc70                msgSetI2cSlaveAddress

.text.MACCalcRxChecksum
                0x9d03dc88       0x18
 .text.MACCalcRxChecksum
                0x9d03dc88       0x18 build/default/production/_ext/1340694758/ETHPIC32IntMac.o
                0x9d03dc89                MACCalcRxChecksum

.text.mDNSFetch
                0x9d03dca0       0x18
 .text.mDNSFetch
                0x9d03dca0       0x18 build/default/production/_ext/1340694758/ZeroconfMulticastDNS.o

.text.mDNSAnnounce
                0x9d03dcb8       0x18
 .text.mDNSAnnounce
                0x9d03dcb8       0x18 build/default/production/_ext/1340694758/ZeroconfMulticastDNS.o
                0x9d03dcb9                mDNSAnnounce

.text.USBHostCDC_ApiTransferIsComplete
                0x9d03dcd0       0x18
 .text.USBHostCDC_ApiTransferIsComplete
                0x9d03dcd0       0x18 build/default/production/_ext/1798056102/usb_host_cdc_interface.o
                0x9d03dcd1                USBHostCDC_ApiTransferIsComplete

.text.mrb_fixnum_value
                0x9d03dce8       0x18
 .text.mrb_fixnum_value
                0x9d03dce8       0x18 build/default/production/picrouter.o

.text.mrb_usb_device_tasks
                0x9d03dd00       0x18
 .text.mrb_usb_device_tasks
                0x9d03dd00       0x18 build/default/production/picrouter.o
                0x9d03dd01                mrb_usb_device_tasks

.text.mrb_usb_device_init
                0x9d03dd18       0x18
 .text.mrb_usb_device_init
                0x9d03dd18       0x18 build/default/production/picrouter.o
                0x9d03dd19                mrb_usb_device_init

.text.mrb_get_osc_packet
                0x9d03dd30       0x18
 .text.mrb_get_osc_packet
                0x9d03dd30       0x18 build/default/production/picrouter.o
                0x9d03dd31                mrb_get_osc_packet

.text.mrb_flush_osc_message
                0x9d03dd48       0x18
 .text.mrb_flush_osc_message
                0x9d03dd48       0x18 build/default/production/picrouter.o
                0x9d03dd49                mrb_flush_osc_message

.text.mrb_clear_osc_message
                0x9d03dd60       0x18
 .text.mrb_clear_osc_message
                0x9d03dd60       0x18 build/default/production/picrouter.o
                0x9d03dd61                mrb_clear_osc_message

.text.USBHostCDC_Clear_Out_DATA_Array
                0x9d03dd78       0x18
 .text.USBHostCDC_Clear_Out_DATA_Array
                0x9d03dd78       0x18 build/default/production/picrouter.o
                0x9d03dd79                USBHostCDC_Clear_Out_DATA_Array

.text.mrb_obj_value
                0x9d03dd90       0x18
 .text.mrb_obj_value
                0x9d03dd90       0x18 ..\mruby-1.0.0\build\PICrouter\lib\libmruby.a(class.o)

.text.mrb_bool_value
                0x9d03dda8       0x18
 .text.mrb_bool_value
                0x9d03dda8       0x18 ..\mruby-1.0.0\build\PICrouter\lib\libmruby.a(class.o)

.text.mrb_bob_not
                0x9d03ddc0       0x18
 .text.mrb_bob_not
                0x9d03ddc0       0x18 ..\mruby-1.0.0\build\PICrouter\lib\libmruby.a(class.o)

.text.mrb_define_class
                0x9d03ddd8       0x18
 .text.mrb_define_class
                0x9d03ddd8       0x18 ..\mruby-1.0.0\build\PICrouter\lib\libmruby.a(class.o)
                0x9d03ddd9                mrb_define_class

.text.mrb_obj_classname
                0x9d03ddf0       0x18
 .text.mrb_obj_classname
                0x9d03ddf0       0x18 ..\mruby-1.0.0\build\PICrouter\lib\libmruby.a(class.o)
                0x9d03ddf1                mrb_obj_classname

.text.mrb_fixnum_value
                0x9d03de08       0x18
 .text.mrb_fixnum_value
                0x9d03de08       0x18 ..\mruby-1.0.0\build\PICrouter\lib\libmruby.a(error.o)

.text.mrb_obj_value
                0x9d03de20       0x18
 .text.mrb_obj_value
                0x9d03de20       0x18 ..\mruby-1.0.0\build\PICrouter\lib\libmruby.a(error.o)

.text.mrb_bool_value
                0x9d03de38       0x18
 .text.mrb_bool_value
                0x9d03de38       0x18 ..\mruby-1.0.0\build\PICrouter\lib\libmruby.a(error.o)

.text.mrb_fixnum_value
                0x9d03de50       0x18
 .text.mrb_fixnum_value
                0x9d03de50       0x18 ..\mruby-1.0.0\build\PICrouter\lib\libmruby.a(gc.o)

.text.mrb_bool_value
                0x9d03de68       0x18
 .text.mrb_bool_value
                0x9d03de68       0x18 ..\mruby-1.0.0\build\PICrouter\lib\libmruby.a(gc.o)

.text.mrb_gc_mark
                0x9d03de80       0x18
 .text.mrb_gc_mark
                0x9d03de80       0x18 ..\mruby-1.0.0\build\PICrouter\lib\libmruby.a(gc.o)
                0x9d03de81                mrb_gc_mark

.text.gc_start  0x9d03de98       0x18
 .text.gc_start
                0x9d03de98       0x18 ..\mruby-1.0.0\build\PICrouter\lib\libmruby.a(gc.o)

.text.mrb_write_barrier
                0x9d03deb0       0x18
 .text.mrb_write_barrier
                0x9d03deb0       0x18 ..\mruby-1.0.0\build\PICrouter\lib\libmruby.a(gc.o)
                0x9d03deb1                mrb_write_barrier

.text.mrb_fixnum_value
                0x9d03dec8       0x18
 .text.mrb_fixnum_value
                0x9d03dec8       0x18 ..\mruby-1.0.0\build\PICrouter\lib\libmruby.a(hash.o)

.text.mrb_obj_value
                0x9d03dee0       0x18
 .text.mrb_obj_value
                0x9d03dee0       0x18 ..\mruby-1.0.0\build\PICrouter\lib\libmruby.a(hash.o)

.text.mrb_bool_value
                0x9d03def8       0x18
 .text.mrb_bool_value
                0x9d03def8       0x18 ..\mruby-1.0.0\build\PICrouter\lib\libmruby.a(hash.o)

.text.mrb_hash_tbl
                0x9d03df10       0x18
 .text.mrb_hash_tbl
                0x9d03df10       0x18 ..\mruby-1.0.0\build\PICrouter\lib\libmruby.a(hash.o)
                0x9d03df11                mrb_hash_tbl

.text.mrb_fixnum_value
                0x9d03df28       0x18
 .text.mrb_fixnum_value
                0x9d03df28       0x18 ..\mruby-1.0.0\build\PICrouter\lib\libmruby.a(kernel.o)

.text.mrb_obj_value
                0x9d03df40       0x18
 .text.mrb_obj_value
                0x9d03df40       0x18 ..\mruby-1.0.0\build\PICrouter\lib\libmruby.a(kernel.o)

.text.mrb_cptr_value
                0x9d03df58       0x18
 .text.mrb_cptr_value
                0x9d03df58       0x18 ..\mruby-1.0.0\build\PICrouter\lib\libmruby.a(kernel.o)

.text.mrb_bool_value
                0x9d03df70       0x18
 .text.mrb_bool_value
                0x9d03df70       0x18 ..\mruby-1.0.0\build\PICrouter\lib\libmruby.a(kernel.o)

.text.mrb_float_value
                0x9d03df88       0x18
 .text.mrb_float_value
                0x9d03df88       0x18 ..\mruby-1.0.0\build\PICrouter\lib\libmruby.a(load.o)

.text.mrb_obj_value
                0x9d03dfa0       0x18
 .text.mrb_obj_value
                0x9d03dfa0       0x18 ..\mruby-1.0.0\build\PICrouter\lib\libmruby.a(load.o)

.text.mrb_fixnum_value
                0x9d03dfb8       0x18
 .text.mrb_fixnum_value
                0x9d03dfb8       0x18 ..\mruby-1.0.0\build\PICrouter\lib\libmruby.a(object.o)

.text.mrb_bool_value
                0x9d03dfd0       0x18
 .text.mrb_bool_value
                0x9d03dfd0       0x18 ..\mruby-1.0.0\build\PICrouter\lib\libmruby.a(object.o)

.text.false_to_s
                0x9d03dfe8       0x18
 .text.false_to_s
                0x9d03dfe8       0x18 ..\mruby-1.0.0\build\PICrouter\lib\libmruby.a(object.o)

.text.true_to_s
                0x9d03e000       0x18
 .text.true_to_s
                0x9d03e000       0x18 ..\mruby-1.0.0\build\PICrouter\lib\libmruby.a(object.o)

.text.nil_inspect
                0x9d03e018       0x18
 .text.nil_inspect
                0x9d03e018       0x18 ..\mruby-1.0.0\build\PICrouter\lib\libmruby.a(object.o)

.text.mrb_to_int
                0x9d03e030       0x18
 .text.mrb_to_int
                0x9d03e030       0x18 ..\mruby-1.0.0\build\PICrouter\lib\libmruby.a(object.o)
                0x9d03e031                mrb_to_int

.text.mrb_fixnum_value
                0x9d03e048       0x18
 .text.mrb_fixnum_value
                0x9d03e048       0x18 ..\mruby-1.0.0\build\PICrouter\lib\libmruby.a(proc.o)

.text.mrb_obj_value
                0x9d03e060       0x30
 .text.mrb_obj_value
                0x9d03e060       0x18 ..\mruby-1.0.0\build\PICrouter\lib\libmruby.a(proc.o)
 .text.mrb_obj_value
                0x9d03e078       0x18 ..\mruby-1.0.0\build\PICrouter\lib\libmruby.a(state.o)

.rodata         0x9d03e090       0x18
 .rodata        0x9d03e090       0x18 ..\mruby-1.0.0\build\PICrouter\lib\libmruby.a(state.o)

.text.inspect_main
                0x9d03e0a8       0x18
 .text.inspect_main
                0x9d03e0a8       0x18 ..\mruby-1.0.0\build\PICrouter\lib\libmruby.a(state.o)

.text.mrb_float_value
                0x9d03e0c0       0x18
 .text.mrb_float_value
                0x9d03e0c0       0x18 ..\mruby-1.0.0\build\PICrouter\lib\libmruby.a(string.o)

.text.mrb_fixnum_value
                0x9d03e0d8       0x18
 .text.mrb_fixnum_value
                0x9d03e0d8       0x18 ..\mruby-1.0.0\build\PICrouter\lib\libmruby.a(string.o)

.text.mrb_obj_value
                0x9d03e0f0       0x18
 .text.mrb_obj_value
                0x9d03e0f0       0x18 ..\mruby-1.0.0\build\PICrouter\lib\libmruby.a(string.o)

.text.mrb_bool_value
                0x9d03e108       0x18
 .text.mrb_bool_value
                0x9d03e108       0x18 ..\mruby-1.0.0\build\PICrouter\lib\libmruby.a(string.o)

.text.mrb_str_empty_p
                0x9d03e120       0x18
 .text.mrb_str_empty_p
                0x9d03e120       0x18 ..\mruby-1.0.0\build\PICrouter\lib\libmruby.a(string.o)

.text.mrb_str_dup
                0x9d03e138       0x18
 .text.mrb_str_dup
                0x9d03e138       0x18 ..\mruby-1.0.0\build\PICrouter\lib\libmruby.a(string.o)
                0x9d03e139                mrb_str_dup

.text.mrb_fixnum_value
                0x9d03e150       0x18
 .text.mrb_fixnum_value
                0x9d03e150       0x18 ..\mruby-1.0.0\build\PICrouter\lib\libmruby.a(symbol.o)

.text.mrb_bool_value
                0x9d03e168       0x18
 .text.mrb_bool_value
                0x9d03e168       0x18 ..\mruby-1.0.0\build\PICrouter\lib\libmruby.a(symbol.o)

.text.mrb_check_intern_str
                0x9d03e180       0x18
 .text.mrb_check_intern_str
                0x9d03e180       0x18 ..\mruby-1.0.0\build\PICrouter\lib\libmruby.a(symbol.o)
                0x9d03e181                mrb_check_intern_str

.text.mrb_fixnum_value
                0x9d03e198       0x18
 .text.mrb_fixnum_value
                0x9d03e198       0x18 ..\mruby-1.0.0\build\PICrouter\lib\libmruby.a(variable.o)

.text.mrb_obj_value
                0x9d03e1b0       0x18
 .text.mrb_obj_value
                0x9d03e1b0       0x18 ..\mruby-1.0.0\build\PICrouter\lib\libmruby.a(variable.o)

.text.iv_new    0x9d03e1c8       0x18
 .text.iv_new   0x9d03e1c8       0x18 ..\mruby-1.0.0\build\PICrouter\lib\libmruby.a(variable.o)

.text.iv_mark_i
                0x9d03e1e0       0x18
 .text.iv_mark_i
                0x9d03e1e0       0x18 ..\mruby-1.0.0\build\PICrouter\lib\libmruby.a(variable.o)

.text.mrb_const_defined
                0x9d03e1f8       0x18
 .text.mrb_const_defined
                0x9d03e1f8       0x18 ..\mruby-1.0.0\build\PICrouter\lib\libmruby.a(variable.o)
                0x9d03e1f9                mrb_const_defined

.text.mrb_attr_get
                0x9d03e210       0x18
 .text.mrb_attr_get
                0x9d03e210       0x18 ..\mruby-1.0.0\build\PICrouter\lib\libmruby.a(variable.o)
                0x9d03e211                mrb_attr_get

.text.mrb_fixnum_value
                0x9d03e228       0x18
 .text.mrb_fixnum_value
                0x9d03e228       0x18 ..\mruby-1.0.0\build\PICrouter\lib\libmruby.a(vm.o)

.text.mrb_obj_value
                0x9d03e240       0x18
 .text.mrb_obj_value
                0x9d03e240       0x18 ..\mruby-1.0.0\build\PICrouter\lib\libmruby.a(vm.o)

.text.mrb_cptr_value
                0x9d03e258       0x18
 .text.mrb_cptr_value
                0x9d03e258       0x18 ..\mruby-1.0.0\build\PICrouter\lib\libmruby.a(vm.o)

.text.mrb_fixnum_value
                0x9d03e270       0x18
 .text.mrb_fixnum_value
                0x9d03e270       0x18 ..\mruby-1.0.0\build\PICrouter\lib\libmruby.a(array.o)

.text.mrb_obj_value
                0x9d03e288       0x18
 .text.mrb_obj_value
                0x9d03e288       0x18 ..\mruby-1.0.0\build\PICrouter\lib\libmruby.a(array.o)

.text.mrb_bool_value
                0x9d03e2a0       0x18
 .text.mrb_bool_value
                0x9d03e2a0       0x18 ..\mruby-1.0.0\build\PICrouter\lib\libmruby.a(array.o)

.text.mrb_ary_empty_p
                0x9d03e2b8       0x18
 .text.mrb_ary_empty_p
                0x9d03e2b8       0x18 ..\mruby-1.0.0\build\PICrouter\lib\libmruby.a(array.o)
                0x9d03e2b9                mrb_ary_empty_p

.text.mrb_obj_value
                0x9d03e2d0       0x18
 .text.mrb_obj_value
                0x9d03e2d0       0x18 ..\mruby-1.0.0\build\PICrouter\lib\libmruby.a(backtrace.o)

.text.mrb_float_value
                0x9d03e2e8       0x18
 .text.mrb_float_value
                0x9d03e2e8       0x18 ..\mruby-1.0.0\build\PICrouter\lib\libmruby.a(numeric.o)

.text.mrb_fixnum_value
                0x9d03e300       0x18
 .text.mrb_fixnum_value
                0x9d03e300       0x18 ..\mruby-1.0.0\build\PICrouter\lib\libmruby.a(numeric.o)

.text.mrb_bool_value
                0x9d03e318       0x18
 .text.mrb_bool_value
                0x9d03e318       0x18 ..\mruby-1.0.0\build\PICrouter\lib\libmruby.a(numeric.o)

.text.mrb_obj_value
                0x9d03e330       0x18
 .text.mrb_obj_value
                0x9d03e330       0x18 ..\mruby-1.0.0\build\PICrouter\lib\libmruby.a(range.o)

.text.mrb_bool_value
                0x9d03e348       0x18
 .text.mrb_bool_value
                0x9d03e348       0x18 ..\mruby-1.0.0\build\PICrouter\lib\libmruby.a(range.o)

.text.mrb_range_end
                0x9d03e360       0x18
 .text.mrb_range_end
                0x9d03e360       0x18 ..\mruby-1.0.0\build\PICrouter\lib\libmruby.a(range.o)
                0x9d03e361                mrb_range_end

.text.CheKseg0CacheOn
                0x9d03e378       0x18
 .text.CheKseg0CacheOn
                0x9d03e378       0x18 c:/program files (x86)/microchip/xc32/v1.22/bin/../lib/gcc/pic32mx/4.5.2/../../../../pic32mx/lib/mips16\libmchp_peripheral_32MX795F512H.a(pcache.o)
                0x9d03e378                CheKseg0CacheOn

.text.INTClearFlag
                0x9d03e390       0x18
 .text.INTClearFlag
                0x9d03e390       0x18 c:/program files (x86)/microchip/xc32/v1.22/bin/../lib/gcc/pic32mx/4.5.2/../../../../pic32mx/lib/mips16\libmchp_peripheral_32MX795F512H.a(int_tbl_lib.o)
                0x9d03e391                INTClearFlag

.text.getcSPI2  0x9d03e3a8       0x18
 .text.getcSPI2
                0x9d03e3a8       0x18 c:/program files (x86)/microchip/xc32/v1.22/bin/../lib/gcc/pic32mx/4.5.2/../../../../pic32mx/lib/mips16\libmchp_peripheral_32MX795F512H.a(spi_getc_spi2_lib_legacy.o)
                0x9d03e3a9                getcSPI2

.text.PORTResetPins
                0x9d03e3c0       0x18
 .text.PORTResetPins
                0x9d03e3c0       0x18 c:/program files (x86)/microchip/xc32/v1.22/bin/../lib/gcc/pic32mx/4.5.2/../../../../pic32mx/lib/mips16\libmchp_peripheral_32MX795F512H.a(port_reset_pins_lib.o)
                0x9d03e3c1                PORTResetPins

.text           0x9d03e3d8       0x18
 .text          0x9d03e3d8       0x18 c:/program files (x86)/microchip/xc32/v1.22/bin/../lib/gcc/pic32mx/4.5.2/../../../../pic32mx/lib/mips16\libpic32.a(default-nmi-handler.o)
                0x9d03e3d8                _nmi_handler

.text.tolower   0x9d03e3f0       0x18
 .text.tolower  0x9d03e3f0       0x18 c:/program files (x86)/microchip/xc32/v1.22/bin/../lib/gcc/pic32mx/4.5.2/../../../../pic32mx/lib/mips16\libc.a(ctypef.o)
                0x9d03e3f1                tolower

.text.toupper   0x9d03e408       0x18
 .text.toupper  0x9d03e408       0x18 c:/program files (x86)/microchip/xc32/v1.22/bin/../lib/gcc/pic32mx/4.5.2/../../../../pic32mx/lib/mips16\libc.a(ctypef.o)
                0x9d03e409                toupper

.text.memcpy    0x9d03e420       0x18
 .text.memcpy   0x9d03e420       0x18 c:/program files (x86)/microchip/xc32/v1.22/bin/../lib/gcc/pic32mx/4.5.2/../../../../pic32mx/lib/mips16\libc.a(memcpy.o)
                0x9d03e421                memcpy

.text.strcmp    0x9d03e438       0x18
 .text.strcmp   0x9d03e438       0x18 c:/program files (x86)/microchip/xc32/v1.22/bin/../lib/gcc/pic32mx/4.5.2/../../../../pic32mx/lib/mips16\libc.a(strcmp.o)
                0x9d03e439                strcmp

.text._printf_cdnopuxX
                0x9d03e450       0x18
 .text._printf_cdnopuxX
                0x9d03e450       0x18 c:/program files (x86)/microchip/xc32/v1.22/bin/../lib/gcc/pic32mx/4.5.2/../../../../pic32mx/lib/mips16\libc.a(printf_cdnopuxX.eo)
                0x9d03e451                _printf_cdnopuxX

.text.ieee754dp_isinf
                0x9d03e468       0x18
 .text.ieee754dp_isinf
                0x9d03e468       0x18 c:/program files (x86)/microchip/xc32/v1.22/bin/../lib/gcc/pic32mx/4.5.2/../../../../pic32mx/lib/mips16\libe.a(_strtod.o)

.text.resetAnalogFlag
                0x9d03e480       0x14
 .text.resetAnalogFlag
                0x9d03e480       0x14 build/default/production/_ext/454704213/analog.o
                0x9d03e481                resetAnalogFlag

.rodata.device_dsc.device_dsc
                0x9d03e494       0x14
 .rodata.device_dsc.device_dsc
                0x9d03e494       0x14 build/default/production/_ext/454704213/usb_descriptors.o
                0x9d03e494                device_dsc

.rodata.sd001.sd001
                0x9d03e4a8       0x14
 .rodata.sd001.sd001
                0x9d03e4a8       0x14 build/default/production/_ext/454704213/usb_descriptors.o
                0x9d03e4a8                sd001

.rodata.sd002.sd002
                0x9d03e4bc       0x14
 .rodata.sd002.sd002
                0x9d03e4bc       0x14 build/default/production/_ext/454704213/usb_descriptors.o
                0x9d03e4bc                sd002

.text.clearOSCHostName
                0x9d03e4d0       0x14
 .text.clearOSCHostName
                0x9d03e4d0       0x14 build/default/production/_ext/454704213/osc.o
                0x9d03e4d1                clearOSCHostName

.rodata.msgSetDigitalDio.msgSetDigitalDio
                0x9d03e4e4       0x14
 .rodata.msgSetDigitalDio.msgSetDigitalDio
                0x9d03e4e4       0x14 build/default/production/_ext/454704213/osc.o
                0x9d03e4e4                msgSetDigitalDio

.rodata.msgGetDigitalDio.msgGetDigitalDio
                0x9d03e4f8       0x14
 .rodata.msgGetDigitalDio.msgGetDigitalDio
                0x9d03e4f8       0x14 build/default/production/_ext/454704213/osc.o
                0x9d03e4f8                msgGetDigitalDio

.rodata.msgSetDigitalDo.msgSetDigitalDo
                0x9d03e50c       0x14
 .rodata.msgSetDigitalDo.msgSetDigitalDo
                0x9d03e50c       0x14 build/default/production/_ext/454704213/osc.o
                0x9d03e50c                msgSetDigitalDo

.rodata.msgGetDigitalDi.msgGetDigitalDi
                0x9d03e520       0x14
 .rodata.msgGetDigitalDi.msgGetDigitalDi
                0x9d03e520       0x14 build/default/production/_ext/454704213/osc.o
                0x9d03e520                msgGetDigitalDi

.rodata.msgSetRemotePort.msgSetRemotePort
                0x9d03e534       0x14
 .rodata.msgSetRemotePort.msgSetRemotePort
                0x9d03e534       0x14 build/default/production/_ext/454704213/osc.o
                0x9d03e534                msgSetRemotePort

.rodata.msgGetRemotePort.msgGetRemotePort
                0x9d03e548       0x14
 .rodata.msgGetRemotePort.msgGetRemotePort
                0x9d03e548       0x14 build/default/production/_ext/454704213/osc.o
                0x9d03e548                msgGetRemotePort

.rodata.msgSwitchUsbMode.msgSwitchUsbMode
                0x9d03e55c       0x14
 .rodata.msgSwitchUsbMode.msgSwitchUsbMode
                0x9d03e55c       0x14 build/default/production/_ext/454704213/osc.o
                0x9d03e55c                msgSwitchUsbMode

.rodata.msgDiscoverDevices.msgDiscoverDevices
                0x9d03e570       0x14
 .rodata.msgDiscoverDevices.msgDiscoverDevices
                0x9d03e570       0x14 build/default/production/_ext/454704213/osc.o
                0x9d03e570                msgDiscoverDevices

.rodata.msgDiscoveredDevice.msgDiscoveredDevice
                0x9d03e584       0x14
 .rodata.msgDiscoveredDevice.msgDiscoveredDevice
                0x9d03e584       0x14 build/default/production/_ext/454704213/osc.o
                0x9d03e584                msgDiscoveredDevice

.text.MACSetReadPtrInRx
                0x9d03e598       0x14
 .text.MACSetReadPtrInRx
                0x9d03e598       0x14 build/default/production/_ext/1340694758/ETHPIC32IntMac.o
                0x9d03e599                MACSetReadPtrInRx

.text.CalcIPBufferChecksum
                0x9d03e5ac       0x14
 .text.CalcIPBufferChecksum
                0x9d03e5ac       0x14 build/default/production/_ext/1340694758/ETHPIC32IntMac.o
                0x9d03e5ad                CalcIPBufferChecksum

.text.IPSetRxBuffer
                0x9d03e5c0       0x14
 .text.IPSetRxBuffer
                0x9d03e5c0       0x14 build/default/production/_ext/1340694758/IP.o
                0x9d03e5c1                IPSetRxBuffer

.text.mDNSResetCounters
                0x9d03e5d4       0x14
 .text.mDNSResetCounters
                0x9d03e5d4       0x14 build/default/production/_ext/1340694758/ZeroconfMulticastDNS.o

.text.USBHostCDCInitAddress
                0x9d03e5e8       0x14
 .text.USBHostCDCInitAddress
                0x9d03e5e8       0x14 build/default/production/_ext/1798056102/usb_host_cdc.o
                0x9d03e5e9                USBHostCDCInitAddress

.text.mrb_false_value
                0x9d03e5fc       0x14
 .text.mrb_false_value
                0x9d03e5fc       0x14 build/default/production/picrouter.o

.text.mrb_true_value
                0x9d03e610       0x14
 .text.mrb_true_value
                0x9d03e610       0x14 build/default/production/picrouter.o

.text.mrb_false_value
                0x9d03e624       0x14
 .text.mrb_false_value
                0x9d03e624       0x14 ..\mruby-1.0.0\build\PICrouter\lib\libmruby.a(class.o)

.text.mrb_true_value
                0x9d03e638       0x14
 .text.mrb_true_value
                0x9d03e638       0x14 ..\mruby-1.0.0\build\PICrouter\lib\libmruby.a(class.o)

.text.mrb_mod_dummy_visibility
                0x9d03e64c       0x14
 .text.mrb_mod_dummy_visibility
                0x9d03e64c       0x14 ..\mruby-1.0.0\build\PICrouter\lib\libmruby.a(class.o)
                0x9d03e64d                mrb_mod_dummy_visibility

.text.mrb_define_module
                0x9d03e660       0x14
 .text.mrb_define_module
                0x9d03e660       0x14 ..\mruby-1.0.0\build\PICrouter\lib\libmruby.a(class.o)
                0x9d03e661                mrb_define_module

.text.mrb_obj_class
                0x9d03e674       0x14
 .text.mrb_obj_class
                0x9d03e674       0x14 ..\mruby-1.0.0\build\PICrouter\lib\libmruby.a(class.o)
                0x9d03e675                mrb_obj_class

.text.mrb_false_value
                0x9d03e688       0x14
 .text.mrb_false_value
                0x9d03e688       0x14 ..\mruby-1.0.0\build\PICrouter\lib\libmruby.a(error.o)

.text.mrb_format
                0x9d03e69c       0x14
 .text.mrb_format
                0x9d03e69c       0x14 ..\mruby-1.0.0\build\PICrouter\lib\libmruby.a(error.o)
                0x9d03e69d                mrb_format

.text.mrb_make_exception
                0x9d03e6b0       0x14
 .text.mrb_make_exception
                0x9d03e6b0       0x14 ..\mruby-1.0.0\build\PICrouter\lib\libmruby.a(error.o)
                0x9d03e6b1                mrb_make_exception

.text.add_gray_list
                0x9d03e6c4       0x14
 .text.add_gray_list
                0x9d03e6c4       0x14 ..\mruby-1.0.0\build\PICrouter\lib\libmruby.a(gc.o)

.text.gc_interval_ratio_get
                0x9d03e6d8       0x14
 .text.gc_interval_ratio_get
                0x9d03e6d8       0x14 ..\mruby-1.0.0\build\PICrouter\lib\libmruby.a(gc.o)

.text.gc_step_ratio_get
                0x9d03e6ec       0x14
 .text.gc_step_ratio_get
                0x9d03e6ec       0x14 ..\mruby-1.0.0\build\PICrouter\lib\libmruby.a(gc.o)

.text.mrb_gc_protect
                0x9d03e700       0x14
 .text.mrb_gc_protect
                0x9d03e700       0x14 ..\mruby-1.0.0\build\PICrouter\lib\libmruby.a(gc.o)
                0x9d03e701                mrb_gc_protect

.text.mrb_false_value
                0x9d03e714       0x14
 .text.mrb_false_value
                0x9d03e714       0x14 ..\mruby-1.0.0\build\PICrouter\lib\libmruby.a(hash.o)

.text.mrb_true_value
                0x9d03e728       0x14
 .text.mrb_true_value
                0x9d03e728       0x14 ..\mruby-1.0.0\build\PICrouter\lib\libmruby.a(hash.o)

.text.mrb_hash_to_hash
                0x9d03e73c       0x14
 .text.mrb_hash_to_hash
                0x9d03e73c       0x14 ..\mruby-1.0.0\build\PICrouter\lib\libmruby.a(hash.o)

.text.mrb_hash_ht_hash_equal
                0x9d03e750       0x14
 .text.mrb_hash_ht_hash_equal
                0x9d03e750       0x14 ..\mruby-1.0.0\build\PICrouter\lib\libmruby.a(hash.o)

.text.mrb_false_value
                0x9d03e764       0x14
 .text.mrb_false_value
                0x9d03e764       0x14 ..\mruby-1.0.0\build\PICrouter\lib\libmruby.a(kernel.o)

.text.mrb_obj_is_instance_of
                0x9d03e778       0x14
 .text.mrb_obj_is_instance_of
                0x9d03e778       0x14 ..\mruby-1.0.0\build\PICrouter\lib\libmruby.a(kernel.o)
                0x9d03e779                mrb_obj_is_instance_of

.text.read_section_lineno
                0x9d03e78c       0x14
 .text.read_section_lineno
                0x9d03e78c       0x14 ..\mruby-1.0.0\build\PICrouter\lib\libmruby.a(load.o)

.text.mrb_false_value
                0x9d03e7a0       0x14
 .text.mrb_false_value
                0x9d03e7a0       0x14 ..\mruby-1.0.0\build\PICrouter\lib\libmruby.a(object.o)

.text.mrb_true_value
                0x9d03e7b4       0x14
 .text.mrb_true_value
                0x9d03e7b4       0x14 ..\mruby-1.0.0\build\PICrouter\lib\libmruby.a(object.o)

.text.mrb_str_cat2
                0x9d03e7c8       0x14
 .text.mrb_str_cat2
                0x9d03e7c8       0x14 ..\mruby-1.0.0\build\PICrouter\lib\libmruby.a(object.o)

.text.nil_to_s  0x9d03e7dc       0x14
 .text.nil_to_s
                0x9d03e7dc       0x14 ..\mruby-1.0.0\build\PICrouter\lib\libmruby.a(object.o)

.text.mrb_obj_equal
                0x9d03e7f0       0x14
 .text.mrb_obj_equal
                0x9d03e7f0       0x14 ..\mruby-1.0.0\build\PICrouter\lib\libmruby.a(object.o)
                0x9d03e7f1                mrb_obj_equal

.text.mrb_Integer
                0x9d03e804       0x14
 .text.mrb_Integer
                0x9d03e804       0x14 ..\mruby-1.0.0\build\PICrouter\lib\libmruby.a(object.o)
                0x9d03e805                mrb_Integer

.text.mrb_open  0x9d03e818       0x14
 .text.mrb_open
                0x9d03e818       0x14 ..\mruby-1.0.0\build\PICrouter\lib\libmruby.a(state.o)
                0x9d03e819                mrb_open

.text.mrb_irep_decref
                0x9d03e82c       0x14
 .text.mrb_irep_decref
                0x9d03e82c       0x14 ..\mruby-1.0.0\build\PICrouter\lib\libmruby.a(state.o)
                0x9d03e82d                mrb_irep_decref

.text.mrb_str_bytesize
                0x9d03e840       0x14
 .text.mrb_str_bytesize
                0x9d03e840       0x14 ..\mruby-1.0.0\build\PICrouter\lib\libmruby.a(string.o)

.text.mrb_str_size
                0x9d03e854       0x14
 .text.mrb_str_size
                0x9d03e854       0x14 ..\mruby-1.0.0\build\PICrouter\lib\libmruby.a(string.o)
                0x9d03e855                mrb_str_size

.text.mrb_undef_value
                0x9d03e868       0x14
 .text.mrb_undef_value
                0x9d03e868       0x14 ..\mruby-1.0.0\build\PICrouter\lib\libmruby.a(symbol.o)

.text.sym_to_sym
                0x9d03e87c       0x14
 .text.sym_to_sym
                0x9d03e87c       0x14 ..\mruby-1.0.0\build\PICrouter\lib\libmruby.a(symbol.o)

.text.mrb_intern_str
                0x9d03e890       0x14
 .text.mrb_intern_str
                0x9d03e890       0x14 ..\mruby-1.0.0\build\PICrouter\lib\libmruby.a(symbol.o)
                0x9d03e891                mrb_intern_str

.text.mrb_undef_value
                0x9d03e8a4       0x14
 .text.mrb_undef_value
                0x9d03e8a4       0x14 ..\mruby-1.0.0\build\PICrouter\lib\libmruby.a(variable.o)

.text.mark_tbl  0x9d03e8b8       0x14
 .text.mark_tbl
                0x9d03e8b8       0x14 ..\mruby-1.0.0\build\PICrouter\lib\libmruby.a(variable.o)

.text.mrb_str_cat2
                0x9d03e8cc       0x14
 .text.mrb_str_cat2
                0x9d03e8cc       0x14 ..\mruby-1.0.0\build\PICrouter\lib\libmruby.a(variable.o)

.text.mrb_obj_iv_defined
                0x9d03e8e0       0x14
 .text.mrb_obj_iv_defined
                0x9d03e8e0       0x14 ..\mruby-1.0.0\build\PICrouter\lib\libmruby.a(variable.o)
                0x9d03e8e1                mrb_obj_iv_defined

.text.mrb_cv_get
                0x9d03e8f4       0x14
 .text.mrb_cv_get
                0x9d03e8f4       0x14 ..\mruby-1.0.0\build\PICrouter\lib\libmruby.a(variable.o)
                0x9d03e8f5                mrb_cv_get

.text.mrb_false_value
                0x9d03e908       0x14
 .text.mrb_false_value
                0x9d03e908       0x14 ..\mruby-1.0.0\build\PICrouter\lib\libmruby.a(array.o)

.text.mrb_true_value
                0x9d03e91c       0x14
 .text.mrb_true_value
                0x9d03e91c       0x14 ..\mruby-1.0.0\build\PICrouter\lib\libmruby.a(array.o)

.text.mrb_ary_size
                0x9d03e930       0x14
 .text.mrb_ary_size
                0x9d03e930       0x14 ..\mruby-1.0.0\build\PICrouter\lib\libmruby.a(array.o)

.text.mrb_true_value
                0x9d03e944       0x14
 .text.mrb_true_value
                0x9d03e944       0x14 ..\mruby-1.0.0\build\PICrouter\lib\libmruby.a(numeric.o)

.text.flo_to_f  0x9d03e958       0x14
 .text.flo_to_f
                0x9d03e958       0x14 ..\mruby-1.0.0\build\PICrouter\lib\libmruby.a(numeric.o)

.text.int_to_i  0x9d03e96c       0x14
 .text.int_to_i
                0x9d03e96c       0x14 ..\mruby-1.0.0\build\PICrouter\lib\libmruby.a(numeric.o)

.text.fix_rev   0x9d03e980       0x14
 .text.fix_rev  0x9d03e980       0x14 ..\mruby-1.0.0\build\PICrouter\lib\libmruby.a(numeric.o)

.text.flo_to_s  0x9d03e994       0x14
 .text.flo_to_s
                0x9d03e994       0x14 ..\mruby-1.0.0\build\PICrouter\lib\libmruby.a(numeric.o)

.text.mrb_false_value
                0x9d03e9a8       0x14
 .text.mrb_false_value
                0x9d03e9a8       0x14 ..\mruby-1.0.0\build\PICrouter\lib\libmruby.a(range.o)

.text.mrb_true_value
                0x9d03e9bc       0x14
 .text.mrb_true_value
                0x9d03e9bc       0x14 ..\mruby-1.0.0\build\PICrouter\lib\libmruby.a(range.o)

.text.mrb_range_beg
                0x9d03e9d0       0x14
 .text.mrb_range_beg
                0x9d03e9d0       0x14 ..\mruby-1.0.0\build\PICrouter\lib\libmruby.a(range.o)
                0x9d03e9d1                mrb_range_beg

.text.mrb_range_excl
                0x9d03e9e4       0x14
 .text.mrb_range_excl
                0x9d03e9e4       0x14 ..\mruby-1.0.0\build\PICrouter\lib\libmruby.a(range.o)
                0x9d03e9e5                mrb_range_excl

.text.mrb_range_each
                0x9d03e9f8       0x14
 .text.mrb_range_each
                0x9d03e9f8       0x14 ..\mruby-1.0.0\build\PICrouter\lib\libmruby.a(range.o)
                0x9d03e9f9                mrb_range_each

.text.mrb_init_mrblib
                0x9d03ea0c       0x14
 .text.mrb_init_mrblib
                0x9d03ea0c       0x14 ..\mruby-1.0.0\build\PICrouter\lib\libmruby.a(mrblib.o)
                0x9d03ea0d                mrb_init_mrblib

.text.mrb_init_comparable
                0x9d03ea20       0x14
 .text.mrb_init_comparable
                0x9d03ea20       0x14 ..\mruby-1.0.0\build\PICrouter\lib\libmruby.a(compar.o)
                0x9d03ea21                mrb_init_comparable

.text.mrb_init_enumerable
                0x9d03ea34       0x14
 .text.mrb_init_enumerable
                0x9d03ea34       0x14 ..\mruby-1.0.0\build\PICrouter\lib\libmruby.a(enum.o)
                0x9d03ea35                mrb_init_enumerable

.text.EthRxFiltersHTSet
                0x9d03ea48       0x14
 .text.EthRxFiltersHTSet
                0x9d03ea48       0x14 c:/program files (x86)/microchip/xc32/v1.22/bin/../lib/gcc/pic32mx/4.5.2/../../../../pic32mx/lib/mips16\libmchp_peripheral_32MX795F512H.a(eth_rx_filters_lib.o)
                0x9d03ea49                EthRxFiltersHTSet

.rodata         0x9d03ea5c       0x14
 .rodata        0x9d03ea5c       0x14 c:/program files (x86)/microchip/xc32/v1.22/bin/../lib/gcc/pic32mx/4.5.2/../../../../pic32mx/lib/mips16\libmchp_peripheral_32MX795F512H.a(spi_map_tbl_libp.o)
                0x9d03ea5c                _SpiMapTbl

.text.memset    0x9d03ea70       0x14
 .text.memset   0x9d03ea70       0x14 c:/program files (x86)/microchip/xc32/v1.22/bin/../lib/gcc/pic32mx/4.5.2/../../../../pic32mx/lib/mips16\libc.a(memset.o)
                0x9d03ea71                memset

.text.strchr    0x9d03ea84       0x14
 .text.strchr   0x9d03ea84       0x14 c:/program files (x86)/microchip/xc32/v1.22/bin/../lib/gcc/pic32mx/4.5.2/../../../../pic32mx/lib/mips16\libc.a(strchr.o)
                0x9d03ea85                strchr

.text.strtod    0x9d03ea98       0x14
 .text.strtod   0x9d03ea98       0x14 c:/program files (x86)/microchip/xc32/v1.22/bin/../lib/gcc/pic32mx/4.5.2/../../../../pic32mx/lib/mips16\libc.a(strtod.o)
                0x9d03ea99                strtod

.text.setAnalogEnable
                0x9d03eaac       0x10
 .text.setAnalogEnable
                0x9d03eaac       0x10 build/default/production/_ext/454704213/analog.o
                0x9d03eaad                setAnalogEnable

.text.getAnalogEnable
                0x9d03eabc       0x10
 .text.getAnalogEnable
                0x9d03eabc       0x10 build/default/production/_ext/454704213/analog.o
                0x9d03eabd                getAnalogEnable

.text.setAnalogType
                0x9d03eacc       0x10
 .text.setAnalogType
                0x9d03eacc       0x10 build/default/production/_ext/454704213/analog.o
                0x9d03eacd                setAnalogType

.text.getAnalogType
                0x9d03eadc       0x10
 .text.getAnalogType
                0x9d03eadc       0x10 build/default/production/_ext/454704213/analog.o
                0x9d03eadd                getAnalogType

.text.getAnalogFlag
                0x9d03eaec       0x10
 .text.getAnalogFlag
                0x9d03eaec       0x10 build/default/production/_ext/454704213/analog.o
                0x9d03eaed                getAnalogFlag

.text.getAnPortDioType
                0x9d03eafc       0x10
 .text.getAnPortDioType
                0x9d03eafc       0x10 build/default/production/_ext/454704213/iosetting.o
                0x9d03eafd                getAnPortDioType

.text.getPwmPortDioType
                0x9d03eb0c       0x10
 .text.getPwmPortDioType
                0x9d03eb0c       0x10 build/default/production/_ext/454704213/iosetting.o
                0x9d03eb0d                getPwmPortDioType

.text.getDigitalPortDioType
                0x9d03eb1c       0x10
 .text.getDigitalPortDioType
                0x9d03eb1c       0x10 build/default/production/_ext/454704213/iosetting.o
                0x9d03eb1d                getDigitalPortDioType

.text.setRemoteIpAtIndex
                0x9d03eb2c       0x10
 .text.setRemoteIpAtIndex
                0x9d03eb2c       0x10 build/default/production/_ext/454704213/osc.o
                0x9d03eb2d                setRemoteIpAtIndex

.text.getRemoteIpAtIndex
                0x9d03eb3c       0x10
 .text.getRemoteIpAtIndex
                0x9d03eb3c       0x10 build/default/production/_ext/454704213/osc.o
                0x9d03eb3d                getRemoteIpAtIndex

.rodata.msgOnboardLed.msgOnboardLed
                0x9d03eb4c       0x10
 .rodata.msgOnboardLed.msgOnboardLed
                0x9d03eb4c       0x10 build/default/production/_ext/454704213/osc.o
                0x9d03eb4c                msgOnboardLed

.rodata.msgOnboardSw1.msgOnboardSw1
                0x9d03eb5c       0x10
 .rodata.msgOnboardSw1.msgOnboardSw1
                0x9d03eb5c       0x10 build/default/production/_ext/454704213/osc.o
                0x9d03eb5c                msgOnboardSw1

.rodata.msgSetPortIO.msgSetPortIO
                0x9d03eb6c       0x10
 .rodata.msgSetPortIO.msgSetPortIO
                0x9d03eb6c       0x10 build/default/production/_ext/454704213/osc.o
                0x9d03eb6c                msgSetPortIO

.rodata.msgGetPortIO.msgGetPortIO
                0x9d03eb7c       0x10
 .rodata.msgGetPortIO.msgGetPortIO
                0x9d03eb7c       0x10 build/default/production/_ext/454704213/osc.o
                0x9d03eb7c                msgGetPortIO

.rodata.msgSetPortOut.msgSetPortOut
                0x9d03eb8c       0x10
 .rodata.msgSetPortOut.msgSetPortOut
                0x9d03eb8c       0x10 build/default/production/_ext/454704213/osc.o
                0x9d03eb8c                msgSetPortOut

.rodata.msgGetPortIn.msgGetPortIn
                0x9d03eb9c       0x10
 .rodata.msgGetPortIn.msgGetPortIn
                0x9d03eb9c       0x10 build/default/production/_ext/454704213/osc.o
                0x9d03eb9c                msgGetPortIn

.rodata.msgSetAdcEnable.msgSetAdcEnable
                0x9d03ebac       0x10
 .rodata.msgSetAdcEnable.msgSetAdcEnable
                0x9d03ebac       0x10 build/default/production/_ext/454704213/osc.o
                0x9d03ebac                msgSetAdcEnable

.rodata.msgGetAdcEnable.msgGetAdcEnable
                0x9d03ebbc       0x10
 .rodata.msgGetAdcEnable.msgGetAdcEnable
                0x9d03ebbc       0x10 build/default/production/_ext/454704213/osc.o
                0x9d03ebbc                msgGetAdcEnable

.rodata.msgSetAdcType.msgSetAdcType
                0x9d03ebcc       0x10
 .rodata.msgSetAdcType.msgSetAdcType
                0x9d03ebcc       0x10 build/default/production/_ext/454704213/osc.o
                0x9d03ebcc                msgSetAdcType

.rodata.msgGetAdcType.msgGetAdcType
                0x9d03ebdc       0x10
 .rodata.msgGetAdcType.msgGetAdcType
                0x9d03ebdc       0x10 build/default/production/_ext/454704213/osc.o
                0x9d03ebdc                msgGetAdcType

.rodata.msgSetAdcDio.msgSetAdcDio
                0x9d03ebec       0x10
 .rodata.msgSetAdcDio.msgSetAdcDio
                0x9d03ebec       0x10 build/default/production/_ext/454704213/osc.o
                0x9d03ebec                msgSetAdcDio

.rodata.msgGetAdcDio.msgGetAdcDio
                0x9d03ebfc       0x10
 .rodata.msgGetAdcDio.msgGetAdcDio
                0x9d03ebfc       0x10 build/default/production/_ext/454704213/osc.o
                0x9d03ebfc                msgGetAdcDio

.rodata.msgSetAdcDo.msgSetAdcDo
                0x9d03ec0c       0x10
 .rodata.msgSetAdcDo.msgSetAdcDo
                0x9d03ec0c       0x10 build/default/production/_ext/454704213/osc.o
                0x9d03ec0c                msgSetAdcDo

.rodata.msgGetAdcDi.msgGetAdcDi
                0x9d03ec1c       0x10
 .rodata.msgGetAdcDi.msgGetAdcDi
                0x9d03ec1c       0x10 build/default/production/_ext/454704213/osc.o
                0x9d03ec1c                msgGetAdcDi

.rodata.msgSetPwmEnable.msgSetPwmEnable
                0x9d03ec2c       0x10
 .rodata.msgSetPwmEnable.msgSetPwmEnable
                0x9d03ec2c       0x10 build/default/production/_ext/454704213/osc.o
                0x9d03ec2c                msgSetPwmEnable

.rodata.msgGetPwmEnable.msgGetPwmEnable
                0x9d03ec3c       0x10
 .rodata.msgGetPwmEnable.msgGetPwmEnable
                0x9d03ec3c       0x10 build/default/production/_ext/454704213/osc.o
                0x9d03ec3c                msgGetPwmEnable

.rodata.msgSetPwmFreq.msgSetPwmFreq
                0x9d03ec4c       0x10
 .rodata.msgSetPwmFreq.msgSetPwmFreq
                0x9d03ec4c       0x10 build/default/production/_ext/454704213/osc.o
                0x9d03ec4c                msgSetPwmFreq

.rodata.msgGetPwmFreq.msgGetPwmFreq
                0x9d03ec5c       0x10
 .rodata.msgGetPwmFreq.msgGetPwmFreq
                0x9d03ec5c       0x10 build/default/production/_ext/454704213/osc.o
                0x9d03ec5c                msgGetPwmFreq

.rodata.msgSetPwmDuty.msgSetPwmDuty
                0x9d03ec6c       0x10
 .rodata.msgSetPwmDuty.msgSetPwmDuty
                0x9d03ec6c       0x10 build/default/production/_ext/454704213/osc.o
                0x9d03ec6c                msgSetPwmDuty

.rodata.msgGetPwmDuty.msgGetPwmDuty
                0x9d03ec7c       0x10
 .rodata.msgGetPwmDuty.msgGetPwmDuty
                0x9d03ec7c       0x10 build/default/production/_ext/454704213/osc.o
                0x9d03ec7c                msgGetPwmDuty

.rodata.msgSetPwmDio.msgSetPwmDio
                0x9d03ec8c       0x10
 .rodata.msgSetPwmDio.msgSetPwmDio
                0x9d03ec8c       0x10 build/default/production/_ext/454704213/osc.o
                0x9d03ec8c                msgSetPwmDio

.rodata.msgGetPwmDio.msgGetPwmDio
                0x9d03ec9c       0x10
 .rodata.msgGetPwmDio.msgGetPwmDio
                0x9d03ec9c       0x10 build/default/production/_ext/454704213/osc.o
                0x9d03ec9c                msgGetPwmDio

.rodata.msgSetPwmDo.msgSetPwmDo
                0x9d03ecac       0x10
 .rodata.msgSetPwmDo.msgSetPwmDo
                0x9d03ecac       0x10 build/default/production/_ext/454704213/osc.o
                0x9d03ecac                msgSetPwmDo

.rodata.msgGetPwmDi.msgGetPwmDi
                0x9d03ecbc       0x10
 .rodata.msgGetPwmDi.msgGetPwmDi
                0x9d03ecbc       0x10 build/default/production/_ext/454704213/osc.o
                0x9d03ecbc                msgGetPwmDi

.rodata.msgDigitalDio.msgDigitalDio
                0x9d03eccc       0x10
 .rodata.msgDigitalDio.msgDigitalDio
                0x9d03eccc       0x10 build/default/production/_ext/454704213/osc.o
                0x9d03eccc                msgDigitalDio

.rodata.msgDigitalDi.msgDigitalDi
                0x9d03ecdc       0x10
 .rodata.msgDigitalDi.msgDigitalDi
                0x9d03ecdc       0x10 build/default/production/_ext/454704213/osc.o
                0x9d03ecdc                msgDigitalDi

.rodata.msgSetSpiConfig.msgSetSpiConfig
                0x9d03ecec       0x10
 .rodata.msgSetSpiConfig.msgSetSpiConfig
                0x9d03ecec       0x10 build/default/production/_ext/454704213/osc.o
                0x9d03ecec                msgSetSpiConfig

.rodata.msgDisableSpi.msgDisableSpi
                0x9d03ecfc       0x10
 .rodata.msgDisableSpi.msgDisableSpi
                0x9d03ecfc       0x10 build/default/production/_ext/454704213/osc.o
                0x9d03ecfc                msgDisableSpi

.rodata.msgSetSpiData.msgSetSpiData
                0x9d03ed0c       0x10
 .rodata.msgSetSpiData.msgSetSpiData
                0x9d03ed0c       0x10 build/default/production/_ext/454704213/osc.o
                0x9d03ed0c                msgSetSpiData

.rodata.msgGetSpiData.msgGetSpiData
                0x9d03ed1c       0x10
 .rodata.msgGetSpiData.msgGetSpiData
                0x9d03ed1c       0x10 build/default/production/_ext/454704213/osc.o
                0x9d03ed1c                msgGetSpiData

.rodata.msgSetSpiDio.msgSetSpiDio
                0x9d03ed2c       0x10
 .rodata.msgSetSpiDio.msgSetSpiDio
                0x9d03ed2c       0x10 build/default/production/_ext/454704213/osc.o
                0x9d03ed2c                msgSetSpiDio

.rodata.msgGetSpiDio.msgGetSpiDio
                0x9d03ed3c       0x10
 .rodata.msgGetSpiDio.msgGetSpiDio
                0x9d03ed3c       0x10 build/default/production/_ext/454704213/osc.o
                0x9d03ed3c                msgGetSpiDio

.rodata.msgSetSpiDo.msgSetSpiDo
                0x9d03ed4c       0x10
 .rodata.msgSetSpiDo.msgSetSpiDo
                0x9d03ed4c       0x10 build/default/production/_ext/454704213/osc.o
                0x9d03ed4c                msgSetSpiDo

.rodata.msgGetSpiDi.msgGetSpiDi
                0x9d03ed5c       0x10
 .rodata.msgGetSpiDi.msgGetSpiDi
                0x9d03ed5c       0x10 build/default/production/_ext/454704213/osc.o
                0x9d03ed5c                msgGetSpiDi

.rodata.msgSetI2cConfig.msgSetI2cConfig
                0x9d03ed6c       0x10
 .rodata.msgSetI2cConfig.msgSetI2cConfig
                0x9d03ed6c       0x10 build/default/production/_ext/454704213/osc.o
                0x9d03ed6c                msgSetI2cConfig

.rodata.msgSetI2cFreq.msgSetI2cFreq
                0x9d03ed7c       0x10
 .rodata.msgSetI2cFreq.msgSetI2cFreq
                0x9d03ed7c       0x10 build/default/production/_ext/454704213/osc.o
                0x9d03ed7c                msgSetI2cFreq

.rodata.msgSetI2cData.msgSetI2cData
                0x9d03ed8c       0x10
 .rodata.msgSetI2cData.msgSetI2cData
                0x9d03ed8c       0x10 build/default/production/_ext/454704213/osc.o
                0x9d03ed8c                msgSetI2cData

.rodata.msgGetI2cData.msgGetI2cData
                0x9d03ed9c       0x10
 .rodata.msgGetI2cData.msgGetI2cData
                0x9d03ed9c       0x10 build/default/production/_ext/454704213/osc.o
                0x9d03ed9c                msgGetI2cData

.rodata.msgSetRemoteIp.msgSetRemoteIp
                0x9d03edac       0x10
 .rodata.msgSetRemoteIp.msgSetRemoteIp
                0x9d03edac       0x10 build/default/production/_ext/454704213/osc.o
                0x9d03edac                msgSetRemoteIp

.rodata.msgGetRemoteIp.msgGetRemoteIp
                0x9d03edbc       0x10
 .rodata.msgGetRemoteIp.msgGetRemoteIp
                0x9d03edbc       0x10 build/default/production/_ext/454704213/osc.o
                0x9d03edbc                msgGetRemoteIp

.rodata.msgRemotePort.msgRemotePort
                0x9d03edcc       0x10
 .rodata.msgRemotePort.msgRemotePort
                0x9d03edcc       0x10 build/default/production/_ext/454704213/osc.o
                0x9d03edcc                msgRemotePort

.rodata.msgSetHostName.msgSetHostName
                0x9d03eddc       0x10
 .rodata.msgSetHostName.msgSetHostName
                0x9d03eddc       0x10 build/default/production/_ext/454704213/osc.o
                0x9d03eddc                msgSetHostName

.rodata.msgGetHostName.msgGetHostName
                0x9d03edec       0x10
 .rodata.msgGetHostName.msgGetHostName
                0x9d03edec       0x10 build/default/production/_ext/454704213/osc.o
                0x9d03edec                msgGetHostName

.rodata.msgGetHostIp.msgGetHostIp
                0x9d03edfc       0x10
 .rodata.msgGetHostIp.msgGetHostIp
                0x9d03edfc       0x10 build/default/production/_ext/454704213/osc.o
                0x9d03edfc                msgGetHostIp

.rodata.msgGetHostMac.msgGetHostMac
                0x9d03ee0c       0x10
 .rodata.msgGetHostMac.msgGetHostMac
                0x9d03ee0c       0x10 build/default/production/_ext/454704213/osc.o
                0x9d03ee0c                msgGetHostMac

.rodata.msgSetHostPort.msgSetHostPort
                0x9d03ee1c       0x10
 .rodata.msgSetHostPort.msgSetHostPort
                0x9d03ee1c       0x10 build/default/production/_ext/454704213/osc.o
                0x9d03ee1c                msgSetHostPort

.rodata.msgGetHostPort.msgGetHostPort
                0x9d03ee2c       0x10
 .rodata.msgGetHostPort.msgGetHostPort
                0x9d03ee2c       0x10 build/default/production/_ext/454704213/osc.o
                0x9d03ee2c                msgGetHostPort

.rodata.msgGetUsbMode.msgGetUsbMode
                0x9d03ee3c       0x10
 .rodata.msgGetUsbMode.msgGetUsbMode
                0x9d03ee3c       0x10 build/default/production/_ext/454704213/osc.o
                0x9d03ee3c                msgGetUsbMode

.rodata.msgWriteNvmData.msgWriteNvmData
                0x9d03ee4c       0x10
 .rodata.msgWriteNvmData.msgWriteNvmData
                0x9d03ee4c       0x10 build/default/production/_ext/454704213/osc.o
                0x9d03ee4c                msgWriteNvmData

.rodata.msgReadNvmData.msgReadNvmData
                0x9d03ee5c       0x10
 .rodata.msgReadNvmData.msgReadNvmData
                0x9d03ee5c       0x10 build/default/production/_ext/454704213/osc.o
                0x9d03ee5c                msgReadNvmData

.rodata.msgClearNvmData.msgClearNvmData
                0x9d03ee6c       0x10
 .rodata.msgClearNvmData.msgClearNvmData
                0x9d03ee6c       0x10 build/default/production/_ext/454704213/osc.o
                0x9d03ee6c                msgClearNvmData

.rodata.msgConfiguration.msgConfiguration
                0x9d03ee7c       0x10
 .rodata.msgConfiguration.msgConfiguration
                0x9d03ee7c       0x10 build/default/production/_ext/454704213/osc.o
                0x9d03ee7c                msgConfiguration

.rodata.msgGetVersion.msgGetVersion
                0x9d03ee8c       0x10
 .rodata.msgGetVersion.msgGetVersion
                0x9d03ee8c       0x10 build/default/production/_ext/454704213/osc.o
                0x9d03ee8c                msgGetVersion

.text.DHCPIsBound
                0x9d03ee9c       0x10
 .text.DHCPIsBound
                0x9d03ee9c       0x10 build/default/production/_ext/1340694758/DHCP.o
                0x9d03ee9d                DHCPIsBound

.text.DHCPIsServerDetected
                0x9d03eeac       0x10
 .text.DHCPIsServerDetected
                0x9d03eeac       0x10 build/default/production/_ext/1340694758/DHCP.o
                0x9d03eead                DHCPIsServerDetected

.text.MACGetTxBaseAddr
                0x9d03eebc       0x10
 .text.MACGetTxBaseAddr
                0x9d03eebc       0x10 build/default/production/_ext/1340694758/ETHPIC32IntMac.o
                0x9d03eebd                MACGetTxBaseAddr

.text.MACPut    0x9d03eecc       0x10
 .text.MACPut   0x9d03eecc       0x10 build/default/production/_ext/1340694758/ETHPIC32IntMac.o
                0x9d03eecd                MACPut

.text.MACGet    0x9d03eedc       0x10
 .text.MACGet   0x9d03eedc       0x10 build/default/production/_ext/1340694758/ETHPIC32IntMac.o
                0x9d03eedd                MACGet

.text.swaps     0x9d03eeec       0x10
 .text.swaps    0x9d03eeec       0x10 build/default/production/_ext/1340694758/Helpers.o
                0x9d03eeed                swaps

.text.mrb_nil_value
                0x9d03eefc       0x10
 .text.mrb_nil_value
                0x9d03eefc       0x10 build/default/production/picrouter.o

.text.USBCB_SOF_Handler
                0x9d03ef0c       0x10
 .text.USBCB_SOF_Handler
                0x9d03ef0c       0x10 build/default/production/picrouter.o
                0x9d03ef0d                USBCB_SOF_Handler

.text.mrb_symbol_value
                0x9d03ef1c       0x10
 .text.mrb_symbol_value
                0x9d03ef1c       0x10 ..\mruby-1.0.0\build\PICrouter\lib\libmruby.a(class.o)

.text.mrb_nil_value
                0x9d03ef2c       0x10
 .text.mrb_nil_value
                0x9d03ef2c       0x10 ..\mruby-1.0.0\build\PICrouter\lib\libmruby.a(class.o)

.text.kh_fill_flags
                0x9d03ef3c       0x10
 .text.kh_fill_flags
                0x9d03ef3c       0x10 ..\mruby-1.0.0\build\PICrouter\lib\libmruby.a(class.o)

.text.mrb_bob_init
                0x9d03ef4c       0x10
 .text.mrb_bob_init
                0x9d03ef4c       0x10 ..\mruby-1.0.0\build\PICrouter\lib\libmruby.a(class.o)

.text.mrb_class_get
                0x9d03ef5c       0x10
 .text.mrb_class_get
                0x9d03ef5c       0x10 ..\mruby-1.0.0\build\PICrouter\lib\libmruby.a(class.o)
                0x9d03ef5d                mrb_class_get

.text.mrb_define_class_method
                0x9d03ef6c       0x10
 .text.mrb_define_class_method
                0x9d03ef6c       0x10 ..\mruby-1.0.0\build\PICrouter\lib\libmruby.a(class.o)
                0x9d03ef6d                mrb_define_class_method

.text.mrb_symbol_value
                0x9d03ef7c       0x10
 .text.mrb_symbol_value
                0x9d03ef7c       0x10 ..\mruby-1.0.0\build\PICrouter\lib\libmruby.a(error.o)

.text.mrb_nil_value
                0x9d03ef8c       0x20
 .text.mrb_nil_value
                0x9d03ef8c       0x10 ..\mruby-1.0.0\build\PICrouter\lib\libmruby.a(error.o)
 .text.mrb_nil_value
                0x9d03ef9c       0x10 ..\mruby-1.0.0\build\PICrouter\lib\libmruby.a(gc.o)

.text.link_heap_page
                0x9d03efac       0x10
 .text.link_heap_page
                0x9d03efac       0x10 ..\mruby-1.0.0\build\PICrouter\lib\libmruby.a(gc.o)

.text.link_free_heap_page
                0x9d03efbc       0x10
 .text.link_free_heap_page
                0x9d03efbc       0x10 ..\mruby-1.0.0\build\PICrouter\lib\libmruby.a(gc.o)

.text.prepare_incremental_sweep
                0x9d03efcc       0x10
 .text.prepare_incremental_sweep
                0x9d03efcc       0x10 ..\mruby-1.0.0\build\PICrouter\lib\libmruby.a(gc.o)

.text.mrb_free  0x9d03efdc       0x10
 .text.mrb_free
                0x9d03efdc       0x10 ..\mruby-1.0.0\build\PICrouter\lib\libmruby.a(gc.o)
                0x9d03efdd                mrb_free

.text.mrb_malloc
                0x9d03efec       0x10
 .text.mrb_malloc
                0x9d03efec       0x10 ..\mruby-1.0.0\build\PICrouter\lib\libmruby.a(gc.o)
                0x9d03efed                mrb_malloc

.text.mrb_nil_value
                0x9d03effc       0x10
 .text.mrb_nil_value
                0x9d03effc       0x10 ..\mruby-1.0.0\build\PICrouter\lib\libmruby.a(hash.o)

.text.kh_fill_flags
                0x9d03f00c       0x10
 .text.kh_fill_flags
                0x9d03f00c       0x10 ..\mruby-1.0.0\build\PICrouter\lib\libmruby.a(hash.o)

.text.mrb_gc_free_hash
                0x9d03f01c       0x10
 .text.mrb_gc_free_hash
                0x9d03f01c       0x10 ..\mruby-1.0.0\build\PICrouter\lib\libmruby.a(hash.o)
                0x9d03f01d                mrb_gc_free_hash

.text.mrb_hash_modify
                0x9d03f02c       0x10
 .text.mrb_hash_modify
                0x9d03f02c       0x10 ..\mruby-1.0.0\build\PICrouter\lib\libmruby.a(hash.o)

.text.mrb_symbol_value
                0x9d03f03c       0x10
 .text.mrb_symbol_value
                0x9d03f03c       0x10 ..\mruby-1.0.0\build\PICrouter\lib\libmruby.a(kernel.o)

.text.mrb_nil_value
                0x9d03f04c       0x10
 .text.mrb_nil_value
                0x9d03f04c       0x10 ..\mruby-1.0.0\build\PICrouter\lib\libmruby.a(kernel.o)

.text.kh_fill_flags
                0x9d03f05c       0x10
 .text.kh_fill_flags
                0x9d03f05c       0x10 ..\mruby-1.0.0\build\PICrouter\lib\libmruby.a(kernel.o)

.text.mrb_false
                0x9d03f06c       0x10
 .text.mrb_false
                0x9d03f06c       0x10 ..\mruby-1.0.0\build\PICrouter\lib\libmruby.a(kernel.o)
                0x9d03f06d                mrb_false

.text.basic_obj_respond_to
                0x9d03f07c       0x10
 .text.basic_obj_respond_to
                0x9d03f07c       0x10 ..\mruby-1.0.0\build\PICrouter\lib\libmruby.a(kernel.o)

.text.mrb_nil_value
                0x9d03f08c       0x10
 .text.mrb_nil_value
                0x9d03f08c       0x10 ..\mruby-1.0.0\build\PICrouter\lib\libmruby.a(load.o)

.text.read_section_irep
                0x9d03f09c       0x10
 .text.read_section_irep
                0x9d03f09c       0x10 ..\mruby-1.0.0\build\PICrouter\lib\libmruby.a(load.o)

.text.mrb_load_irep
                0x9d03f0ac       0x10
 .text.mrb_load_irep
                0x9d03f0ac       0x10 ..\mruby-1.0.0\build\PICrouter\lib\libmruby.a(load.o)
                0x9d03f0ad                mrb_load_irep

.rodata.msg.6151.msg
                0x9d03f0bc       0x10
 .rodata.msg.6151.msg
                0x9d03f0bc       0x10 ..\mruby-1.0.0\build\PICrouter\lib\libmruby.a(load.o)

.text.mrb_nil_value
                0x9d03f0cc       0x10
 .text.mrb_nil_value
                0x9d03f0cc       0x10 ..\mruby-1.0.0\build\PICrouter\lib\libmruby.a(object.o)

.text.mrb_true  0x9d03f0dc       0x10
 .text.mrb_true
                0x9d03f0dc       0x10 ..\mruby-1.0.0\build\PICrouter\lib\libmruby.a(object.o)

.text.true_or   0x9d03f0ec       0x10
 .text.true_or  0x9d03f0ec       0x10 ..\mruby-1.0.0\build\PICrouter\lib\libmruby.a(object.o)

.text.false_and
                0x9d03f0fc       0x10
 .text.false_and
                0x9d03f0fc       0x10 ..\mruby-1.0.0\build\PICrouter\lib\libmruby.a(object.o)

.text.mrb_symbol_value
                0x9d03f10c       0x10
 .text.mrb_symbol_value
                0x9d03f10c       0x10 ..\mruby-1.0.0\build\PICrouter\lib\libmruby.a(string.o)

.text.mrb_nil_value
                0x9d03f11c       0x10
 .text.mrb_nil_value
                0x9d03f11c       0x10 ..\mruby-1.0.0\build\PICrouter\lib\libmruby.a(string.o)

.text.mrb_symbol_value
                0x9d03f12c       0x10
 .text.mrb_symbol_value
                0x9d03f12c       0x10 ..\mruby-1.0.0\build\PICrouter\lib\libmruby.a(symbol.o)

.text.mrb_nil_value
                0x9d03f13c       0x10
 .text.mrb_nil_value
                0x9d03f13c       0x10 ..\mruby-1.0.0\build\PICrouter\lib\libmruby.a(symbol.o)

.text.kh_fill_flags
                0x9d03f14c       0x10
 .text.kh_fill_flags
                0x9d03f14c       0x10 ..\mruby-1.0.0\build\PICrouter\lib\libmruby.a(symbol.o)

.text.mrb_init_symtbl
                0x9d03f15c       0x10
 .text.mrb_init_symtbl
                0x9d03f15c       0x10 ..\mruby-1.0.0\build\PICrouter\lib\libmruby.a(symbol.o)
                0x9d03f15d                mrb_init_symtbl

.text.mrb_symbol_value
                0x9d03f16c       0x10
 .text.mrb_symbol_value
                0x9d03f16c       0x10 ..\mruby-1.0.0\build\PICrouter\lib\libmruby.a(variable.o)

.text.mrb_nil_value
                0x9d03f17c       0x10
 .text.mrb_nil_value
                0x9d03f17c       0x10 ..\mruby-1.0.0\build\PICrouter\lib\libmruby.a(variable.o)

.text.mrb_gc_free_gv
                0x9d03f18c       0x10
 .text.mrb_gc_free_gv
                0x9d03f18c       0x10 ..\mruby-1.0.0\build\PICrouter\lib\libmruby.a(variable.o)
                0x9d03f18d                mrb_gc_free_gv

.text.mrb_gc_free_iv
                0x9d03f19c       0x10
 .text.mrb_gc_free_iv
                0x9d03f19c       0x10 ..\mruby-1.0.0\build\PICrouter\lib\libmruby.a(variable.o)
                0x9d03f19d                mrb_gc_free_iv

.text.mrb_vm_special_get
                0x9d03f1ac       0x10
 .text.mrb_vm_special_get
                0x9d03f1ac       0x10 ..\mruby-1.0.0\build\PICrouter\lib\libmruby.a(variable.o)
                0x9d03f1ad                mrb_vm_special_get

.text.mrb_cv_defined
                0x9d03f1bc       0x10
 .text.mrb_cv_defined
                0x9d03f1bc       0x10 ..\mruby-1.0.0\build\PICrouter\lib\libmruby.a(variable.o)
                0x9d03f1bd                mrb_cv_defined

.text.mrb_symbol_value
                0x9d03f1cc       0x10
 .text.mrb_symbol_value
                0x9d03f1cc       0x10 ..\mruby-1.0.0\build\PICrouter\lib\libmruby.a(vm.o)

.text.mrb_nil_value
                0x9d03f1dc       0x20
 .text.mrb_nil_value
                0x9d03f1dc       0x10 ..\mruby-1.0.0\build\PICrouter\lib\libmruby.a(vm.o)
 .text.mrb_nil_value
                0x9d03f1ec       0x10 ..\mruby-1.0.0\build\PICrouter\lib\libmruby.a(array.o)

.text.mrb_ary_new
                0x9d03f1fc       0x10
 .text.mrb_ary_new
                0x9d03f1fc       0x10 ..\mruby-1.0.0\build\PICrouter\lib\libmruby.a(array.o)
                0x9d03f1fd                mrb_ary_new

.text.mrb_ary_replace
                0x9d03f20c       0x10
 .text.mrb_ary_replace
                0x9d03f20c       0x10 ..\mruby-1.0.0\build\PICrouter\lib\libmruby.a(array.o)
                0x9d03f20d                mrb_ary_replace

.text.mrb_ary_concat
                0x9d03f21c       0x10
 .text.mrb_ary_concat
                0x9d03f21c       0x10 ..\mruby-1.0.0\build\PICrouter\lib\libmruby.a(array.o)
                0x9d03f21d                mrb_ary_concat

.text.mrb_nil_value
                0x9d03f22c       0x10
 .text.mrb_nil_value
                0x9d03f22c       0x10 ..\mruby-1.0.0\build\PICrouter\lib\libmruby.a(numeric.o)

.rodata         0x9d03f23c       0x10
 .rodata        0x9d03f23c       0x10 c:/program files (x86)/microchip/xc32/v1.22/bin/../lib/gcc/pic32mx/4.5.2/../../../../pic32mx/lib/mips16\libmchp_peripheral_32MX795F512H.a(eth_miim_access.o)

.text.I2CConfigure
                0x9d03f24c       0x10
 .text.I2CConfigure
                0x9d03f24c       0x10 c:/program files (x86)/microchip/xc32/v1.22/bin/../lib/gcc/pic32mx/4.5.2/../../../../pic32mx/lib/mips16\libmchp_peripheral_32MX795F512H.a(I2CConfigure.o)
                0x9d03f24d                I2CConfigure

.rodata         0x9d03f25c       0x10
 .rodata        0x9d03f25c       0x10 c:/program files (x86)/microchip/xc32/v1.22/bin/../lib/gcc/pic32mx/4.5.2/../../../../pic32mx/lib/mips16\libmchp_peripheral_32MX795F512H.a(I2CPrivate.o)
                0x9d03f25c                i2cBase

.text.ieee754sp_isnan
                0x9d03f26c       0x10
 .text.ieee754sp_isnan
                0x9d03f26c       0x10 c:/program files (x86)/microchip/xc32/v1.22/bin/../lib/gcc/pic32mx/4.5.2/../../../../pic32mx/lib/mips16\libe.a(_unordsf2.o)

.text.abort     0x9d03f27c       0x10
 .text.abort    0x9d03f27c       0x10 c:/program files (x86)/microchip/xc32/v1.22/bin/../lib/gcc/pic32mx/4.5.2/../../../../pic32mx/lib/mips16\libc.a(signal.o)
                0x9d03f27d                abort

.text.strlen    0x9d03f28c       0x10
 .text.strlen   0x9d03f28c       0x10 c:/program files (x86)/microchip/xc32/v1.22/bin/../lib/gcc/pic32mx/4.5.2/../../../../pic32mx/lib/mips16\libc.a(strlen.o)
                0x9d03f28d                strlen

.text.builddp   0x9d03f29c       0x10
 .text.builddp  0x9d03f29c       0x10 c:/program files (x86)/microchip/xc32/v1.22/bin/../lib/gcc/pic32mx/4.5.2/../../../../pic32mx/lib/mips16\libe.a(_ldexp.o)

.rodata.USB_SD_Ptr.USB_SD_Ptr
                0x9d03f2ac        0xc
 .rodata.USB_SD_Ptr.USB_SD_Ptr
                0x9d03f2ac        0xc build/default/production/_ext/454704213/usb_descriptors.o
                0x9d03f2ac                USB_SD_Ptr

.text.getArgumentsLength
                0x9d03f2b8        0xc
 .text.getArgumentsLength
                0x9d03f2b8        0xc build/default/production/_ext/454704213/osc.o
                0x9d03f2b9                getArgumentsLength

.rodata.msgPortIO.msgPortIO
                0x9d03f2c4        0xc
 .rodata.msgPortIO.msgPortIO
                0x9d03f2c4        0xc build/default/production/_ext/454704213/osc.o
                0x9d03f2c4                msgPortIO

.rodata.msgPortIn.msgPortIn
                0x9d03f2d0        0xc
 .rodata.msgPortIn.msgPortIn
                0x9d03f2d0        0xc build/default/production/_ext/454704213/osc.o
                0x9d03f2d0                msgPortIn

.rodata.msgAdcEnable.msgAdcEnable
                0x9d03f2dc        0xc
 .rodata.msgAdcEnable.msgAdcEnable
                0x9d03f2dc        0xc build/default/production/_ext/454704213/osc.o
                0x9d03f2dc                msgAdcEnable

.rodata.msgAdcType.msgAdcType
                0x9d03f2e8        0xc
 .rodata.msgAdcType.msgAdcType
                0x9d03f2e8        0xc build/default/production/_ext/454704213/osc.o
                0x9d03f2e8                msgAdcType

.rodata.msgAdcDio.msgAdcDio
                0x9d03f2f4        0xc
 .rodata.msgAdcDio.msgAdcDio
                0x9d03f2f4        0xc build/default/production/_ext/454704213/osc.o
                0x9d03f2f4                msgAdcDio

.rodata.msgAdcDi.msgAdcDi
                0x9d03f300        0xc
 .rodata.msgAdcDi.msgAdcDi
                0x9d03f300        0xc build/default/production/_ext/454704213/osc.o
                0x9d03f300                msgAdcDi

.rodata.msgPwmEnable.msgPwmEnable
                0x9d03f30c        0xc
 .rodata.msgPwmEnable.msgPwmEnable
                0x9d03f30c        0xc build/default/production/_ext/454704213/osc.o
                0x9d03f30c                msgPwmEnable

.rodata.msgPwmFreq.msgPwmFreq
                0x9d03f318        0xc
 .rodata.msgPwmFreq.msgPwmFreq
                0x9d03f318        0xc build/default/production/_ext/454704213/osc.o
                0x9d03f318                msgPwmFreq

.rodata.msgPwmDuty.msgPwmDuty
                0x9d03f324        0xc
 .rodata.msgPwmDuty.msgPwmDuty
                0x9d03f324        0xc build/default/production/_ext/454704213/osc.o
                0x9d03f324                msgPwmDuty

.rodata.msgPwmDio.msgPwmDio
                0x9d03f330        0xc
 .rodata.msgPwmDio.msgPwmDio
                0x9d03f330        0xc build/default/production/_ext/454704213/osc.o
                0x9d03f330                msgPwmDio

.rodata.msgPwmDi.msgPwmDi
                0x9d03f33c        0xc
 .rodata.msgPwmDi.msgPwmDi
                0x9d03f33c        0xc build/default/production/_ext/454704213/osc.o
                0x9d03f33c                msgPwmDi

.rodata.msgSpiData.msgSpiData
                0x9d03f348        0xc
 .rodata.msgSpiData.msgSpiData
                0x9d03f348        0xc build/default/production/_ext/454704213/osc.o
                0x9d03f348                msgSpiData

.rodata.msgSpiDio.msgSpiDio
                0x9d03f354        0xc
 .rodata.msgSpiDio.msgSpiDio
                0x9d03f354        0xc build/default/production/_ext/454704213/osc.o
                0x9d03f354                msgSpiDio

.rodata.msgSpiDi.msgSpiDi
                0x9d03f360        0xc
 .rodata.msgSpiDi.msgSpiDi
                0x9d03f360        0xc build/default/production/_ext/454704213/osc.o
                0x9d03f360                msgSpiDi

.rodata.msgEnableI2c.msgEnableI2c
                0x9d03f36c        0xc
 .rodata.msgEnableI2c.msgEnableI2c
                0x9d03f36c        0xc build/default/production/_ext/454704213/osc.o
                0x9d03f36c                msgEnableI2c

.rodata.msgI2cData.msgI2cData
                0x9d03f378        0xc
 .rodata.msgI2cData.msgI2cData
                0x9d03f378        0xc build/default/production/_ext/454704213/osc.o
                0x9d03f378                msgI2cData

.rodata.msgSetNote.msgSetNote
                0x9d03f384        0xc
 .rodata.msgSetNote.msgSetNote
                0x9d03f384        0xc build/default/production/_ext/454704213/osc.o
                0x9d03f384                msgSetNote

.rodata.msgSetData.msgSetData
                0x9d03f390        0xc
 .rodata.msgSetData.msgSetData
                0x9d03f390        0xc build/default/production/_ext/454704213/osc.o
                0x9d03f390                msgSetData

.rodata.msgSetPrefix.msgSetPrefix
                0x9d03f39c        0xc
 .rodata.msgSetPrefix.msgSetPrefix
                0x9d03f39c        0xc build/default/production/_ext/454704213/osc.o
                0x9d03f39c                msgSetPrefix

.rodata.msgGetPrefix.msgGetPrefix
                0x9d03f3a8        0xc
 .rodata.msgGetPrefix.msgGetPrefix
                0x9d03f3a8        0xc build/default/production/_ext/454704213/osc.o
                0x9d03f3a8                msgGetPrefix

.rodata.msgRemoteIp.msgRemoteIp
                0x9d03f3b4        0xc
 .rodata.msgRemoteIp.msgRemoteIp
                0x9d03f3b4        0xc build/default/production/_ext/454704213/osc.o
                0x9d03f3b4                msgRemoteIp

.rodata.msgHostName.msgHostName
                0x9d03f3c0        0xc
 .rodata.msgHostName.msgHostName
                0x9d03f3c0        0xc build/default/production/_ext/454704213/osc.o
                0x9d03f3c0                msgHostName

.rodata.msgHostIp.msgHostIp
                0x9d03f3cc        0xc
 .rodata.msgHostIp.msgHostIp
                0x9d03f3cc        0xc build/default/production/_ext/454704213/osc.o
                0x9d03f3cc                msgHostIp

.rodata.msgHostMac.msgHostMac
                0x9d03f3d8        0xc
 .rodata.msgHostMac.msgHostMac
                0x9d03f3d8        0xc build/default/production/_ext/454704213/osc.o
                0x9d03f3d8                msgHostMac

.rodata.msgHostPort.msgHostPort
                0x9d03f3e4        0xc
 .rodata.msgHostPort.msgHostPort
                0x9d03f3e4        0xc build/default/production/_ext/454704213/osc.o
                0x9d03f3e4                msgHostPort

.rodata.msgUsbMode.msgUsbMode
                0x9d03f3f0        0xc
 .rodata.msgUsbMode.msgUsbMode
                0x9d03f3f0        0xc build/default/production/_ext/454704213/osc.o
                0x9d03f3f0                msgUsbMode

.rodata.msgNvmData.msgNvmData
                0x9d03f3fc        0xc
 .rodata.msgNvmData.msgNvmData
                0x9d03f3fc        0xc build/default/production/_ext/454704213/osc.o
                0x9d03f3fc                msgNvmData

.rodata.msgSoftReset.msgSoftReset
                0x9d03f408        0xc
 .rodata.msgSoftReset.msgSoftReset
                0x9d03f408        0xc build/default/production/_ext/454704213/osc.o
                0x9d03f408                msgSoftReset

.rodata.msgVersion.msgVersion
                0x9d03f414        0xc
 .rodata.msgVersion.msgVersion
                0x9d03f414        0xc build/default/production/_ext/454704213/osc.o
                0x9d03f414                msgVersion

.text._MacAllocCallback
                0x9d03f420        0xc
 .text._MacAllocCallback
                0x9d03f420        0xc build/default/production/_ext/1340694758/ETHPIC32IntMac.o

.text.MACIsLinked
                0x9d03f42c        0xc
 .text.MACIsLinked
                0x9d03f42c        0xc build/default/production/_ext/1340694758/ETHPIC32IntMac.o
                0x9d03f42d                MACIsLinked

.text.MACSetWritePtr
                0x9d03f438        0xc
 .text.MACSetWritePtr
                0x9d03f438        0xc build/default/production/_ext/1340694758/ETHPIC32IntMac.o
                0x9d03f439                MACSetWritePtr

.text.MACSetReadPtr
                0x9d03f444        0xc
 .text.MACSetReadPtr
                0x9d03f444        0xc build/default/production/_ext/1340694758/ETHPIC32IntMac.o
                0x9d03f445                MACSetReadPtr

.text.zcll_rand
                0x9d03f450        0xc
 .text.zcll_rand
                0x9d03f450        0xc build/default/production/_ext/1340694758/ZeroconfLinkLocal.o
                0x9d03f451                zcll_rand

.text.ARPAction
                0x9d03f45c        0xc
 .text.ARPAction
                0x9d03f45c        0xc build/default/production/_ext/1340694758/ZeroconfLinkLocal.o
                0x9d03f45d                ARPAction

.text.UDPPUT_LOCAL
                0x9d03f468        0xc
 .text.UDPPUT_LOCAL
                0x9d03f468        0xc build/default/production/_ext/1340694758/ZeroconfMulticastDNS.o

.text.USBCBCheckOtherReq
                0x9d03f474        0xc
 .text.USBCBCheckOtherReq
                0x9d03f474        0xc build/default/production/picrouter.o
                0x9d03f475                USBCBCheckOtherReq

.text.kh_init_mt
                0x9d03f480        0xc
 .text.kh_init_mt
                0x9d03f480        0xc ..\mruby-1.0.0\build\PICrouter\lib\libmruby.a(class.o)
                0x9d03f481                kh_init_mt

.text.mrb_gc_mark_mt_size
                0x9d03f48c        0xc
 .text.mrb_gc_mark_mt_size
                0x9d03f48c        0xc ..\mruby-1.0.0\build\PICrouter\lib\libmruby.a(class.o)
                0x9d03f48d                mrb_gc_mark_mt_size

.text.mrb_gc_free_mt
                0x9d03f498        0xc
 .text.mrb_gc_free_mt
                0x9d03f498        0xc ..\mruby-1.0.0\build\PICrouter\lib\libmruby.a(class.o)
                0x9d03f499                mrb_gc_free_mt

.text.kh_init_ht
                0x9d03f4a4        0xc
 .text.kh_init_ht
                0x9d03f4a4        0xc ..\mruby-1.0.0\build\PICrouter\lib\libmruby.a(hash.o)
                0x9d03f4a5                kh_init_ht

.text.mrb_gc_mark_hash_size
                0x9d03f4b0        0xc
 .text.mrb_gc_mark_hash_size
                0x9d03f4b0        0xc ..\mruby-1.0.0\build\PICrouter\lib\libmruby.a(hash.o)
                0x9d03f4b1                mrb_gc_mark_hash_size

.text.kh_init_st
                0x9d03f4bc        0xc
 .text.kh_init_st
                0x9d03f4bc        0xc ..\mruby-1.0.0\build\PICrouter\lib\libmruby.a(kernel.o)
                0x9d03f4bd                kh_init_st

.text.bin_to_uint16
                0x9d03f4c8        0xc
 .text.bin_to_uint16
                0x9d03f4c8        0xc ..\mruby-1.0.0\build\PICrouter\lib\libmruby.a(load.o)

.text.str_with_class
                0x9d03f4d4        0xc
 .text.str_with_class
                0x9d03f4d4        0xc ..\mruby-1.0.0\build\PICrouter\lib\libmruby.a(string.o)
                0x9d03f4d5                str_with_class

.text.kh_init_n2s
                0x9d03f4e0        0xc
 .text.kh_init_n2s
                0x9d03f4e0        0xc ..\mruby-1.0.0\build\PICrouter\lib\libmruby.a(symbol.o)
                0x9d03f4e1                kh_init_n2s

.text.mrb_intern
                0x9d03f4ec        0xc
 .text.mrb_intern
                0x9d03f4ec        0xc ..\mruby-1.0.0\build\PICrouter\lib\libmruby.a(symbol.o)
                0x9d03f4ed                mrb_intern

.text.mrb_intern_static
                0x9d03f4f8        0xc
 .text.mrb_intern_static
                0x9d03f4f8        0xc ..\mruby-1.0.0\build\PICrouter\lib\libmruby.a(symbol.o)
                0x9d03f4f9                mrb_intern_static

.text.mrb_gc_mark_gv
                0x9d03f504        0xc
 .text.mrb_gc_mark_gv
                0x9d03f504        0xc ..\mruby-1.0.0\build\PICrouter\lib\libmruby.a(variable.o)
                0x9d03f505                mrb_gc_mark_gv

.text.mrb_gc_mark_iv
                0x9d03f510        0xc
 .text.mrb_gc_mark_iv
                0x9d03f510        0xc ..\mruby-1.0.0\build\PICrouter\lib\libmruby.a(variable.o)
                0x9d03f511                mrb_gc_mark_iv

.text.mrb_gc_mark_iv_size
                0x9d03f51c        0xc
 .text.mrb_gc_mark_iv_size
                0x9d03f51c        0xc ..\mruby-1.0.0\build\PICrouter\lib\libmruby.a(variable.o)
                0x9d03f51d                mrb_gc_mark_iv_size

.text.mrb_longjmp
                0x9d03f528        0xc
 .text.mrb_longjmp
                0x9d03f528        0xc ..\mruby-1.0.0\build\PICrouter\lib\libmruby.a(vm.o)
                0x9d03f529                mrb_longjmp

.rodata.lead.6452.lead
                0x9d03f534        0xc
 .rodata.lead.6452.lead
                0x9d03f534        0xc ..\mruby-1.0.0\build\PICrouter\lib\libmruby.a(vm.o)

.rodata         0x9d03f540       0x18
 .rodata        0x9d03f540        0xc ..\mruby-1.0.0\build\PICrouter\lib\libmruby.a(compar.o)
 .rodata        0x9d03f54c        0xc ..\mruby-1.0.0\build\PICrouter\lib\libmruby.a(enum.o)

.text.EthRxAcknowledgeBuffer
                0x9d03f558        0xc
 .text.EthRxAcknowledgeBuffer
                0x9d03f558        0xc c:/program files (x86)/microchip/xc32/v1.22/bin/../lib/gcc/pic32mx/4.5.2/../../../../pic32mx/lib/mips16\libmchp_peripheral_32MX795F512H.a(eth_ack_packet_lib.o)
                0x9d03f559                EthRxAcknowledgeBuffer

.text.EthRxFiltersSet
                0x9d03f564        0xc
 .text.EthRxFiltersSet
                0x9d03f564        0xc c:/program files (x86)/microchip/xc32/v1.22/bin/../lib/gcc/pic32mx/4.5.2/../../../../pic32mx/lib/mips16\libmchp_peripheral_32MX795F512H.a(eth_rx_filters_lib.o)
                0x9d03f565                EthRxFiltersSet

.text.EthRxFiltersClr
                0x9d03f570        0xc
 .text.EthRxFiltersClr
                0x9d03f570        0xc c:/program files (x86)/microchip/xc32/v1.22/bin/../lib/gcc/pic32mx/4.5.2/../../../../pic32mx/lib/mips16\libmchp_peripheral_32MX795F512H.a(eth_rx_filters_lib.o)
                0x9d03f571                EthRxFiltersClr

.text.setInitReceiveFlag
                0x9d03f57c        0x8
 .text.setInitReceiveFlag
                0x9d03f57c        0x8 build/default/production/_ext/454704213/osc.o
                0x9d03f57d                setInitReceiveFlag

.text.setInitSendFlag
                0x9d03f584        0x8
 .text.setInitSendFlag
                0x9d03f584        0x8 build/default/production/_ext/454704213/osc.o
                0x9d03f585                setInitSendFlag

.text.getInitSendFlag
                0x9d03f58c        0x8
 .text.getInitSendFlag
                0x9d03f58c        0x8 build/default/production/_ext/454704213/osc.o
                0x9d03f58d                getInitSendFlag

.text.setInitDiscoverFlag
                0x9d03f594        0x8
 .text.setInitDiscoverFlag
                0x9d03f594        0x8 build/default/production/_ext/454704213/osc.o
                0x9d03f595                setInitDiscoverFlag

.text.getInitDiscoverFlag
                0x9d03f59c        0x8
 .text.getInitDiscoverFlag
                0x9d03f59c        0x8 build/default/production/_ext/454704213/osc.o
                0x9d03f59d                getInitDiscoverFlag

.text.setChCompletedFlag
                0x9d03f5a4        0x8
 .text.setChCompletedFlag
                0x9d03f5a4        0x8 build/default/production/_ext/454704213/osc.o
                0x9d03f5a5                setChCompletedFlag

.text.getChCompletedFlag
                0x9d03f5ac        0x8
 .text.getChCompletedFlag
                0x9d03f5ac        0x8 build/default/production/_ext/454704213/osc.o
                0x9d03f5ad                getChCompletedFlag

.text.getRemoteIp
                0x9d03f5b4        0x8
 .text.getRemoteIp
                0x9d03f5b4        0x8 build/default/production/_ext/454704213/osc.o
                0x9d03f5b5                getRemoteIp

.text.setRemotePort
                0x9d03f5bc        0x8
 .text.setRemotePort
                0x9d03f5bc        0x8 build/default/production/_ext/454704213/osc.o
                0x9d03f5bd                setRemotePort

.text.getRemotePort
                0x9d03f5c4        0x8
 .text.getRemotePort
                0x9d03f5c4        0x8 build/default/production/_ext/454704213/osc.o
                0x9d03f5c5                getRemotePort

.text.setLocalPort
                0x9d03f5cc        0x8
 .text.setLocalPort
                0x9d03f5cc        0x8 build/default/production/_ext/454704213/osc.o
                0x9d03f5cd                setLocalPort

.text.getLocalPort
                0x9d03f5d4        0x8
 .text.getLocalPort
                0x9d03f5d4        0x8 build/default/production/_ext/454704213/osc.o
                0x9d03f5d5                getLocalPort

.text.getOSCPrefix
                0x9d03f5dc        0x8
 .text.getOSCPrefix
                0x9d03f5dc        0x8 build/default/production/_ext/454704213/osc.o
                0x9d03f5dd                getOSCPrefix

.text.getOSCHostName
                0x9d03f5e4        0x8
 .text.getOSCHostName
                0x9d03f5e4        0x8 build/default/production/_ext/454704213/osc.o
                0x9d03f5e5                getOSCHostName

.rodata.msgAdc.msgAdc
                0x9d03f5ec        0x8
 .rodata.msgAdc.msgAdc
                0x9d03f5ec        0x8 build/default/production/_ext/454704213/osc.o
                0x9d03f5ec                msgAdc

.rodata.midiPrefix.midiPrefix
                0x9d03f5f4        0x8
 .rodata.midiPrefix.midiPrefix
                0x9d03f5f4        0x8 build/default/production/_ext/454704213/osc.o
                0x9d03f5f4                midiPrefix

.rodata.msgNote.msgNote
                0x9d03f5fc        0x8
 .rodata.msgNote.msgNote
                0x9d03f5fc        0x8 build/default/production/_ext/454704213/osc.o
                0x9d03f5fc                msgNote

.rodata.msgSetCc.msgSetCc
                0x9d03f604        0x8
 .rodata.msgSetCc.msgSetCc
                0x9d03f604        0x8 build/default/production/_ext/454704213/osc.o
                0x9d03f604                msgSetCc

.rodata.msgSetPc.msgSetPc
                0x9d03f60c        0x8
 .rodata.msgSetPc.msgSetPc
                0x9d03f60c        0x8 build/default/production/_ext/454704213/osc.o
                0x9d03f60c                msgSetPc

.rodata.msgSetKp.msgSetKp
                0x9d03f614        0x8
 .rodata.msgSetKp.msgSetKp
                0x9d03f614        0x8 build/default/production/_ext/454704213/osc.o
                0x9d03f614                msgSetKp

.rodata.msgSetCp.msgSetCp
                0x9d03f61c        0x8
 .rodata.msgSetCp.msgSetCp
                0x9d03f61c        0x8 build/default/production/_ext/454704213/osc.o
                0x9d03f61c                msgSetCp

.rodata.msgSetPb.msgSetPb
                0x9d03f624        0x8
 .rodata.msgSetPb.msgSetPb
                0x9d03f624        0x8 build/default/production/_ext/454704213/osc.o
                0x9d03f624                msgSetPb

.rodata.cdcPrefix.cdcPrefix
                0x9d03f62c        0x8
 .rodata.cdcPrefix.cdcPrefix
                0x9d03f62c        0x8 build/default/production/_ext/454704213/osc.o
                0x9d03f62c                cdcPrefix

.rodata.msgData.msgData
                0x9d03f634        0x8
 .rodata.msgData.msgData
                0x9d03f634        0x8 build/default/production/_ext/454704213/osc.o
                0x9d03f634                msgData

.rodata.sysPrefix.sysPrefix
                0x9d03f63c        0x8
 .rodata.sysPrefix.sysPrefix
                0x9d03f63c        0x8 build/default/production/_ext/454704213/osc.o
                0x9d03f63c                sysPrefix

.rodata.msgPrefix.msgPrefix
                0x9d03f644        0x8
 .rodata.msgPrefix.msgPrefix
                0x9d03f644        0x8 build/default/production/_ext/454704213/osc.o
                0x9d03f644                msgPrefix

.rodata.msgDebug.msgDebug
                0x9d03f64c        0x8
 .rodata.msgDebug.msgDebug
                0x9d03f64c        0x8 build/default/production/_ext/454704213/osc.o
                0x9d03f64c                msgDebug

.rodata.msgError.msgError
                0x9d03f654        0x8
 .rodata.msgError.msgError
                0x9d03f654        0x8 build/default/production/_ext/454704213/osc.o
                0x9d03f654                msgError

.rodata.SerializedMACAddress.SerializedMACAddress
                0x9d03f65c        0x8
 .rodata.SerializedMACAddress.SerializedMACAddress
                0x9d03f65c        0x8 build/default/production/_ext/454704213/osc.o

.text.EthPhyMIIMClock
                0x9d03f664        0x8
 .text.EthPhyMIIMClock
                0x9d03f664        0x8 build/default/production/_ext/1340694758/ETHPIC32ExtPhyDP83848.o
                0x9d03f665                EthPhyMIIMClock

.text._TxAckCallback
                0x9d03f66c        0x8
 .text._TxAckCallback
                0x9d03f66c        0x8 build/default/production/_ext/1340694758/ETHPIC32IntMac.o

.rodata.C.69.28583.C.69
                0x9d03f674        0x8
 .rodata.C.69.28583.C.69
                0x9d03f674        0x8 build/default/production/_ext/1340694758/ETHPIC32IntMac.o

.rodata.C.1.28585.C.1
                0x9d03f67c        0x8
 .rodata.C.1.28585.C.1
                0x9d03f67c        0x8 build/default/production/_ext/1340694758/ZeroconfMulticastDNS.o

.text._general_exception_handler
                0x9d03f684        0x8
 .text._general_exception_handler
                0x9d03f684        0x8 build/default/production/picrouter.o
                0x9d03f685                _general_exception_handler

.rodata.__m_either.__m_either
                0x9d03f68c        0x8
 .rodata.__m_either.__m_either
                0x9d03f68c        0x8 ..\mruby-1.0.0\build\PICrouter\lib\libmruby.a(class.o)

.rodata.__m_del.__m_del
                0x9d03f694        0x8
 .rodata.__m_del.__m_del
                0x9d03f694        0x8 ..\mruby-1.0.0\build\PICrouter\lib\libmruby.a(class.o)

.rodata.__m_empty.__m_empty
                0x9d03f69c        0x8
 .rodata.__m_empty.__m_empty
                0x9d03f69c        0x8 ..\mruby-1.0.0\build\PICrouter\lib\libmruby.a(class.o)

.rodata.__m_either.__m_either
                0x9d03f6a4        0x8
 .rodata.__m_either.__m_either
                0x9d03f6a4        0x8 ..\mruby-1.0.0\build\PICrouter\lib\libmruby.a(hash.o)

.rodata.__m_del.__m_del
                0x9d03f6ac        0x8
 .rodata.__m_del.__m_del
                0x9d03f6ac        0x8 ..\mruby-1.0.0\build\PICrouter\lib\libmruby.a(hash.o)

.rodata.__m_empty.__m_empty
                0x9d03f6b4        0x8
 .rodata.__m_empty.__m_empty
                0x9d03f6b4        0x8 ..\mruby-1.0.0\build\PICrouter\lib\libmruby.a(hash.o)

.rodata.__m_either.__m_either
                0x9d03f6bc        0x8
 .rodata.__m_either.__m_either
                0x9d03f6bc        0x8 ..\mruby-1.0.0\build\PICrouter\lib\libmruby.a(kernel.o)

.rodata.__m_del.__m_del
                0x9d03f6c4        0x8
 .rodata.__m_del.__m_del
                0x9d03f6c4        0x8 ..\mruby-1.0.0\build\PICrouter\lib\libmruby.a(kernel.o)

.rodata.__m_empty.__m_empty
                0x9d03f6cc        0x8
 .rodata.__m_empty.__m_empty
                0x9d03f6cc        0x8 ..\mruby-1.0.0\build\PICrouter\lib\libmruby.a(kernel.o)

.rodata         0x9d03f6d4        0x8
 .rodata        0x9d03f6d4        0x8 ..\mruby-1.0.0\build\PICrouter\lib\libmruby.a(print.o)

.text.mrb_proc_iseq
                0x9d03f6dc        0x8
 .text.mrb_proc_iseq
                0x9d03f6dc        0x8 ..\mruby-1.0.0\build\PICrouter\lib\libmruby.a(proc.o)
                0x9d03f6dd                mrb_proc_iseq

.text.mrb_irep_incref
                0x9d03f6e4        0x8
 .text.mrb_irep_incref
                0x9d03f6e4        0x8 ..\mruby-1.0.0\build\PICrouter\lib\libmruby.a(state.o)
                0x9d03f6e5                mrb_irep_incref

.rodata.__m_either.__m_either
                0x9d03f6ec        0x8
 .rodata.__m_either.__m_either
                0x9d03f6ec        0x8 ..\mruby-1.0.0\build\PICrouter\lib\libmruby.a(symbol.o)

.rodata.__m_del.__m_del
                0x9d03f6f4        0x8
 .rodata.__m_del.__m_del
                0x9d03f6f4        0x8 ..\mruby-1.0.0\build\PICrouter\lib\libmruby.a(symbol.o)

.rodata.__m_empty.__m_empty
                0x9d03f6fc        0x8
 .rodata.__m_empty.__m_empty
                0x9d03f6fc        0x8 ..\mruby-1.0.0\build\PICrouter\lib\libmruby.a(symbol.o)

.text.mrb_vm_special_set
                0x9d03f704        0x8
 .text.mrb_vm_special_set
                0x9d03f704        0x8 ..\mruby-1.0.0\build\PICrouter\lib\libmruby.a(variable.o)
                0x9d03f705                mrb_vm_special_set

.text.ReadCoreTimer
                0x9d03f70c        0x8
 .text.ReadCoreTimer
                0x9d03f70c        0x8 c:/program files (x86)/microchip/xc32/v1.22/bin/../lib/gcc/pic32mx/4.5.2/../../../../pic32mx/lib/mips16\libmchp_peripheral.a(read_core_timer_lib.o)
                0x9d03f70c                ReadCoreTimer

.text.INTDisableInterrupts
                0x9d03f714        0x8
 .text.INTDisableInterrupts
                0x9d03f714        0x8 c:/program files (x86)/microchip/xc32/v1.22/bin/../lib/gcc/pic32mx/4.5.2/../../../../pic32mx/lib/mips16\libmchp_peripheral_32MX795F512H.a(int_disable_interrupts_lib.o)
                0x9d03f714                INTDisableInterrupts

.text.INTEnableInterrupts
                0x9d03f71c        0x8
 .text.INTEnableInterrupts
                0x9d03f71c        0x8 c:/program files (x86)/microchip/xc32/v1.22/bin/../lib/gcc/pic32mx/4.5.2/../../../../pic32mx/lib/mips16\libmchp_peripheral_32MX795F512H.a(int_enable_interrupts_lib.o)
                0x9d03f71c                INTEnableInterrupts

.text._bootstrap_exception_handler
                0x9d03f724        0x8
 .text._bootstrap_exception_handler
                0x9d03f724        0x8 c:/program files (x86)/microchip/xc32/v1.22/bin/../lib/gcc/pic32mx/4.5.2/../../../../pic32mx/lib/mips16\libpic32.a(default-bootstrap-exception-handler.o)
                0x9d03f724                _bootstrap_exception_handler

.rodata.sd000.sd000
                0x9d02e63c        0x4
 .rodata.sd000.sd000
                0x9d02e63c        0x4 build/default/production/_ext/454704213/usb_descriptors.o
                0x9d02e63c                sd000

.rodata.USB_CD_Ptr.USB_CD_Ptr
                0x9d03f72c        0x4
 .rodata.USB_CD_Ptr.USB_CD_Ptr
                0x9d03f72c        0x4 build/default/production/_ext/454704213/usb_descriptors.o
                0x9d03f72c                USB_CD_Ptr

.rodata.msgCc.msgCc
                0x9d03f730        0x4
 .rodata.msgCc.msgCc
                0x9d03f730        0x4 build/default/production/_ext/454704213/osc.o
                0x9d03f730                msgCc

.rodata.msgPc.msgPc
                0x9d03f734        0x4
 .rodata.msgPc.msgPc
                0x9d03f734        0x4 build/default/production/_ext/454704213/osc.o
                0x9d03f734                msgPc

.rodata.msgKp.msgKp
                0x9d03f738        0x4
 .rodata.msgKp.msgKp
                0x9d03f738        0x4 build/default/production/_ext/454704213/osc.o
                0x9d03f738                msgKp

.rodata.msgCp.msgCp
                0x9d03f73c        0x4
 .rodata.msgCp.msgCp
                0x9d03f73c        0x4 build/default/production/_ext/454704213/osc.o
                0x9d03f73c                msgCp

.rodata.msgPb.msgPb
                0x9d03f740        0x4
 .rodata.msgPb.msgPb
                0x9d03f740        0x4 build/default/production/_ext/454704213/osc.o
                0x9d03f740                msgPb

.text.EthPhyMIIMAddress
                0x9d03f744        0x4
 .text.EthPhyMIIMAddress
                0x9d03f744        0x4 build/default/production/_ext/1340694758/ETHPIC32ExtPhyDP83848.o
                0x9d03f745                EthPhyMIIMAddress

.text.MACIsMemCopyDone
                0x9d03f748        0x4
 .text.MACIsMemCopyDone
                0x9d03f748        0x4 build/default/production/_ext/1340694758/ETHPIC32IntMac.o
                0x9d03f749                MACIsMemCopyDone

.text.USBHostCDCTasks
                0x9d03f74c        0x4
 .text.USBHostCDCTasks
                0x9d03f74c        0x4 build/default/production/_ext/1798056102/usb_host_cdc.o
                0x9d03f74d                USBHostCDCTasks

.text.mrb_gc_arena_save
                0x9d03f750        0x4
 .text.mrb_gc_arena_save
                0x9d03f750        0x4 ..\mruby-1.0.0\build\PICrouter\lib\libmruby.a(gc.o)
                0x9d03f751                mrb_gc_arena_save

.text.bin_to_uint8
                0x9d03f754        0x4
 .text.bin_to_uint8
                0x9d03f754        0x4 ..\mruby-1.0.0\build\PICrouter\lib\libmruby.a(load.o)

.text.offset_crc_body
                0x9d03f758        0x4
 .text.offset_crc_body
                0x9d03f758        0x4 ..\mruby-1.0.0\build\PICrouter\lib\libmruby.a(load.o)

.text.mrb_final_core
                0x9d03f75c        0x4
 .text.mrb_final_core
                0x9d03f75c        0x4 ..\mruby-1.0.0\build\PICrouter\lib\libmruby.a(init.o)
                0x9d03f75d                mrb_final_core

.text._on_reset
                0x9d03f760        0x4
 .text._on_reset
                0x9d03f760        0x4 c:/program files (x86)/microchip/xc32/v1.22/bin/../lib/gcc/pic32mx/4.5.2/../../../../pic32mx/lib/mips16\libpic32.a(default-on-reset.o)
                0x9d03f761                _on_reset

.text._on_bootstrap
                0x9d03f764        0x4
 .text._on_bootstrap
                0x9d03f764        0x4 c:/program files (x86)/microchip/xc32/v1.22/bin/../lib/gcc/pic32mx/4.5.2/../../../../pic32mx/lib/mips16\libpic32.a(default-on-bootstrap.o)
                0x9d03f765                _on_bootstrap

.text._cleanup  0x9d03f768        0x4
 .text._cleanup
                0x9d03f768        0x4 c:/program files (x86)/microchip/xc32/v1.22/bin/../lib/gcc/pic32mx/4.5.2/../../../../pic32mx/lib/mips16\libc.a(stdclean_simple.o)
                0x9d03f769                _cleanup

.text.lseek     0x9d03f76c        0x4
 .text.lseek    0x9d03f76c        0x4 c:/program files (x86)/microchip/xc32/v1.22/bin/../lib/gcc/pic32mx/4.5.2/../../../../pic32mx/lib/mips16\libpic32.a(lseek.o)
                0x9d03f76d                lseek
